
========================================================================

** ELF Header Information

    File Name: .\obj\FMC_RW.axf

    Machine class: ELFCLASS32 (32-bit)
    Data encoding: ELFDATA2LSB (Little endian)
    Header version: EV_CURRENT (Current version)
    Operating System ABI: none
    ABI Version: 0
    File Type: ET_EXEC (Executable) (2)
    Machine: EM_ARM (ARM)

    Image Entry point: 0x00000155
    Flags: EF_ARM_HASENTRY + EF_ARM_ABI_FLOAT_SOFT (0x05000202)

    ARM ELF revision: 5 (ABI version 2)

    Conforms to Soft float procedure-call standard

    Built with
    Component: Arm Compiler for Embedded 6.22 Tool: armasm [5ee90e00]
    Component: Arm Compiler for Embedded 6.22 Tool: armlink [5ee90200]

    Header size: 52 bytes (0x34)
    Program header entry size: 32 bytes (0x20)
    Section header entry size: 40 bytes (0x28)

    Program header entries: 1
    Section header entries: 15

    Program header offset: 165116 (0x000284fc)
    Section header offset: 165148 (0x0002851c)

    Section header string table index: 14

========================================================================

** Program header #0 (PT_LOAD) [PF_X + PF_W + PF_R + PF_ARM_ENTRY]
    Size : 34704 bytes (26852 bytes in file)
    Virtual address: 0x00000000 (Alignment 8)


========================================================================

** Section #1 'ER_RO' (SHT_PROGBITS) [SHF_ALLOC + SHF_EXECINSTR]
    Size   : 26832 bytes (alignment 4)
    Address: 0x00000000

    $d.realdata
    RESET
    __Vectors
        0x00000000:    20001ec0    ...     DCD    536878784
        0x00000004:    00000155    U...    DCD    341
        0x00000008:    00000e05    ....    DCD    3589
        0x0000000c:    00000e01    ....    DCD    3585
        0x00000010:    000012e5    ....    DCD    4837
        0x00000014:    00000de1    ....    DCD    3553
        0x00000018:    00000000    ....    DCD    0
        0x0000001c:    00000000    ....    DCD    0
        0x00000020:    00000000    ....    DCD    0
        0x00000024:    00000000    ....    DCD    0
        0x00000028:    00000000    ....    DCD    0
        0x0000002c:    00001165    e...    DCD    4453
        0x00000030:    00000000    ....    DCD    0
        0x00000034:    00000000    ....    DCD    0
        0x00000038:    00000e07    ....    DCD    3591
        0x0000003c:    000001a3    ....    DCD    419
        0x00000040:    000001a5    ....    DCD    421
        0x00000044:    000001a5    ....    DCD    421
        0x00000048:    000001a5    ....    DCD    421
        0x0000004c:    000001a5    ....    DCD    421
        0x00000050:    000001a5    ....    DCD    421
        0x00000054:    000001a5    ....    DCD    421
        0x00000058:    000001a5    ....    DCD    421
        0x0000005c:    000001a5    ....    DCD    421
        0x00000060:    000001a5    ....    DCD    421
        0x00000064:    000001a5    ....    DCD    421
        0x00000068:    000001a5    ....    DCD    421
        0x0000006c:    000001a5    ....    DCD    421
        0x00000070:    000001a5    ....    DCD    421
        0x00000074:    000001a5    ....    DCD    421
        0x00000078:    000001a5    ....    DCD    421
        0x0000007c:    000001a5    ....    DCD    421
        0x00000080:    000001a5    ....    DCD    421
        0x00000084:    000001a5    ....    DCD    421
        0x00000088:    000001a5    ....    DCD    421
        0x0000008c:    000001a5    ....    DCD    421
        0x00000090:    000001a5    ....    DCD    421
        0x00000094:    000001a5    ....    DCD    421
        0x00000098:    000001a5    ....    DCD    421
        0x0000009c:    000001a5    ....    DCD    421
        0x000000a0:    000001a5    ....    DCD    421
        0x000000a4:    000001a5    ....    DCD    421
        0x000000a8:    000001a5    ....    DCD    421
        0x000000ac:    000001a5    ....    DCD    421
        0x000000b0:    000001a5    ....    DCD    421
        0x000000b4:    000001a5    ....    DCD    421
        0x000000b8:    000001a5    ....    DCD    421
        0x000000bc:    000001a5    ....    DCD    421
        0x000000c0:    000001a5    ....    DCD    421
        0x000000c4:    000001a5    ....    DCD    421
        0x000000c8:    000001a5    ....    DCD    421
        0x000000cc:    000001a5    ....    DCD    421
        0x000000d0:    000001a5    ....    DCD    421
        0x000000d4:    000013c9    ....    DCD    5065
        0x000000d8:    000001a5    ....    DCD    421
        0x000000dc:    000001a5    ....    DCD    421
        0x000000e0:    000001a5    ....    DCD    421
        0x000000e4:    000001a5    ....    DCD    421
        0x000000e8:    000001a5    ....    DCD    421
        0x000000ec:    000001a5    ....    DCD    421
        0x000000f0:    000001a5    ....    DCD    421
        0x000000f4:    000001a5    ....    DCD    421
        0x000000f8:    000001a5    ....    DCD    421
        0x000000fc:    000001a5    ....    DCD    421
        0x00000100:    000013cb    ....    DCD    5067
        0x00000104:    000001a5    ....    DCD    421
        0x00000108:    000001a5    ....    DCD    421
        0x0000010c:    000001a5    ....    DCD    421
        0x00000110:    000001a5    ....    DCD    421
        0x00000114:    000001a5    ....    DCD    421
        0x00000118:    000001a5    ....    DCD    421
        0x0000011c:    000001a5    ....    DCD    421
        0x00000120:    000001a5    ....    DCD    421
        0x00000124:    000001a5    ....    DCD    421
        0x00000128:    000001a5    ....    DCD    421
        0x0000012c:    000001a5    ....    DCD    421
        0x00000130:    000001a5    ....    DCD    421
        0x00000134:    000001a5    ....    DCD    421
        0x00000138:    000001a5    ....    DCD    421
        0x0000013c:    000001a5    ....    DCD    421
    $t
    .ARM.Collect$$$$00000000
    .ARM.Collect$$$$00000001
    __Vectors_End
    __main
    _main_stk
        0x00000140:    4803        .H      LDR      r0,__lit__00000000 ; [0x150] = 0x20001ec0
        0x00000142:    4685        .F      MOV      sp,r0
    .ARM.Collect$$$$00000004
    _main_scatterload
        0x00000144:    f000fb7a    ..z.    BL       __scatterload ; 0x83c
    .ARM.Collect$$$$00000008
    .ARM.Collect$$$$0000000A
    .ARM.Collect$$$$0000000B
    __main_after_scatterload
    _main_clock
    _main_cpp_init
    _main_init
        0x00000148:    4800        .H      LDR      r0,[pc,#0] ; [0x14c] = 0x1a09
        0x0000014a:    4700        .G      BX       r0
    $d
        0x0000014c:    00001a09    ....    DCD    6665
    .ARM.Collect$$$$00002712
    __lit__00000000
    .ARM.Collect$$$$0000000D
    .ARM.Collect$$$$0000000F
    __rt_final_cpp
    __rt_final_exit
        0x00000150:    20001ec0    ...     DCD    536878784
    $t
    .text
    Reset_Handler
        0x00000154:    4818        .H      LDR      r0,[pc,#96] ; [0x1b8] = 0x40000100
        0x00000156:    f2400159    @.Y.    MOVW     r1,#0x59
        0x0000015a:    6001        .`      STR      r1,[r0,#0]
        0x0000015c:    f2400116    @...    MOVW     r1,#0x16
        0x00000160:    6001        .`      STR      r1,[r0,#0]
        0x00000162:    f2400188    @...    MOVW     r1,#0x88
        0x00000166:    6001        .`      STR      r1,[r0,#0]
        0x00000168:    4814        .H      LDR      r0,[pc,#80] ; [0x1bc] = 0x13a5
        0x0000016a:    4780        .G      BLX      r0
        0x0000016c:    4814        .H      LDR      r0,[pc,#80] ; [0x1c0] = 0x40000180
        0x0000016e:    6801        .h      LDR      r1,[r0,#0]
        0x00000170:    2280        ."      MOVS     r2,#0x80
        0x00000172:    4391        .C      BICS     r1,r1,r2
        0x00000174:    6001        .`      STR      r1,[r0,#0]
        0x00000176:    4a13        .J      LDR      r2,[pc,#76] ; [0x1c4] = 0x40000024
        0x00000178:    f64521a5    E..!    MOV      r1,#0x5aa5
        0x0000017c:    6011        .`      STR      r1,[r2,#0]
        0x0000017e:    4a12        .J      LDR      r2,[pc,#72] ; [0x1c8] = 0x400001ec
        0x00000180:    6011        .`      STR      r1,[r2,#0]
        0x00000182:    480d        .H      LDR      r0,[pc,#52] ; [0x1b8] = 0x40000100
        0x00000184:    2100        .!      MOVS     r1,#0
        0x00000186:    6001        .`      STR      r1,[r0,#0]
        0x00000188:    4810        .H      LDR      r0,[pc,#64] ; [0x1cc] = 0x141
        0x0000018a:    4700        .G      BX       r0
        0x0000018c:    e7fe        ..      B        0x18c ; Reset_Handler + 56
        0x0000018e:    4670        pF      MOV      r0,lr
        0x00000190:    f3ef8108    ....    MRS      r1,MSP
        0x00000194:    f3ef8209    ....    MRS      r2,PSP
        0x00000198:    4b0d        .K      LDR      r3,[pc,#52] ; [0x1d0] = 0xe09
        0x0000019a:    4798        .G      BLX      r3
        0x0000019c:    4700        .G      BX       r0
        0x0000019e:    e7fe        ..      B        0x19e ; Reset_Handler + 74
        0x000001a0:    e7fe        ..      B        0x1a0 ; Reset_Handler + 76
    SysTick_Handler
        0x000001a2:    e7fe        ..      B        SysTick_Handler ; 0x1a2
    ACMP01_IRQHandler
    BOD_IRQHandler
    BPWM0_IRQHandler
    BPWM1_IRQHandler
    BRAKE0_IRQHandler
    BRAKE1_IRQHandler
    CLKFAIL_IRQHandler
    CRPT_IRQHandler
    DAC_IRQHandler
    DEFAULT_IRQHandler
    EADC_INT0_IRQHandler
    EADC_INT1_IRQHandler
    EADC_INT2_IRQHandler
    EADC_INT3_IRQHandler
    EINT0_IRQHandler
    EINT1_IRQHandler
    EINT2_IRQHandler
    EINT3_IRQHandler
    EINT4_IRQHandler
    EINT5_IRQHandler
    GPA_IRQHandler
    GPB_IRQHandler
    GPC_IRQHandler
    GPD_IRQHandler
    GPE_IRQHandler
    GPF_IRQHandler
    I2C0_IRQHandler
    I2C1_IRQHandler
    IRCTRIM_IRQHandler
    LCD_IRQHandler
    OPA_IRQHandler
    PDMA_IRQHandler
    PSIO_IRQHandler
    PWM0_P0_IRQHandler
    PWM0_P1_IRQHandler
    PWM0_P2_IRQHandler
    PWM1_P0_IRQHandler
    PWM1_P1_IRQHandler
    PWM1_P2_IRQHandler
    PWRWU_IRQHandler
    QSPI0_IRQHandler
    RTC_IRQHandler
    SC0_IRQHandler
    SPI0_IRQHandler
    SPI1_IRQHandler
    TAMPER_IRQHandler
    TK_IRQHandler
    TMR0_IRQHandler
    TMR1_IRQHandler
    TMR2_IRQHandler
    TMR3_IRQHandler
    UART0_IRQHandler
    UART3_IRQHandler
    USBD_IRQHandler
    USCI0_IRQHandler
    USCI1_IRQHandler
    USCI2_IRQHandler
    WDT_IRQHandler
    WWDT_IRQHandler
        0x000001a4:    e7fe        ..      B        ACMP01_IRQHandler ; 0x1a4
    $d
        0x000001a6:    0000        ..      DCW    0
    $t
    SH_DoCommand
        0x000001a8:    beab        ..      BKPT     #0xab
        0x000001aa:    4b0a        .K      LDR      r3,[pc,#40] ; [0x1d4] = 0xe85
        0x000001ac:    b508        ..      PUSH     {r3,lr}
        0x000001ae:    4798        .G      BLX      r3
        0x000001b0:    bd08        ..      POP      {r3,pc}
    __PC
        0x000001b2:    4670        pF      MOV      r0,lr
        0x000001b4:    47f0        .G      BLX      lr
    $d
        0x000001b6:    0000        ..      DCW    0
        0x000001b8:    40000100    ...@    DCD    1073742080
        0x000001bc:    000013a5    ....    DCD    5029
        0x000001c0:    40000180    ...@    DCD    1073742208
        0x000001c4:    40000024    $..@    DCD    1073741860
        0x000001c8:    400001ec    ...@    DCD    1073742316
        0x000001cc:    00000141    A...    DCD    321
        0x000001d0:    00000e09    ....    DCD    3593
        0x000001d4:    00000e85    ....    DCD    3717
    $t
    .text
    rand
        0x000001d8:    4905        .I      LDR      r1,[pc,#20] ; [0x1f0] = 0x20000000
        0x000001da:    4a06        .J      LDR      r2,[pc,#24] ; [0x1f4] = 0x41c64e6d
        0x000001dc:    6808        .h      LDR      r0,[r1,#0]
        0x000001de:    4350        PC      MULS     r0,r2,r0
        0x000001e0:    4a05        .J      LDR      r2,[pc,#20] ; [0x1f8] = 0x3039
        0x000001e2:    1880        ..      ADDS     r0,r0,r2
        0x000001e4:    6008        .`      STR      r0,[r1,#0]
        0x000001e6:    0840        @.      LSRS     r0,r0,#1
        0x000001e8:    4770        pG      BX       lr
    srand
        0x000001ea:    4901        .I      LDR      r1,[pc,#4] ; [0x1f0] = 0x20000000
        0x000001ec:    6008        .`      STR      r0,[r1,#0]
        0x000001ee:    4770        pG      BX       lr
    $d
        0x000001f0:    20000000    ...     DCD    536870912
        0x000001f4:    41c64e6d    mN.A    DCD    1103515245
        0x000001f8:    00003039    90..    DCD    12345
    $t
    .text
    __aeabi_memcpy
    __aeabi_memcpy4
    __aeabi_memcpy8
        0x000001fc:    4603        .F      MOV      r3,r0
        0x000001fe:    430b        .C      ORRS     r3,r3,r1
        0x00000200:    079b        ..      LSLS     r3,r3,#30
        0x00000202:    d003        ..      BEQ      0x20c ; __aeabi_memcpy + 16
        0x00000204:    e009        ..      B        0x21a ; __aeabi_memcpy + 30
        0x00000206:    c908        ..      LDM      r1!,{r3}
        0x00000208:    1f12        ..      SUBS     r2,r2,#4
        0x0000020a:    c008        ..      STM      r0!,{r3}
        0x0000020c:    2a04        .*      CMP      r2,#4
        0x0000020e:    d2fa        ..      BCS      0x206 ; __aeabi_memcpy + 10
        0x00000210:    e003        ..      B        0x21a ; __aeabi_memcpy + 30
        0x00000212:    780b        .x      LDRB     r3,[r1,#0]
        0x00000214:    7003        .p      STRB     r3,[r0,#0]
        0x00000216:    1c40        @.      ADDS     r0,r0,#1
        0x00000218:    1c49        I.      ADDS     r1,r1,#1
        0x0000021a:    1e52        R.      SUBS     r2,r2,#1
        0x0000021c:    d2f9        ..      BCS      0x212 ; __aeabi_memcpy + 22
        0x0000021e:    4770        pG      BX       lr
    .text
    __aeabi_memset
    __aeabi_memset4
    __aeabi_memset8
        0x00000220:    b2d2        ..      UXTB     r2,r2
        0x00000222:    e001        ..      B        0x228 ; __aeabi_memset + 8
        0x00000224:    7002        .p      STRB     r2,[r0,#0]
        0x00000226:    1c40        @.      ADDS     r0,r0,#1
        0x00000228:    1e49        I.      SUBS     r1,r1,#1
        0x0000022a:    d2fb        ..      BCS      0x224 ; __aeabi_memset + 4
        0x0000022c:    4770        pG      BX       lr
    __aeabi_memclr
    __aeabi_memclr4
    __aeabi_memclr8
        0x0000022e:    2200        ."      MOVS     r2,#0
        0x00000230:    e7f6        ..      B        __aeabi_memset ; 0x220
    _memset$wrapper
        0x00000232:    b510        ..      PUSH     {r4,lr}
        0x00000234:    4613        .F      MOV      r3,r2
        0x00000236:    460a        .F      MOV      r2,r1
        0x00000238:    4604        .F      MOV      r4,r0
        0x0000023a:    4619        .F      MOV      r1,r3
        0x0000023c:    f7fffff0    ....    BL       __aeabi_memset ; 0x220
        0x00000240:    4620         F      MOV      r0,r4
        0x00000242:    bd10        ..      POP      {r4,pc}
    .text
    strncpy
        0x00000244:    b510        ..      PUSH     {r4,lr}
        0x00000246:    4604        .F      MOV      r4,r0
        0x00000248:    e005        ..      B        0x256 ; strncpy + 18
        0x0000024a:    780b        .x      LDRB     r3,[r1,#0]
        0x0000024c:    7003        .p      STRB     r3,[r0,#0]
        0x0000024e:    1c40        @.      ADDS     r0,r0,#1
        0x00000250:    2b00        .+      CMP      r3,#0
        0x00000252:    d000        ..      BEQ      0x256 ; strncpy + 18
        0x00000254:    1c49        I.      ADDS     r1,r1,#1
        0x00000256:    1e52        R.      SUBS     r2,r2,#1
        0x00000258:    d2f7        ..      BCS      0x24a ; strncpy + 6
        0x0000025a:    4620         F      MOV      r0,r4
        0x0000025c:    bd10        ..      POP      {r4,pc}
    .text
    strlen
        0x0000025e:    1c42        B.      ADDS     r2,r0,#1
        0x00000260:    7801        .x      LDRB     r1,[r0,#0]
        0x00000262:    1c40        @.      ADDS     r0,r0,#1
        0x00000264:    2900        .)      CMP      r1,#0
        0x00000266:    d1fb        ..      BNE      0x260 ; strlen + 2
        0x00000268:    1a80        ..      SUBS     r0,r0,r2
        0x0000026a:    4770        pG      BX       lr
    .text
    __aeabi_fadd
        0x0000026c:    b5f8        ..      PUSH     {r3-r7,lr}
        0x0000026e:    4602        .F      MOV      r2,r0
        0x00000270:    404a        J@      EORS     r2,r2,r1
        0x00000272:    0fd4        ..      LSRS     r4,r2,#31
        0x00000274:    0042        B.      LSLS     r2,r0,#1
        0x00000276:    004b        K.      LSLS     r3,r1,#1
        0x00000278:    0852        R.      LSRS     r2,r2,#1
        0x0000027a:    085b        [.      LSRS     r3,r3,#1
        0x0000027c:    429a        .B      CMP      r2,r3
        0x0000027e:    d202        ..      BCS      0x286 ; __aeabi_fadd + 26
        0x00000280:    4602        .F      MOV      r2,r0
        0x00000282:    4608        .F      MOV      r0,r1
        0x00000284:    4611        .F      MOV      r1,r2
        0x00000286:    004a        J.      LSLS     r2,r1,#1
        0x00000288:    d023        #.      BEQ      0x2d2 ; __aeabi_fadd + 102
        0x0000028a:    0dc3        ..      LSRS     r3,r0,#23
        0x0000028c:    004a        J.      LSLS     r2,r1,#1
        0x0000028e:    b2dd        ..      UXTB     r5,r3
        0x00000290:    0e12        ..      LSRS     r2,r2,#24
        0x00000292:    1aad        ..      SUBS     r5,r5,r2
        0x00000294:    2d20         -      CMP      r5,#0x20
        0x00000296:    da35        5.      BGE      0x304 ; __aeabi_fadd + 152
        0x00000298:    0249        I.      LSLS     r1,r1,#9
        0x0000029a:    2601        .&      MOVS     r6,#1
        0x0000029c:    0a49        I.      LSRS     r1,r1,#9
        0x0000029e:    05f6        ..      LSLS     r6,r6,#23
        0x000002a0:    198a        ..      ADDS     r2,r1,r6
        0x000002a2:    2c00        .,      CMP      r4,#0
        0x000002a4:    d000        ..      BEQ      0x2a8 ; __aeabi_fadd + 60
        0x000002a6:    4252        RB      RSBS     r2,r2,#0
        0x000002a8:    2120         !      MOVS     r1,#0x20
        0x000002aa:    1b4f        O.      SUBS     r7,r1,r5
        0x000002ac:    4611        .F      MOV      r1,r2
        0x000002ae:    40b9        .@      LSLS     r1,r1,r7
        0x000002b0:    412a        *A      ASRS     r2,r2,r5
        0x000002b2:    1810        ..      ADDS     r0,r2,r0
        0x000002b4:    0dc2        ..      LSRS     r2,r0,#23
        0x000002b6:    429a        .B      CMP      r2,r3
        0x000002b8:    d021        !.      BEQ      0x2fe ; __aeabi_fadd + 146
        0x000002ba:    2c00        .,      CMP      r4,#0
        0x000002bc:    d017        ..      BEQ      0x2ee ; __aeabi_fadd + 130
        0x000002be:    2d01        .-      CMP      r5,#1
        0x000002c0:    dc08        ..      BGT      0x2d4 ; __aeabi_fadd + 104
        0x000002c2:    05da        ..      LSLS     r2,r3,#23
        0x000002c4:    1a80        ..      SUBS     r0,r0,r2
        0x000002c6:    0fd2        ..      LSRS     r2,r2,#31
        0x000002c8:    1980        ..      ADDS     r0,r0,r6
        0x000002ca:    07d2        ..      LSLS     r2,r2,#31
        0x000002cc:    b2db        ..      UXTB     r3,r3
        0x000002ce:    f000f8b5    ....    BL       _float_epilogue ; 0x43c
        0x000002d2:    bdf8        ..      POP      {r3-r7,pc}
        0x000002d4:    05da        ..      LSLS     r2,r3,#23
        0x000002d6:    1a80        ..      SUBS     r0,r0,r2
        0x000002d8:    2301        .#      MOVS     r3,#1
        0x000002da:    0040        @.      LSLS     r0,r0,#1
        0x000002dc:    061b        ..      LSLS     r3,r3,#24
        0x000002de:    18c0        ..      ADDS     r0,r0,r3
        0x000002e0:    1880        ..      ADDS     r0,r0,r2
        0x000002e2:    425a        ZB      RSBS     r2,r3,#0
        0x000002e4:    1880        ..      ADDS     r0,r0,r2
        0x000002e6:    0fca        ..      LSRS     r2,r1,#31
        0x000002e8:    4310        .C      ORRS     r0,r0,r2
        0x000002ea:    0049        I.      LSLS     r1,r1,#1
        0x000002ec:    e007        ..      B        0x2fe ; __aeabi_fadd + 146
        0x000002ee:    0849        I.      LSRS     r1,r1,#1
        0x000002f0:    07c2        ..      LSLS     r2,r0,#31
        0x000002f2:    4311        .C      ORRS     r1,r1,r2
        0x000002f4:    05da        ..      LSLS     r2,r3,#23
        0x000002f6:    1a80        ..      SUBS     r0,r0,r2
        0x000002f8:    1980        ..      ADDS     r0,r0,r6
        0x000002fa:    0840        @.      LSRS     r0,r0,#1
        0x000002fc:    1880        ..      ADDS     r0,r0,r2
        0x000002fe:    f000f895    ....    BL       __I$use$fp ; 0x42c
        0x00000302:    bdf8        ..      POP      {r3-r7,pc}
        0x00000304:    0061        a.      LSLS     r1,r4,#1
        0x00000306:    2201        ."      MOVS     r2,#1
        0x00000308:    1a51        Q.      SUBS     r1,r2,r1
        0x0000030a:    1b00        ..      SUBS     r0,r0,r4
        0x0000030c:    e7f7        ..      B        0x2fe ; __aeabi_fadd + 146
    __aeabi_fsub
        0x0000030e:    2201        ."      MOVS     r2,#1
        0x00000310:    07d2        ..      LSLS     r2,r2,#31
        0x00000312:    4051        Q@      EORS     r1,r1,r2
        0x00000314:    e7aa        ..      B        __aeabi_fadd ; 0x26c
    __aeabi_frsub
        0x00000316:    2201        ."      MOVS     r2,#1
        0x00000318:    07d2        ..      LSLS     r2,r2,#31
        0x0000031a:    4050        P@      EORS     r0,r0,r2
        0x0000031c:    e7a6        ..      B        __aeabi_fadd ; 0x26c
    .text
    __aeabi_fdiv
        0x0000031e:    b570        p.      PUSH     {r4-r6,lr}
        0x00000320:    4602        .F      MOV      r2,r0
        0x00000322:    404a        J@      EORS     r2,r2,r1
        0x00000324:    0fd5        ..      LSRS     r5,r2,#31
        0x00000326:    0040        @.      LSLS     r0,r0,#1
        0x00000328:    004a        J.      LSLS     r2,r1,#1
        0x0000032a:    07ed        ..      LSLS     r5,r5,#31
        0x0000032c:    0840        @.      LSRS     r0,r0,#1
        0x0000032e:    0852        R.      LSRS     r2,r2,#1
        0x00000330:    2800        .(      CMP      r0,#0
        0x00000332:    d014        ..      BEQ      0x35e ; __aeabi_fdiv + 64
        0x00000334:    2a00        .*      CMP      r2,#0
        0x00000336:    d012        ..      BEQ      0x35e ; __aeabi_fdiv + 64
        0x00000338:    0dc4        ..      LSRS     r4,r0,#23
        0x0000033a:    0dd3        ..      LSRS     r3,r2,#23
        0x0000033c:    0241        A.      LSLS     r1,r0,#9
        0x0000033e:    2001        .       MOVS     r0,#1
        0x00000340:    05c0        ..      LSLS     r0,r0,#23
        0x00000342:    0252        R.      LSLS     r2,r2,#9
        0x00000344:    0a49        I.      LSRS     r1,r1,#9
        0x00000346:    0a52        R.      LSRS     r2,r2,#9
        0x00000348:    1ae4        ..      SUBS     r4,r4,r3
        0x0000034a:    1809        ..      ADDS     r1,r1,r0
        0x0000034c:    1812        ..      ADDS     r2,r2,r0
        0x0000034e:    347d        }4      ADDS     r4,r4,#0x7d
        0x00000350:    4291        .B      CMP      r1,r2
        0x00000352:    d301        ..      BCC      0x358 ; __aeabi_fdiv + 58
        0x00000354:    1c64        d.      ADDS     r4,r4,#1
        0x00000356:    e000        ..      B        0x35a ; __aeabi_fdiv + 60
        0x00000358:    0049        I.      LSLS     r1,r1,#1
        0x0000035a:    2c00        .,      CMP      r4,#0
        0x0000035c:    da01        ..      BGE      0x362 ; __aeabi_fdiv + 68
        0x0000035e:    2000        .       MOVS     r0,#0
        0x00000360:    bd70        p.      POP      {r4-r6,pc}
        0x00000362:    2300        .#      MOVS     r3,#0
        0x00000364:    4291        .B      CMP      r1,r2
        0x00000366:    d301        ..      BCC      0x36c ; __aeabi_fdiv + 78
        0x00000368:    1a89        ..      SUBS     r1,r1,r2
        0x0000036a:    4303        .C      ORRS     r3,r3,r0
        0x0000036c:    0840        @.      LSRS     r0,r0,#1
        0x0000036e:    0049        I.      LSLS     r1,r1,#1
        0x00000370:    2800        .(      CMP      r0,#0
        0x00000372:    d1f7        ..      BNE      0x364 ; __aeabi_fdiv + 70
        0x00000374:    2900        .)      CMP      r1,#0
        0x00000376:    d00a        ..      BEQ      0x38e ; __aeabi_fdiv + 112
        0x00000378:    4291        .B      CMP      r1,r2
        0x0000037a:    d102        ..      BNE      0x382 ; __aeabi_fdiv + 100
        0x0000037c:    2101        .!      MOVS     r1,#1
        0x0000037e:    07c9        ..      LSLS     r1,r1,#31
        0x00000380:    e005        ..      B        0x38e ; __aeabi_fdiv + 112
        0x00000382:    4291        .B      CMP      r1,r2
        0x00000384:    d201        ..      BCS      0x38a ; __aeabi_fdiv + 108
        0x00000386:    2101        .!      MOVS     r1,#1
        0x00000388:    e001        ..      B        0x38e ; __aeabi_fdiv + 112
        0x0000038a:    2101        .!      MOVS     r1,#1
        0x0000038c:    43c9        .C      MVNS     r1,r1
        0x0000038e:    05e0        ..      LSLS     r0,r4,#23
        0x00000390:    18c0        ..      ADDS     r0,r0,r3
        0x00000392:    1940        @.      ADDS     r0,r0,r5
        0x00000394:    f000f84a    ..J.    BL       __I$use$fp ; 0x42c
        0x00000398:    bd70        p.      POP      {r4-r6,pc}
    .text
    __aeabi_f2iz
        0x0000039a:    0fc2        ..      LSRS     r2,r0,#31
        0x0000039c:    0041        A.      LSLS     r1,r0,#1
        0x0000039e:    0240        @.      LSLS     r0,r0,#9
        0x000003a0:    2301        .#      MOVS     r3,#1
        0x000003a2:    0a40        @.      LSRS     r0,r0,#9
        0x000003a4:    05db        ..      LSLS     r3,r3,#23
        0x000003a6:    07d2        ..      LSLS     r2,r2,#31
        0x000003a8:    0e09        ..      LSRS     r1,r1,#24
        0x000003aa:    18c0        ..      ADDS     r0,r0,r3
        0x000003ac:    297f        .)      CMP      r1,#0x7f
        0x000003ae:    da01        ..      BGE      0x3b4 ; __aeabi_f2iz + 26
        0x000003b0:    2000        .       MOVS     r0,#0
        0x000003b2:    4770        pG      BX       lr
        0x000003b4:    2996        .)      CMP      r1,#0x96
        0x000003b6:    dc03        ..      BGT      0x3c0 ; __aeabi_f2iz + 38
        0x000003b8:    2396        .#      MOVS     r3,#0x96
        0x000003ba:    1a59        Y.      SUBS     r1,r3,r1
        0x000003bc:    40c8        .@      LSRS     r0,r0,r1
        0x000003be:    e001        ..      B        0x3c4 ; __aeabi_f2iz + 42
        0x000003c0:    3996        .9      SUBS     r1,r1,#0x96
        0x000003c2:    4088        .@      LSLS     r0,r0,r1
        0x000003c4:    2a00        .*      CMP      r2,#0
        0x000003c6:    d0f4        ..      BEQ      0x3b2 ; __aeabi_f2iz + 24
        0x000003c8:    4240        @B      RSBS     r0,r0,#0
        0x000003ca:    4770        pG      BX       lr
    .text
    __aeabi_uldivmod
        0x000003cc:    b5f0        ..      PUSH     {r4-r7,lr}
        0x000003ce:    b41f        ..      PUSH     {r0-r4}
        0x000003d0:    4606        .F      MOV      r6,r0
        0x000003d2:    2000        .       MOVS     r0,#0
        0x000003d4:    b082        ..      SUB      sp,sp,#8
        0x000003d6:    4605        .F      MOV      r5,r0
        0x000003d8:    2440        @$      MOVS     r4,#0x40
        0x000003da:    9101        ..      STR      r1,[sp,#4]
        0x000003dc:    9000        ..      STR      r0,[sp,#0]
        0x000003de:    e01b        ..      B        0x418 ; __aeabi_uldivmod + 76
        0x000003e0:    9901        ..      LDR      r1,[sp,#4]
        0x000003e2:    4622        "F      MOV      r2,r4
        0x000003e4:    460f        .F      MOV      r7,r1
        0x000003e6:    4630        0F      MOV      r0,r6
        0x000003e8:    f000fa6f    ..o.    BL       __aeabi_llsr ; 0x8ca
        0x000003ec:    9a04        ..      LDR      r2,[sp,#0x10]
        0x000003ee:    9b05        ..      LDR      r3,[sp,#0x14]
        0x000003f0:    1a80        ..      SUBS     r0,r0,r2
        0x000003f2:    4199        .A      SBCS     r1,r1,r3
        0x000003f4:    d310        ..      BCC      0x418 ; __aeabi_uldivmod + 76
        0x000003f6:    4610        .F      MOV      r0,r2
        0x000003f8:    4619        .F      MOV      r1,r3
        0x000003fa:    4622        "F      MOV      r2,r4
        0x000003fc:    f000fa55    ..U.    BL       __aeabi_llsl ; 0x8aa
        0x00000400:    1a36        6.      SUBS     r6,r6,r0
        0x00000402:    418f        .A      SBCS     r7,r7,r1
        0x00000404:    9701        ..      STR      r7,[sp,#4]
        0x00000406:    4622        "F      MOV      r2,r4
        0x00000408:    2001        .       MOVS     r0,#1
        0x0000040a:    2100        .!      MOVS     r1,#0
        0x0000040c:    9f00        ..      LDR      r7,[sp,#0]
        0x0000040e:    f000fa4c    ..L.    BL       __aeabi_llsl ; 0x8aa
        0x00000412:    1838        8.      ADDS     r0,r7,r0
        0x00000414:    414d        MA      ADCS     r5,r5,r1
        0x00000416:    9000        ..      STR      r0,[sp,#0]
        0x00000418:    4620         F      MOV      r0,r4
        0x0000041a:    1e64        d.      SUBS     r4,r4,#1
        0x0000041c:    2800        .(      CMP      r0,#0
        0x0000041e:    dcdf        ..      BGT      0x3e0 ; __aeabi_uldivmod + 20
        0x00000420:    9b01        ..      LDR      r3,[sp,#4]
        0x00000422:    9800        ..      LDR      r0,[sp,#0]
        0x00000424:    4629        )F      MOV      r1,r5
        0x00000426:    4632        2F      MOV      r2,r6
        0x00000428:    b007        ..      ADD      sp,sp,#0x1c
        0x0000042a:    bdf0        ..      POP      {r4-r7,pc}
    .text
    .text
    __I$use$fp
    _float_round
        0x0000042c:    2900        .)      CMP      r1,#0
        0x0000042e:    da04        ..      BGE      0x43a ; __I$use$fp + 14
        0x00000430:    1c40        @.      ADDS     r0,r0,#1
        0x00000432:    0049        I.      LSLS     r1,r1,#1
        0x00000434:    d101        ..      BNE      0x43a ; __I$use$fp + 14
        0x00000436:    0840        @.      LSRS     r0,r0,#1
        0x00000438:    0040        @.      LSLS     r0,r0,#1
        0x0000043a:    4770        pG      BX       lr
    _float_epilogue
        0x0000043c:    b470        p.      PUSH     {r4-r6}
        0x0000043e:    2400        .$      MOVS     r4,#0
        0x00000440:    0c05        ..      LSRS     r5,r0,#16
        0x00000442:    d105        ..      BNE      0x450 ; _float_epilogue + 20
        0x00000444:    2410        .$      MOVS     r4,#0x10
        0x00000446:    0400        ..      LSLS     r0,r0,#16
        0x00000448:    d102        ..      BNE      0x450 ; _float_epilogue + 20
        0x0000044a:    2900        .)      CMP      r1,#0
        0x0000044c:    d021        !.      BEQ      0x492 ; _float_epilogue + 86
        0x0000044e:    2411        .$      MOVS     r4,#0x11
        0x00000450:    0e05        ..      LSRS     r5,r0,#24
        0x00000452:    d101        ..      BNE      0x458 ; _float_epilogue + 28
        0x00000454:    0200        ..      LSLS     r0,r0,#8
        0x00000456:    3408        .4      ADDS     r4,r4,#8
        0x00000458:    0f05        ..      LSRS     r5,r0,#28
        0x0000045a:    d101        ..      BNE      0x460 ; _float_epilogue + 36
        0x0000045c:    0100        ..      LSLS     r0,r0,#4
        0x0000045e:    1d24        $.      ADDS     r4,r4,#4
        0x00000460:    0f85        ..      LSRS     r5,r0,#30
        0x00000462:    d101        ..      BNE      0x468 ; _float_epilogue + 44
        0x00000464:    0080        ..      LSLS     r0,r0,#2
        0x00000466:    1ca4        ..      ADDS     r4,r4,#2
        0x00000468:    2800        .(      CMP      r0,#0
        0x0000046a:    db01        ..      BLT      0x470 ; _float_epilogue + 52
        0x0000046c:    0040        @.      LSLS     r0,r0,#1
        0x0000046e:    1c64        d.      ADDS     r4,r4,#1
        0x00000470:    2900        .)      CMP      r1,#0
        0x00000472:    d008        ..      BEQ      0x486 ; _float_epilogue + 74
        0x00000474:    2520         %      MOVS     r5,#0x20
        0x00000476:    1b2e        ..      SUBS     r6,r5,r4
        0x00000478:    460d        .F      MOV      r5,r1
        0x0000047a:    40f5        .@      LSRS     r5,r5,r6
        0x0000047c:    40a1        .@      LSLS     r1,r1,r4
        0x0000047e:    d000        ..      BEQ      0x482 ; _float_epilogue + 70
        0x00000480:    2101        .!      MOVS     r1,#1
        0x00000482:    4329        )C      ORRS     r1,r1,r5
        0x00000484:    4308        .C      ORRS     r0,r0,r1
        0x00000486:    0601        ..      LSLS     r1,r0,#24
        0x00000488:    1b1b        ..      SUBS     r3,r3,r4
        0x0000048a:    0a00        ..      LSRS     r0,r0,#8
        0x0000048c:    1ddb        ..      ADDS     r3,r3,#7
        0x0000048e:    d502        ..      BPL      0x496 ; _float_epilogue + 90
        0x00000490:    2000        .       MOVS     r0,#0
        0x00000492:    bc70        p.      POP      {r4-r6}
        0x00000494:    4770        pG      BX       lr
        0x00000496:    05db        ..      LSLS     r3,r3,#23
        0x00000498:    1818        ..      ADDS     r0,r3,r0
        0x0000049a:    1880        ..      ADDS     r0,r0,r2
        0x0000049c:    2900        .)      CMP      r1,#0
        0x0000049e:    daf8        ..      BGE      0x492 ; _float_epilogue + 86
        0x000004a0:    1c40        @.      ADDS     r0,r0,#1
        0x000004a2:    0049        I.      LSLS     r1,r1,#1
        0x000004a4:    d1f5        ..      BNE      0x492 ; _float_epilogue + 86
        0x000004a6:    bc70        p.      POP      {r4-r6}
        0x000004a8:    0840        @.      LSRS     r0,r0,#1
        0x000004aa:    0040        @.      LSLS     r0,r0,#1
        0x000004ac:    4770        pG      BX       lr
        0x000004ae:    0000        ..      MOVS     r0,r0
    .text
    __aeabi_dadd
        0x000004b0:    b5f0        ..      PUSH     {r4-r7,lr}
        0x000004b2:    4607        .F      MOV      r7,r0
        0x000004b4:    4608        .F      MOV      r0,r1
        0x000004b6:    4058        X@      EORS     r0,r0,r3
        0x000004b8:    b087        ..      SUB      sp,sp,#0x1c
        0x000004ba:    0fc0        ..      LSRS     r0,r0,#31
        0x000004bc:    9004        ..      STR      r0,[sp,#0x10]
        0x000004be:    0048        H.      LSLS     r0,r1,#1
        0x000004c0:    460e        .F      MOV      r6,r1
        0x000004c2:    0059        Y.      LSLS     r1,r3,#1
        0x000004c4:    0840        @.      LSRS     r0,r0,#1
        0x000004c6:    0849        I.      LSRS     r1,r1,#1
        0x000004c8:    1abc        ..      SUBS     r4,r7,r2
        0x000004ca:    4188        .A      SBCS     r0,r0,r1
        0x000004cc:    d205        ..      BCS      0x4da ; __aeabi_dadd + 42
        0x000004ce:    4638        8F      MOV      r0,r7
        0x000004d0:    4631        1F      MOV      r1,r6
        0x000004d2:    461e        .F      MOV      r6,r3
        0x000004d4:    4617        .F      MOV      r7,r2
        0x000004d6:    460b        .F      MOV      r3,r1
        0x000004d8:    4602        .F      MOV      r2,r0
        0x000004da:    0058        X.      LSLS     r0,r3,#1
        0x000004dc:    0840        @.      LSRS     r0,r0,#1
        0x000004de:    4310        .C      ORRS     r0,r0,r2
        0x000004e0:    d04c        L.      BEQ      0x57c ; __aeabi_dadd + 204
        0x000004e2:    0d30        0.      LSRS     r0,r6,#20
        0x000004e4:    9003        ..      STR      r0,[sp,#0xc]
        0x000004e6:    0540        @.      LSLS     r0,r0,#21
        0x000004e8:    0059        Y.      LSLS     r1,r3,#1
        0x000004ea:    0d40        @.      LSRS     r0,r0,#21
        0x000004ec:    0d49        I.      LSRS     r1,r1,#21
        0x000004ee:    9005        ..      STR      r0,[sp,#0x14]
        0x000004f0:    1a40        @.      SUBS     r0,r0,r1
        0x000004f2:    9002        ..      STR      r0,[sp,#8]
        0x000004f4:    2840        @(      CMP      r0,#0x40
        0x000004f6:    da72        r.      BGE      0x5de ; __aeabi_dadd + 302
        0x000004f8:    0318        ..      LSLS     r0,r3,#12
        0x000004fa:    2101        .!      MOVS     r1,#1
        0x000004fc:    0b00        ..      LSRS     r0,r0,#12
        0x000004fe:    0509        ..      LSLS     r1,r1,#20
        0x00000500:    4308        .C      ORRS     r0,r0,r1
        0x00000502:    9001        ..      STR      r0,[sp,#4]
        0x00000504:    9804        ..      LDR      r0,[sp,#0x10]
        0x00000506:    9200        ..      STR      r2,[sp,#0]
        0x00000508:    2800        .(      CMP      r0,#0
        0x0000050a:    d005        ..      BEQ      0x518 ; __aeabi_dadd + 104
        0x0000050c:    9901        ..      LDR      r1,[sp,#4]
        0x0000050e:    4252        RB      RSBS     r2,r2,#0
        0x00000510:    2000        .       MOVS     r0,#0
        0x00000512:    4188        .A      SBCS     r0,r0,r1
        0x00000514:    9200        ..      STR      r2,[sp,#0]
        0x00000516:    9001        ..      STR      r0,[sp,#4]
        0x00000518:    9802        ..      LDR      r0,[sp,#8]
        0x0000051a:    2140        @!      MOVS     r1,#0x40
        0x0000051c:    1a0a        ..      SUBS     r2,r1,r0
        0x0000051e:    9901        ..      LDR      r1,[sp,#4]
        0x00000520:    9800        ..      LDR      r0,[sp,#0]
        0x00000522:    f000f9c2    ....    BL       __aeabi_llsl ; 0x8aa
        0x00000526:    4605        .F      MOV      r5,r0
        0x00000528:    460c        .F      MOV      r4,r1
        0x0000052a:    466b        kF      MOV      r3,sp
        0x0000052c:    cb07        ..      LDM      r3!,{r0-r2}
        0x0000052e:    f000f9dd    ....    BL       __aeabi_lasr ; 0x8ec
        0x00000532:    19c0        ..      ADDS     r0,r0,r7
        0x00000534:    4171        qA      ADCS     r1,r1,r6
        0x00000536:    9a03        ..      LDR      r2,[sp,#0xc]
        0x00000538:    0d0e        ..      LSRS     r6,r1,#20
        0x0000053a:    2300        .#      MOVS     r3,#0
        0x0000053c:    17d7        ..      ASRS     r7,r2,#31
        0x0000053e:    4056        V@      EORS     r6,r6,r2
        0x00000540:    461a        .F      MOV      r2,r3
        0x00000542:    407a        z@      EORS     r2,r2,r7
        0x00000544:    4316        .C      ORRS     r6,r6,r2
        0x00000546:    d044        D.      BEQ      0x5d2 ; __aeabi_dadd + 290
        0x00000548:    9a04        ..      LDR      r2,[sp,#0x10]
        0x0000054a:    2a00        .*      CMP      r2,#0
        0x0000054c:    d02d        -.      BEQ      0x5aa ; __aeabi_dadd + 250
        0x0000054e:    9a02        ..      LDR      r2,[sp,#8]
        0x00000550:    2a01        .*      CMP      r2,#1
        0x00000552:    9a03        ..      LDR      r2,[sp,#0xc]
        0x00000554:    dc15        ..      BGT      0x582 ; __aeabi_dadd + 210
        0x00000556:    0512        ..      LSLS     r2,r2,#20
        0x00000558:    1ac0        ..      SUBS     r0,r0,r3
        0x0000055a:    4191        .A      SBCS     r1,r1,r2
        0x0000055c:    2601        .&      MOVS     r6,#1
        0x0000055e:    0536        6.      LSLS     r6,r6,#20
        0x00000560:    1c00        ..      ADDS     r0,r0,#0
        0x00000562:    4171        qA      ADCS     r1,r1,r6
        0x00000564:    0fd2        ..      LSRS     r2,r2,#31
        0x00000566:    9e05        ..      LDR      r6,[sp,#0x14]
        0x00000568:    07d2        ..      LSLS     r2,r2,#31
        0x0000056a:    9300        ..      STR      r3,[sp,#0]
        0x0000056c:    9201        ..      STR      r2,[sp,#4]
        0x0000056e:    9602        ..      STR      r6,[sp,#8]
        0x00000570:    462a        *F      MOV      r2,r5
        0x00000572:    4623        #F      MOV      r3,r4
        0x00000574:    f000f9da    ....    BL       _double_epilogue ; 0x92c
        0x00000578:    b007        ..      ADD      sp,sp,#0x1c
        0x0000057a:    bdf0        ..      POP      {r4-r7,pc}
        0x0000057c:    4638        8F      MOV      r0,r7
        0x0000057e:    4631        1F      MOV      r1,r6
        0x00000580:    e7fa        ..      B        0x578 ; __aeabi_dadd + 200
        0x00000582:    0516        ..      LSLS     r6,r2,#20
        0x00000584:    4a22        "J      LDR      r2,[pc,#136] ; [0x610] = 0xffe00000
        0x00000586:    460f        .F      MOV      r7,r1
        0x00000588:    18b2        ..      ADDS     r2,r6,r2
        0x0000058a:    1ac0        ..      SUBS     r0,r0,r3
        0x0000058c:    41b7        .A      SBCS     r7,r7,r6
        0x0000058e:    2101        .!      MOVS     r1,#1
        0x00000590:    0509        ..      LSLS     r1,r1,#20
        0x00000592:    1c00        ..      ADDS     r0,r0,#0
        0x00000594:    414f        OA      ADCS     r7,r7,r1
        0x00000596:    1800        ..      ADDS     r0,r0,r0
        0x00000598:    417f        .A      ADCS     r7,r7,r7
        0x0000059a:    4611        .F      MOV      r1,r2
        0x0000059c:    1818        ..      ADDS     r0,r3,r0
        0x0000059e:    4179        yA      ADCS     r1,r1,r7
        0x000005a0:    0fe2        ..      LSRS     r2,r4,#31
        0x000005a2:    4310        .C      ORRS     r0,r0,r2
        0x000005a4:    196d        m.      ADDS     r5,r5,r5
        0x000005a6:    4164        dA      ADCS     r4,r4,r4
        0x000005a8:    e013        ..      B        0x5d2 ; __aeabi_dadd + 290
        0x000005aa:    07e2        ..      LSLS     r2,r4,#31
        0x000005ac:    086d        m.      LSRS     r5,r5,#1
        0x000005ae:    4315        .C      ORRS     r5,r5,r2
        0x000005b0:    0864        d.      LSRS     r4,r4,#1
        0x000005b2:    07c2        ..      LSLS     r2,r0,#31
        0x000005b4:    4314        .C      ORRS     r4,r4,r2
        0x000005b6:    9a03        ..      LDR      r2,[sp,#0xc]
        0x000005b8:    2601        .&      MOVS     r6,#1
        0x000005ba:    0512        ..      LSLS     r2,r2,#20
        0x000005bc:    1ac0        ..      SUBS     r0,r0,r3
        0x000005be:    4191        .A      SBCS     r1,r1,r2
        0x000005c0:    0536        6.      LSLS     r6,r6,#20
        0x000005c2:    1c00        ..      ADDS     r0,r0,#0
        0x000005c4:    4171        qA      ADCS     r1,r1,r6
        0x000005c6:    07ce        ..      LSLS     r6,r1,#31
        0x000005c8:    0840        @.      LSRS     r0,r0,#1
        0x000005ca:    4330        0C      ORRS     r0,r0,r6
        0x000005cc:    0849        I.      LSRS     r1,r1,#1
        0x000005ce:    18c0        ..      ADDS     r0,r0,r3
        0x000005d0:    4151        QA      ADCS     r1,r1,r2
        0x000005d2:    462a        *F      MOV      r2,r5
        0x000005d4:    4623        #F      MOV      r3,r4
        0x000005d6:    f000f99c    ....    BL       _double_round ; 0x912
        0x000005da:    e7cd        ..      B        0x578 ; __aeabi_dadd + 200
        0x000005dc:    e7ff        ..      B        0x5de ; __aeabi_dadd + 302
        0x000005de:    9804        ..      LDR      r0,[sp,#0x10]
        0x000005e0:    2201        ."      MOVS     r2,#1
        0x000005e2:    0040        @.      LSLS     r0,r0,#1
        0x000005e4:    17c1        ..      ASRS     r1,r0,#31
        0x000005e6:    1a12        ..      SUBS     r2,r2,r0
        0x000005e8:    2300        .#      MOVS     r3,#0
        0x000005ea:    418b        .A      SBCS     r3,r3,r1
        0x000005ec:    9804        ..      LDR      r0,[sp,#0x10]
        0x000005ee:    4631        1F      MOV      r1,r6
        0x000005f0:    17c4        ..      ASRS     r4,r0,#31
        0x000005f2:    1a38        8.      SUBS     r0,r7,r0
        0x000005f4:    41a1        .A      SBCS     r1,r1,r4
        0x000005f6:    e7ee        ..      B        0x5d6 ; __aeabi_dadd + 294
    __aeabi_dsub
        0x000005f8:    b430        0.      PUSH     {r4,r5}
        0x000005fa:    2401        .$      MOVS     r4,#1
        0x000005fc:    07e4        ..      LSLS     r4,r4,#31
        0x000005fe:    4063        c@      EORS     r3,r3,r4
        0x00000600:    bc30        0.      POP      {r4,r5}
        0x00000602:    e755        U.      B        __aeabi_dadd ; 0x4b0
    __aeabi_drsub
        0x00000604:    b430        0.      PUSH     {r4,r5}
        0x00000606:    2401        .$      MOVS     r4,#1
        0x00000608:    07e4        ..      LSLS     r4,r4,#31
        0x0000060a:    4061        a@      EORS     r1,r1,r4
        0x0000060c:    bc30        0.      POP      {r4,r5}
        0x0000060e:    e74f        O.      B        __aeabi_dadd ; 0x4b0
    $d
        0x00000610:    ffe00000    ....    DCD    4292870144
    $t
    .text
    __aeabi_dmul
        0x00000614:    b5f0        ..      PUSH     {r4-r7,lr}
        0x00000616:    b41f        ..      PUSH     {r0-r4}
        0x00000618:    b088        ..      SUB      sp,sp,#0x20
        0x0000061a:    990b        ..      LDR      r1,[sp,#0x2c]
        0x0000061c:    9809        ..      LDR      r0,[sp,#0x24]
        0x0000061e:    2400        .$      MOVS     r4,#0
        0x00000620:    4048        H@      EORS     r0,r0,r1
        0x00000622:    9909        ..      LDR      r1,[sp,#0x24]
        0x00000624:    0fc0        ..      LSRS     r0,r0,#31
        0x00000626:    0049        I.      LSLS     r1,r1,#1
        0x00000628:    0849        I.      LSRS     r1,r1,#1
        0x0000062a:    9109        ..      STR      r1,[sp,#0x24]
        0x0000062c:    07c0        ..      LSLS     r0,r0,#31
        0x0000062e:    990b        ..      LDR      r1,[sp,#0x2c]
        0x00000630:    9000        ..      STR      r0,[sp,#0]
        0x00000632:    0049        I.      LSLS     r1,r1,#1
        0x00000634:    0849        I.      LSRS     r1,r1,#1
        0x00000636:    910b        ..      STR      r1,[sp,#0x2c]
        0x00000638:    9909        ..      LDR      r1,[sp,#0x24]
        0x0000063a:    9808        ..      LDR      r0,[sp,#0x20]
        0x0000063c:    46a6        .F      MOV      lr,r4
        0x0000063e:    4308        .C      ORRS     r0,r0,r1
        0x00000640:    d01c        ..      BEQ      0x67c ; __aeabi_dmul + 104
        0x00000642:    990b        ..      LDR      r1,[sp,#0x2c]
        0x00000644:    980a        ..      LDR      r0,[sp,#0x28]
        0x00000646:    4308        .C      ORRS     r0,r0,r1
        0x00000648:    d018        ..      BEQ      0x67c ; __aeabi_dmul + 104
        0x0000064a:    9809        ..      LDR      r0,[sp,#0x24]
        0x0000064c:    2401        .$      MOVS     r4,#1
        0x0000064e:    0040        @.      LSLS     r0,r0,#1
        0x00000650:    0d42        B.      LSRS     r2,r0,#21
        0x00000652:    0048        H.      LSLS     r0,r1,#1
        0x00000654:    0d41        A.      LSRS     r1,r0,#21
        0x00000656:    9809        ..      LDR      r0,[sp,#0x24]
        0x00000658:    0524        $.      LSLS     r4,r4,#20
        0x0000065a:    0300        ..      LSLS     r0,r0,#12
        0x0000065c:    0b00        ..      LSRS     r0,r0,#12
        0x0000065e:    4320         C      ORRS     r0,r0,r4
        0x00000660:    9009        ..      STR      r0,[sp,#0x24]
        0x00000662:    980b        ..      LDR      r0,[sp,#0x2c]
        0x00000664:    0300        ..      LSLS     r0,r0,#12
        0x00000666:    0b00        ..      LSRS     r0,r0,#12
        0x00000668:    4320         C      ORRS     r0,r0,r4
        0x0000066a:    900b        ..      STR      r0,[sp,#0x2c]
        0x0000066c:    1850        P.      ADDS     r0,r2,r1
        0x0000066e:    491c        .I      LDR      r1,[pc,#112] ; [0x6e0] = 0xfffffc0d
        0x00000670:    1840        @.      ADDS     r0,r0,r1
        0x00000672:    2200        ."      MOVS     r2,#0
        0x00000674:    9001        ..      STR      r0,[sp,#4]
        0x00000676:    4614        .F      MOV      r4,r2
        0x00000678:    4610        .F      MOV      r0,r2
        0x0000067a:    e005        ..      B        0x688 ; __aeabi_dmul + 116
        0x0000067c:    2000        .       MOVS     r0,#0
        0x0000067e:    4601        .F      MOV      r1,r0
        0x00000680:    b00d        ..      ADD      sp,sp,#0x34
        0x00000682:    bdf0        ..      POP      {r4-r7,pc}
        0x00000684:    2803        .(      CMP      r0,#3
        0x00000686:    da01        ..      BGE      0x68c ; __aeabi_dmul + 120
        0x00000688:    4603        .F      MOV      r3,r0
        0x0000068a:    e000        ..      B        0x68e ; __aeabi_dmul + 122
        0x0000068c:    2303        .#      MOVS     r3,#3
        0x0000068e:    469c        .F      MOV      r12,r3
        0x00000690:    1ac1        ..      SUBS     r1,r0,r3
        0x00000692:    ae0a        ..      ADD      r6,sp,#0x28
        0x00000694:    e00a        ..      B        0x6ac ; __aeabi_dmul + 152
        0x00000696:    005f        _.      LSLS     r7,r3,#1
        0x00000698:    ad08        ..      ADD      r5,sp,#0x20
        0x0000069a:    5bed        .[      LDRH     r5,[r5,r7]
        0x0000069c:    004f        O.      LSLS     r7,r1,#1
        0x0000069e:    5bf7        .[      LDRH     r7,[r6,r7]
        0x000006a0:    437d        }C      MULS     r5,r7,r5
        0x000006a2:    2700        .'      MOVS     r7,#0
        0x000006a4:    18aa        ..      ADDS     r2,r5,r2
        0x000006a6:    417c        |A      ADCS     r4,r4,r7
        0x000006a8:    1c49        I.      ADDS     r1,r1,#1
        0x000006aa:    1e5b        [.      SUBS     r3,r3,#1
        0x000006ac:    4561        aE      CMP      r1,r12
        0x000006ae:    ddf2        ..      BLE      0x696 ; __aeabi_dmul + 130
        0x000006b0:    0041        A.      LSLS     r1,r0,#1
        0x000006b2:    ab04        ..      ADD      r3,sp,#0x10
        0x000006b4:    525a        ZR      STRH     r2,[r3,r1]
        0x000006b6:    0421        !.      LSLS     r1,r4,#16
        0x000006b8:    0c12        ..      LSRS     r2,r2,#16
        0x000006ba:    430a        .C      ORRS     r2,r2,r1
        0x000006bc:    0c24        $.      LSRS     r4,r4,#16
        0x000006be:    1c40        @.      ADDS     r0,r0,#1
        0x000006c0:    2808        .(      CMP      r0,#8
        0x000006c2:    dbdf        ..      BLT      0x684 ; __aeabi_dmul + 112
        0x000006c4:    9801        ..      LDR      r0,[sp,#4]
        0x000006c6:    9002        ..      STR      r0,[sp,#8]
        0x000006c8:    9900        ..      LDR      r1,[sp,#0]
        0x000006ca:    4670        pF      MOV      r0,lr
        0x000006cc:    9101        ..      STR      r1,[sp,#4]
        0x000006ce:    9000        ..      STR      r0,[sp,#0]
        0x000006d0:    9b05        ..      LDR      r3,[sp,#0x14]
        0x000006d2:    9a04        ..      LDR      r2,[sp,#0x10]
        0x000006d4:    9907        ..      LDR      r1,[sp,#0x1c]
        0x000006d6:    9806        ..      LDR      r0,[sp,#0x18]
        0x000006d8:    f000f928    ..(.    BL       _double_epilogue ; 0x92c
        0x000006dc:    e7d0        ..      B        0x680 ; __aeabi_dmul + 108
    $d
        0x000006de:    0000        ..      DCW    0
        0x000006e0:    fffffc0d    ....    DCD    4294966285
    $t
    .text
    __aeabi_ddiv
        0x000006e4:    b5f0        ..      PUSH     {r4-r7,lr}
        0x000006e6:    460c        .F      MOV      r4,r1
        0x000006e8:    405c        \@      EORS     r4,r4,r3
        0x000006ea:    b085        ..      SUB      sp,sp,#0x14
        0x000006ec:    0fe4        ..      LSRS     r4,r4,#31
        0x000006ee:    07e4        ..      LSLS     r4,r4,#31
        0x000006f0:    9403        ..      STR      r4,[sp,#0xc]
        0x000006f2:    004c        L.      LSLS     r4,r1,#1
        0x000006f4:    2600        .&      MOVS     r6,#0
        0x000006f6:    0864        d.      LSRS     r4,r4,#1
        0x000006f8:    0059        Y.      LSLS     r1,r3,#1
        0x000006fa:    4694        .F      MOV      r12,r2
        0x000006fc:    0849        I.      LSRS     r1,r1,#1
        0x000006fe:    4602        .F      MOV      r2,r0
        0x00000700:    9602        ..      STR      r6,[sp,#8]
        0x00000702:    4322        "C      ORRS     r2,r2,r4
        0x00000704:    d021        !.      BEQ      0x74a ; __aeabi_ddiv + 102
        0x00000706:    4662        bF      MOV      r2,r12
        0x00000708:    430a        .C      ORRS     r2,r2,r1
        0x0000070a:    d01e        ..      BEQ      0x74a ; __aeabi_ddiv + 102
        0x0000070c:    0062        b.      LSLS     r2,r4,#1
        0x0000070e:    0d57        W.      LSRS     r7,r2,#21
        0x00000710:    004a        J.      LSLS     r2,r1,#1
        0x00000712:    030e        ..      LSLS     r6,r1,#12
        0x00000714:    0323        #.      LSLS     r3,r4,#12
        0x00000716:    0d55        U.      LSRS     r5,r2,#21
        0x00000718:    2401        .$      MOVS     r4,#1
        0x0000071a:    4602        .F      MOV      r2,r0
        0x0000071c:    492c        ,I      LDR      r1,[pc,#176] ; [0x7d0] = 0x3fd
        0x0000071e:    0524        $.      LSLS     r4,r4,#20
        0x00000720:    1b78        x.      SUBS     r0,r7,r5
        0x00000722:    0b1b        ..      LSRS     r3,r3,#12
        0x00000724:    0b36        6.      LSRS     r6,r6,#12
        0x00000726:    1840        @.      ADDS     r0,r0,r1
        0x00000728:    4323        #C      ORRS     r3,r3,r4
        0x0000072a:    4326        &C      ORRS     r6,r6,r4
        0x0000072c:    4661        aF      MOV      r1,r12
        0x0000072e:    9000        ..      STR      r0,[sp,#0]
        0x00000730:    461c        .F      MOV      r4,r3
        0x00000732:    1a50        P.      SUBS     r0,r2,r1
        0x00000734:    41b4        .A      SBCS     r4,r4,r6
        0x00000736:    d303        ..      BCC      0x740 ; __aeabi_ddiv + 92
        0x00000738:    9800        ..      LDR      r0,[sp,#0]
        0x0000073a:    1c40        @.      ADDS     r0,r0,#1
        0x0000073c:    9000        ..      STR      r0,[sp,#0]
        0x0000073e:    e002        ..      B        0x746 ; __aeabi_ddiv + 98
        0x00000740:    1892        ..      ADDS     r2,r2,r2
        0x00000742:    9800        ..      LDR      r0,[sp,#0]
        0x00000744:    415b        [A      ADCS     r3,r3,r3
        0x00000746:    2800        .(      CMP      r0,#0
        0x00000748:    da03        ..      BGE      0x752 ; __aeabi_ddiv + 110
        0x0000074a:    2000        .       MOVS     r0,#0
        0x0000074c:    4601        .F      MOV      r1,r0
        0x0000074e:    b005        ..      ADD      sp,sp,#0x14
        0x00000750:    bdf0        ..      POP      {r4-r7,pc}
        0x00000752:    2000        .       MOVS     r0,#0
        0x00000754:    2101        .!      MOVS     r1,#1
        0x00000756:    0509        ..      LSLS     r1,r1,#20
        0x00000758:    4607        .F      MOV      r7,r0
        0x0000075a:    4686        .F      MOV      lr,r0
        0x0000075c:    e011        ..      B        0x782 ; __aeabi_ddiv + 158
        0x0000075e:    4664        dF      MOV      r4,r12
        0x00000760:    461d        .F      MOV      r5,r3
        0x00000762:    1b14        ..      SUBS     r4,r2,r4
        0x00000764:    41b5        .A      SBCS     r5,r5,r6
        0x00000766:    d306        ..      BCC      0x776 ; __aeabi_ddiv + 146
        0x00000768:    4665        eF      MOV      r5,r12
        0x0000076a:    1b52        R.      SUBS     r2,r2,r5
        0x0000076c:    41b3        .A      SBCS     r3,r3,r6
        0x0000076e:    4674        tF      MOV      r4,lr
        0x00000770:    4307        .C      ORRS     r7,r7,r0
        0x00000772:    430c        .C      ORRS     r4,r4,r1
        0x00000774:    46a6        .F      MOV      lr,r4
        0x00000776:    07cd        ..      LSLS     r5,r1,#31
        0x00000778:    0840        @.      LSRS     r0,r0,#1
        0x0000077a:    0849        I.      LSRS     r1,r1,#1
        0x0000077c:    4328        (C      ORRS     r0,r0,r5
        0x0000077e:    1892        ..      ADDS     r2,r2,r2
        0x00000780:    415b        [A      ADCS     r3,r3,r3
        0x00000782:    4605        .F      MOV      r5,r0
        0x00000784:    430d        .C      ORRS     r5,r5,r1
        0x00000786:    d1ea        ..      BNE      0x75e ; __aeabi_ddiv + 122
        0x00000788:    4610        .F      MOV      r0,r2
        0x0000078a:    4318        .C      ORRS     r0,r0,r3
        0x0000078c:    d013        ..      BEQ      0x7b6 ; __aeabi_ddiv + 210
        0x0000078e:    4660        `F      MOV      r0,r12
        0x00000790:    4619        .F      MOV      r1,r3
        0x00000792:    4050        P@      EORS     r0,r0,r2
        0x00000794:    4071        q@      EORS     r1,r1,r6
        0x00000796:    4308        .C      ORRS     r0,r0,r1
        0x00000798:    d006        ..      BEQ      0x7a8 ; __aeabi_ddiv + 196
        0x0000079a:    4660        `F      MOV      r0,r12
        0x0000079c:    1a10        ..      SUBS     r0,r2,r0
        0x0000079e:    41b3        .A      SBCS     r3,r3,r6
        0x000007a0:    d206        ..      BCS      0x7b0 ; __aeabi_ddiv + 204
        0x000007a2:    2201        ."      MOVS     r2,#1
        0x000007a4:    2300        .#      MOVS     r3,#0
        0x000007a6:    e006        ..      B        0x7b6 ; __aeabi_ddiv + 210
        0x000007a8:    2200        ."      MOVS     r2,#0
        0x000007aa:    2301        .#      MOVS     r3,#1
        0x000007ac:    07db        ..      LSLS     r3,r3,#31
        0x000007ae:    e002        ..      B        0x7b6 ; __aeabi_ddiv + 210
        0x000007b0:    2201        ."      MOVS     r2,#1
        0x000007b2:    43d2        .C      MVNS     r2,r2
        0x000007b4:    1053        S.      ASRS     r3,r2,#1
        0x000007b6:    9800        ..      LDR      r0,[sp,#0]
        0x000007b8:    4674        tF      MOV      r4,lr
        0x000007ba:    0501        ..      LSLS     r1,r0,#20
        0x000007bc:    1c38        8.      ADDS     r0,r7,#0
        0x000007be:    4161        aA      ADCS     r1,r1,r4
        0x000007c0:    9c02        ..      LDR      r4,[sp,#8]
        0x000007c2:    9d03        ..      LDR      r5,[sp,#0xc]
        0x000007c4:    1900        ..      ADDS     r0,r0,r4
        0x000007c6:    4169        iA      ADCS     r1,r1,r5
        0x000007c8:    f000f8a3    ....    BL       _double_round ; 0x912
        0x000007cc:    e7bf        ..      B        0x74e ; __aeabi_ddiv + 106
    $d
        0x000007ce:    0000        ..      DCW    0
        0x000007d0:    000003fd    ....    DCD    1021
    $t
    .text
    __aeabi_d2ulz
        0x000007d4:    004a        J.      LSLS     r2,r1,#1
        0x000007d6:    0309        ..      LSLS     r1,r1,#12
        0x000007d8:    2301        .#      MOVS     r3,#1
        0x000007da:    0b09        ..      LSRS     r1,r1,#12
        0x000007dc:    051b        ..      LSLS     r3,r3,#20
        0x000007de:    4319        .C      ORRS     r1,r1,r3
        0x000007e0:    4b0a        .K      LDR      r3,[pc,#40] ; [0x80c] = 0x3ff
        0x000007e2:    b510        ..      PUSH     {r4,lr}
        0x000007e4:    0d52        R.      LSRS     r2,r2,#21
        0x000007e6:    429a        .B      CMP      r2,r3
        0x000007e8:    da02        ..      BGE      0x7f0 ; __aeabi_d2ulz + 28
        0x000007ea:    2000        .       MOVS     r0,#0
        0x000007ec:    4601        .F      MOV      r1,r0
        0x000007ee:    bd10        ..      POP      {r4,pc}
        0x000007f0:    4b06        .K      LDR      r3,[pc,#24] ; [0x80c] = 0x3ff
        0x000007f2:    3334        43      ADDS     r3,r3,#0x34
        0x000007f4:    429a        .B      CMP      r2,r3
        0x000007f6:    dc03        ..      BGT      0x800 ; __aeabi_d2ulz + 44
        0x000007f8:    1a9a        ..      SUBS     r2,r3,r2
        0x000007fa:    f000f866    ..f.    BL       __aeabi_llsr ; 0x8ca
        0x000007fe:    bd10        ..      POP      {r4,pc}
        0x00000800:    4b03        .K      LDR      r3,[pc,#12] ; [0x810] = 0xfffffbcd
        0x00000802:    18d2        ..      ADDS     r2,r2,r3
        0x00000804:    f000f851    ..Q.    BL       __aeabi_llsl ; 0x8aa
        0x00000808:    bd10        ..      POP      {r4,pc}
    $d
        0x0000080a:    0000        ..      DCW    0
        0x0000080c:    000003ff    ....    DCD    1023
        0x00000810:    fffffbcd    ....    DCD    4294966221
    $t
    .text
    __aeabi_cdrcmple
        0x00000814:    b510        ..      PUSH     {r4,lr}
        0x00000816:    2900        .)      CMP      r1,#0
        0x00000818:    db04        ..      BLT      0x824 ; __aeabi_cdrcmple + 16
        0x0000081a:    2401        .$      MOVS     r4,#1
        0x0000081c:    07e4        ..      LSLS     r4,r4,#31
        0x0000081e:    4240        @B      RSBS     r0,r0,#0
        0x00000820:    418c        .A      SBCS     r4,r4,r1
        0x00000822:    4621        !F      MOV      r1,r4
        0x00000824:    2b00        .+      CMP      r3,#0
        0x00000826:    db04        ..      BLT      0x832 ; __aeabi_cdrcmple + 30
        0x00000828:    461c        .F      MOV      r4,r3
        0x0000082a:    2301        .#      MOVS     r3,#1
        0x0000082c:    07db        ..      LSLS     r3,r3,#31
        0x0000082e:    4252        RB      RSBS     r2,r2,#0
        0x00000830:    41a3        .A      SBCS     r3,r3,r4
        0x00000832:    4299        .B      CMP      r1,r3
        0x00000834:    d100        ..      BNE      0x838 ; __aeabi_cdrcmple + 36
        0x00000836:    4290        .B      CMP      r0,r2
        0x00000838:    bd10        ..      POP      {r4,pc}
    $d
        0x0000083a:    0000        ..      DCW    0
    $t
    .text
    __scatterload
    __scatterload_rt2
        0x0000083c:    b51c        ..      PUSH     {r2-r4,lr}
        0x0000083e:    4809        .H      LDR      r0,[pc,#36] ; [0x864] = 0x68b0
        0x00000840:    9000        ..      STR      r0,[sp,#0]
        0x00000842:    4809        .H      LDR      r0,[pc,#36] ; [0x868] = 0x68d0
        0x00000844:    9001        ..      STR      r0,[sp,#4]
        0x00000846:    4605        .F      MOV      r5,r0
        0x00000848:    2601        .&      MOVS     r6,#1
        0x0000084a:    9c00        ..      LDR      r4,[sp,#0]
        0x0000084c:    e005        ..      B        0x85a ; __scatterload + 30
        0x0000084e:    68e3        .h      LDR      r3,[r4,#0xc]
        0x00000850:    cc07        ..      LDM      r4!,{r0-r2}
        0x00000852:    4333        3C      ORRS     r3,r3,r6
        0x00000854:    3c0c        .<      SUBS     r4,r4,#0xc
        0x00000856:    4798        .G      BLX      r3
        0x00000858:    3410        .4      ADDS     r4,r4,#0x10
        0x0000085a:    42ac        .B      CMP      r4,r5
        0x0000085c:    d3f7        ..      BCC      0x84e ; __scatterload + 18
        0x0000085e:    f7fffc73    ..s.    BL       __main_after_scatterload ; 0x148
    $d
        0x00000862:    0000        ..      DCW    0
        0x00000864:    000068b0    .h..    DCD    26800
        0x00000868:    000068d0    .h..    DCD    26832
    $t
    .text
    __aeabi_uidiv$div0
    __aeabi_uidivmod
        0x0000086c:    b570        p.      PUSH     {r4-r6,lr}
        0x0000086e:    4604        .F      MOV      r4,r0
        0x00000870:    2900        .)      CMP      r1,#0
        0x00000872:    d003        ..      BEQ      0x87c ; __aeabi_uidiv$div0 + 16
        0x00000874:    2000        .       MOVS     r0,#0
        0x00000876:    2220         "      MOVS     r2,#0x20
        0x00000878:    2301        .#      MOVS     r3,#1
        0x0000087a:    e010        ..      B        0x89e ; __aeabi_uidiv$div0 + 50
        0x0000087c:    2800        .(      CMP      r0,#0
        0x0000087e:    d001        ..      BEQ      0x884 ; __aeabi_uidiv$div0 + 24
        0x00000880:    2000        .       MOVS     r0,#0
        0x00000882:    43c0        .C      MVNS     r0,r0
        0x00000884:    46c0        .F      MOV      r8,r8
        0x00000886:    46c0        .F      MOV      r8,r8
        0x00000888:    e00d        ..      B        0x8a6 ; __aeabi_uidiv$div0 + 58
        0x0000088a:    4625        %F      MOV      r5,r4
        0x0000088c:    40d5        .@      LSRS     r5,r5,r2
        0x0000088e:    428d        .B      CMP      r5,r1
        0x00000890:    d305        ..      BCC      0x89e ; __aeabi_uidiv$div0 + 50
        0x00000892:    460d        .F      MOV      r5,r1
        0x00000894:    4095        .@      LSLS     r5,r5,r2
        0x00000896:    1b64        d.      SUBS     r4,r4,r5
        0x00000898:    461d        .F      MOV      r5,r3
        0x0000089a:    4095        .@      LSLS     r5,r5,r2
        0x0000089c:    1940        @.      ADDS     r0,r0,r5
        0x0000089e:    4615        .F      MOV      r5,r2
        0x000008a0:    1e52        R.      SUBS     r2,r2,#1
        0x000008a2:    2d00        .-      CMP      r5,#0
        0x000008a4:    dcf1        ..      BGT      0x88a ; __aeabi_uidiv$div0 + 30
        0x000008a6:    4621        !F      MOV      r1,r4
        0x000008a8:    bd70        p.      POP      {r4-r6,pc}
    .text
    __aeabi_llsl
    _ll_shift_l
        0x000008aa:    b510        ..      PUSH     {r4,lr}
        0x000008ac:    2a20         *      CMP      r2,#0x20
        0x000008ae:    db04        ..      BLT      0x8ba ; __aeabi_llsl + 16
        0x000008b0:    4601        .F      MOV      r1,r0
        0x000008b2:    3a20         :      SUBS     r2,r2,#0x20
        0x000008b4:    4091        .@      LSLS     r1,r1,r2
        0x000008b6:    2000        .       MOVS     r0,#0
        0x000008b8:    bd10        ..      POP      {r4,pc}
        0x000008ba:    4091        .@      LSLS     r1,r1,r2
        0x000008bc:    2320         #      MOVS     r3,#0x20
        0x000008be:    1a9c        ..      SUBS     r4,r3,r2
        0x000008c0:    4603        .F      MOV      r3,r0
        0x000008c2:    40e3        .@      LSRS     r3,r3,r4
        0x000008c4:    4319        .C      ORRS     r1,r1,r3
        0x000008c6:    4090        .@      LSLS     r0,r0,r2
        0x000008c8:    bd10        ..      POP      {r4,pc}
    .text
    __aeabi_llsr
    _ll_ushift_r
        0x000008ca:    b510        ..      PUSH     {r4,lr}
        0x000008cc:    2a20         *      CMP      r2,#0x20
        0x000008ce:    db04        ..      BLT      0x8da ; __aeabi_llsr + 16
        0x000008d0:    4608        .F      MOV      r0,r1
        0x000008d2:    3a20         :      SUBS     r2,r2,#0x20
        0x000008d4:    40d0        .@      LSRS     r0,r0,r2
        0x000008d6:    2100        .!      MOVS     r1,#0
        0x000008d8:    bd10        ..      POP      {r4,pc}
        0x000008da:    460b        .F      MOV      r3,r1
        0x000008dc:    40d3        .@      LSRS     r3,r3,r2
        0x000008de:    40d0        .@      LSRS     r0,r0,r2
        0x000008e0:    2420         $      MOVS     r4,#0x20
        0x000008e2:    1aa2        ..      SUBS     r2,r4,r2
        0x000008e4:    4091        .@      LSLS     r1,r1,r2
        0x000008e6:    4308        .C      ORRS     r0,r0,r1
        0x000008e8:    4619        .F      MOV      r1,r3
        0x000008ea:    bd10        ..      POP      {r4,pc}
    .text
    __aeabi_lasr
    _ll_sshift_r
        0x000008ec:    b510        ..      PUSH     {r4,lr}
        0x000008ee:    2a20         *      CMP      r2,#0x20
        0x000008f0:    db06        ..      BLT      0x900 ; __aeabi_lasr + 20
        0x000008f2:    17cb        ..      ASRS     r3,r1,#31
        0x000008f4:    4608        .F      MOV      r0,r1
        0x000008f6:    3a20         :      SUBS     r2,r2,#0x20
        0x000008f8:    4110        .A      ASRS     r0,r0,r2
        0x000008fa:    17c1        ..      ASRS     r1,r0,#31
        0x000008fc:    430b        .C      ORRS     r3,r3,r1
        0x000008fe:    e006        ..      B        0x90e ; __aeabi_lasr + 34
        0x00000900:    460b        .F      MOV      r3,r1
        0x00000902:    4113        .A      ASRS     r3,r3,r2
        0x00000904:    40d0        .@      LSRS     r0,r0,r2
        0x00000906:    2420         $      MOVS     r4,#0x20
        0x00000908:    1aa2        ..      SUBS     r2,r4,r2
        0x0000090a:    4091        .@      LSLS     r1,r1,r2
        0x0000090c:    4308        .C      ORRS     r0,r0,r1
        0x0000090e:    4619        .F      MOV      r1,r3
        0x00000910:    bd10        ..      POP      {r4,pc}
    .text
    _double_round
        0x00000912:    b510        ..      PUSH     {r4,lr}
        0x00000914:    2b00        .+      CMP      r3,#0
        0x00000916:    da08        ..      BGE      0x92a ; _double_round + 24
        0x00000918:    2400        .$      MOVS     r4,#0
        0x0000091a:    1c40        @.      ADDS     r0,r0,#1
        0x0000091c:    4161        aA      ADCS     r1,r1,r4
        0x0000091e:    1892        ..      ADDS     r2,r2,r2
        0x00000920:    415b        [A      ADCS     r3,r3,r3
        0x00000922:    431a        .C      ORRS     r2,r2,r3
        0x00000924:    d101        ..      BNE      0x92a ; _double_round + 24
        0x00000926:    0840        @.      LSRS     r0,r0,#1
        0x00000928:    0040        @.      LSLS     r0,r0,#1
        0x0000092a:    bd10        ..      POP      {r4,pc}
    _double_epilogue
        0x0000092c:    b5f0        ..      PUSH     {r4-r7,lr}
        0x0000092e:    b41f        ..      PUSH     {r0-r4}
        0x00000930:    b082        ..      SUB      sp,sp,#8
        0x00000932:    4605        .F      MOV      r5,r0
        0x00000934:    000c        ..      MOVS     r4,r1
        0x00000936:    d003        ..      BEQ      0x940 ; _double_epilogue + 20
        0x00000938:    4608        .F      MOV      r0,r1
        0x0000093a:    f003fef1    ....    BL       __ARM_clz ; 0x4720
        0x0000093e:    e002        ..      B        0x946 ; _double_epilogue + 26
        0x00000940:    f003feee    ....    BL       __ARM_clz ; 0x4720
        0x00000944:    3020         0      ADDS     r0,r0,#0x20
        0x00000946:    4602        .F      MOV      r2,r0
        0x00000948:    9000        ..      STR      r0,[sp,#0]
        0x0000094a:    4621        !F      MOV      r1,r4
        0x0000094c:    4628        (F      MOV      r0,r5
        0x0000094e:    f7ffffac    ....    BL       __aeabi_llsl ; 0x8aa
        0x00000952:    9b04        ..      LDR      r3,[sp,#0x10]
        0x00000954:    9a05        ..      LDR      r2,[sp,#0x14]
        0x00000956:    4604        .F      MOV      r4,r0
        0x00000958:    460f        .F      MOV      r7,r1
        0x0000095a:    4318        .C      ORRS     r0,r0,r3
        0x0000095c:    4311        .C      ORRS     r1,r1,r2
        0x0000095e:    4308        .C      ORRS     r0,r0,r1
        0x00000960:    d014        ..      BEQ      0x98c ; _double_epilogue + 96
        0x00000962:    4618        .F      MOV      r0,r3
        0x00000964:    4310        .C      ORRS     r0,r0,r2
        0x00000966:    d01b        ..      BEQ      0x9a0 ; _double_epilogue + 116
        0x00000968:    9800        ..      LDR      r0,[sp,#0]
        0x0000096a:    2140        @!      MOVS     r1,#0x40
        0x0000096c:    1a0a        ..      SUBS     r2,r1,r0
        0x0000096e:    4618        .F      MOV      r0,r3
        0x00000970:    9905        ..      LDR      r1,[sp,#0x14]
        0x00000972:    f7ffffaa    ....    BL       __aeabi_llsr ; 0x8ca
        0x00000976:    4605        .F      MOV      r5,r0
        0x00000978:    460e        .F      MOV      r6,r1
        0x0000097a:    9a00        ..      LDR      r2,[sp,#0]
        0x0000097c:    9905        ..      LDR      r1,[sp,#0x14]
        0x0000097e:    9804        ..      LDR      r0,[sp,#0x10]
        0x00000980:    f7ffff93    ....    BL       __aeabi_llsl ; 0x8aa
        0x00000984:    4308        .C      ORRS     r0,r0,r1
        0x00000986:    d005        ..      BEQ      0x994 ; _double_epilogue + 104
        0x00000988:    2001        .       MOVS     r0,#1
        0x0000098a:    e004        ..      B        0x996 ; _double_epilogue + 106
        0x0000098c:    4620         F      MOV      r0,r4
        0x0000098e:    4639        9F      MOV      r1,r7
        0x00000990:    b007        ..      ADD      sp,sp,#0x1c
        0x00000992:    bdf0        ..      POP      {r4-r7,pc}
        0x00000994:    2000        .       MOVS     r0,#0
        0x00000996:    17c1        ..      ASRS     r1,r0,#31
        0x00000998:    4305        .C      ORRS     r5,r5,r0
        0x0000099a:    430e        .C      ORRS     r6,r6,r1
        0x0000099c:    432c        ,C      ORRS     r4,r4,r5
        0x0000099e:    4337        7C      ORRS     r7,r7,r6
        0x000009a0:    9900        ..      LDR      r1,[sp,#0]
        0x000009a2:    980e        ..      LDR      r0,[sp,#0x38]
        0x000009a4:    0563        c.      LSLS     r3,r4,#21
        0x000009a6:    1a40        @.      SUBS     r0,r0,r1
        0x000009a8:    0579        y.      LSLS     r1,r7,#21
        0x000009aa:    0ae4        ..      LSRS     r4,r4,#11
        0x000009ac:    2200        ."      MOVS     r2,#0
        0x000009ae:    430c        .C      ORRS     r4,r4,r1
        0x000009b0:    0afd        ..      LSRS     r5,r7,#11
        0x000009b2:    300a        .0      ADDS     r0,r0,#0xa
        0x000009b4:    d502        ..      BPL      0x9bc ; _double_epilogue + 144
        0x000009b6:    2000        .       MOVS     r0,#0
        0x000009b8:    4601        .F      MOV      r1,r0
        0x000009ba:    e7e9        ..      B        0x990 ; _double_epilogue + 100
        0x000009bc:    0501        ..      LSLS     r1,r0,#20
        0x000009be:    1910        ..      ADDS     r0,r2,r4
        0x000009c0:    4169        iA      ADCS     r1,r1,r5
        0x000009c2:    9c0c        ..      LDR      r4,[sp,#0x30]
        0x000009c4:    9d0d        ..      LDR      r5,[sp,#0x34]
        0x000009c6:    1900        ..      ADDS     r0,r0,r4
        0x000009c8:    4169        iA      ADCS     r1,r1,r5
        0x000009ca:    f7ffffa2    ....    BL       _double_round ; 0x912
        0x000009ce:    e7df        ..      B        0x990 ; _double_epilogue + 100
    $t.22
    CLK_DisablePLL
        0x000009d0:    4982        .I      LDR      r1,[pc,#520] ; [0xbdc] = 0x40000240
        0x000009d2:    6808        .h      LDR      r0,[r1,#0]
        0x000009d4:    2201        ."      MOVS     r2,#1
        0x000009d6:    0412        ..      LSLS     r2,r2,#16
        0x000009d8:    4310        .C      ORRS     r0,r0,r2
        0x000009da:    6008        .`      STR      r0,[r1,#0]
        0x000009dc:    4770        pG      BX       lr
        0x000009de:    46c0        .F      MOV      r8,r8
    CLK_EnableModuleClock
        0x000009e0:    b084        ..      SUB      sp,sp,#0x10
        0x000009e2:    9003        ..      STR      r0,[sp,#0xc]
        0x000009e4:    2008        .       MOVS     r0,#8
        0x000009e6:    9002        ..      STR      r0,[sp,#8]
        0x000009e8:    2004        .       MOVS     r0,#4
        0x000009ea:    9001        ..      STR      r0,[sp,#4]
        0x000009ec:    2000        .       MOVS     r0,#0
        0x000009ee:    9000        ..      STR      r0,[sp,#0]
        0x000009f0:    9803        ..      LDR      r0,[sp,#0xc]
        0x000009f2:    221f        ."      MOVS     r2,#0x1f
        0x000009f4:    4601        .F      MOV      r1,r0
        0x000009f6:    4011        .@      ANDS     r1,r1,r2
        0x000009f8:    2301        .#      MOVS     r3,#1
        0x000009fa:    408b        .@      LSLS     r3,r3,r1
        0x000009fc:    0f80        ..      LSRS     r0,r0,#30
        0x000009fe:    0081        ..      LSLS     r1,r0,#2
        0x00000a00:    4668        hF      MOV      r0,sp
        0x00000a02:    5841        AX      LDR      r1,[r0,r1]
        0x00000a04:    4a02        .J      LDR      r2,[pc,#8] ; [0xa10] = 0x40000204
        0x00000a06:    5888        .X      LDR      r0,[r1,r2]
        0x00000a08:    4318        .C      ORRS     r0,r0,r3
        0x00000a0a:    5088        .P      STR      r0,[r1,r2]
        0x00000a0c:    b004        ..      ADD      sp,sp,#0x10
        0x00000a0e:    4770        pG      BX       lr
    $d.41
    __arm_cp.20_0
        0x00000a10:    40000204    ...@    DCD    1073742340
    $t.36
    CLK_EnableXtalRC
        0x00000a14:    b081        ..      SUB      sp,sp,#4
        0x00000a16:    9000        ..      STR      r0,[sp,#0]
        0x00000a18:    9a00        ..      LDR      r2,[sp,#0]
        0x00000a1a:    498b        .I      LDR      r1,[pc,#556] ; [0xc48] = 0x40000200
        0x00000a1c:    6808        .h      LDR      r0,[r1,#0]
        0x00000a1e:    4310        .C      ORRS     r0,r0,r2
        0x00000a20:    6008        .`      STR      r0,[r1,#0]
        0x00000a22:    b001        ..      ADD      sp,sp,#4
        0x00000a24:    4770        pG      BX       lr
        0x00000a26:    46c0        .F      MOV      r8,r8
    CLK_GetHCLKFreq
        0x00000a28:    b580        ..      PUSH     {r7,lr}
        0x00000a2a:    f000fc7d    ..}.    BL       SystemCoreClockUpdate ; 0x1328
        0x00000a2e:    48d4        .H      LDR      r0,[pc,#848] ; [0xd80] = 0x2000000c
        0x00000a30:    6800        .h      LDR      r0,[r0,#0]
        0x00000a32:    bd80        ..      POP      {r7,pc}
    CLK_GetPCLK0Freq
        0x00000a34:    b580        ..      PUSH     {r7,lr}
        0x00000a36:    b082        ..      SUB      sp,sp,#8
        0x00000a38:    f000fc76    ..v.    BL       SystemCoreClockUpdate ; 0x1328
        0x00000a3c:    483e        >H      LDR      r0,[pc,#248] ; [0xb38] = 0x40000234
        0x00000a3e:    6800        .h      LDR      r0,[r0,#0]
        0x00000a40:    2107        .!      MOVS     r1,#7
        0x00000a42:    4008        .@      ANDS     r0,r0,r1
        0x00000a44:    9000        ..      STR      r0,[sp,#0]
        0x00000a46:    2805        .(      CMP      r0,#5
        0x00000a48:    d82d        -.      BHI      0xaa6 ; CLK_GetPCLK0Freq + 114
        0x00000a4a:    9900        ..      LDR      r1,[sp,#0]
        0x00000a4c:    008a        ..      LSLS     r2,r1,#2
        0x00000a4e:    a001        ..      ADR      r0,{pc}+6 ; 0xa54
        0x00000a50:    1880        ..      ADDS     r0,r0,r2
        0x00000a52:    4687        .F      MOV      pc,r0
        0x00000a54:    f000b80a    ....    B.W      0xa6c ; CLK_GetPCLK0Freq + 56
        0x00000a58:    f000b80c    ....    B.W      0xa74 ; CLK_GetPCLK0Freq + 64
        0x00000a5c:    f000b80f    ....    B.W      0xa7e ; CLK_GetPCLK0Freq + 74
        0x00000a60:    f000b812    ....    B.W      0xa88 ; CLK_GetPCLK0Freq + 84
        0x00000a64:    f000b815    ....    B.W      0xa92 ; CLK_GetPCLK0Freq + 94
        0x00000a68:    f000b818    ....    B.W      0xa9c ; CLK_GetPCLK0Freq + 104
        0x00000a6c:    48c4        .H      LDR      r0,[pc,#784] ; [0xd80] = 0x2000000c
        0x00000a6e:    6800        .h      LDR      r0,[r0,#0]
        0x00000a70:    9001        ..      STR      r0,[sp,#4]
        0x00000a72:    e01b        ..      B        0xaac ; CLK_GetPCLK0Freq + 120
        0x00000a74:    48c2        .H      LDR      r0,[pc,#776] ; [0xd80] = 0x2000000c
        0x00000a76:    6800        .h      LDR      r0,[r0,#0]
        0x00000a78:    0840        @.      LSRS     r0,r0,#1
        0x00000a7a:    9001        ..      STR      r0,[sp,#4]
        0x00000a7c:    e016        ..      B        0xaac ; CLK_GetPCLK0Freq + 120
        0x00000a7e:    48c0        .H      LDR      r0,[pc,#768] ; [0xd80] = 0x2000000c
        0x00000a80:    6800        .h      LDR      r0,[r0,#0]
        0x00000a82:    0880        ..      LSRS     r0,r0,#2
        0x00000a84:    9001        ..      STR      r0,[sp,#4]
        0x00000a86:    e011        ..      B        0xaac ; CLK_GetPCLK0Freq + 120
        0x00000a88:    48bd        .H      LDR      r0,[pc,#756] ; [0xd80] = 0x2000000c
        0x00000a8a:    6800        .h      LDR      r0,[r0,#0]
        0x00000a8c:    08c0        ..      LSRS     r0,r0,#3
        0x00000a8e:    9001        ..      STR      r0,[sp,#4]
        0x00000a90:    e00c        ..      B        0xaac ; CLK_GetPCLK0Freq + 120
        0x00000a92:    48bb        .H      LDR      r0,[pc,#748] ; [0xd80] = 0x2000000c
        0x00000a94:    6800        .h      LDR      r0,[r0,#0]
        0x00000a96:    0900        ..      LSRS     r0,r0,#4
        0x00000a98:    9001        ..      STR      r0,[sp,#4]
        0x00000a9a:    e007        ..      B        0xaac ; CLK_GetPCLK0Freq + 120
        0x00000a9c:    48b8        .H      LDR      r0,[pc,#736] ; [0xd80] = 0x2000000c
        0x00000a9e:    6800        .h      LDR      r0,[r0,#0]
        0x00000aa0:    0940        @.      LSRS     r0,r0,#5
        0x00000aa2:    9001        ..      STR      r0,[sp,#4]
        0x00000aa4:    e002        ..      B        0xaac ; CLK_GetPCLK0Freq + 120
        0x00000aa6:    2000        .       MOVS     r0,#0
        0x00000aa8:    9001        ..      STR      r0,[sp,#4]
        0x00000aaa:    e7ff        ..      B        0xaac ; CLK_GetPCLK0Freq + 120
        0x00000aac:    9801        ..      LDR      r0,[sp,#4]
        0x00000aae:    b002        ..      ADD      sp,sp,#8
        0x00000ab0:    bd80        ..      POP      {r7,pc}
        0x00000ab2:    46c0        .F      MOV      r8,r8
    CLK_GetPCLK1Freq
        0x00000ab4:    b580        ..      PUSH     {r7,lr}
        0x00000ab6:    b082        ..      SUB      sp,sp,#8
        0x00000ab8:    f000fc36    ..6.    BL       SystemCoreClockUpdate ; 0x1328
        0x00000abc:    481e        .H      LDR      r0,[pc,#120] ; [0xb38] = 0x40000234
        0x00000abe:    6800        .h      LDR      r0,[r0,#0]
        0x00000ac0:    2170        p!      MOVS     r1,#0x70
        0x00000ac2:    4008        .@      ANDS     r0,r0,r1
        0x00000ac4:    9000        ..      STR      r0,[sp,#0]
        0x00000ac6:    b1a0        ..      CBZ      r0,0xaf2 ; CLK_GetPCLK1Freq + 62
        0x00000ac8:    e7ff        ..      B        0xaca ; CLK_GetPCLK1Freq + 22
        0x00000aca:    9800        ..      LDR      r0,[sp,#0]
        0x00000acc:    2810        .(      CMP      r0,#0x10
        0x00000ace:    d014        ..      BEQ      0xafa ; CLK_GetPCLK1Freq + 70
        0x00000ad0:    e7ff        ..      B        0xad2 ; CLK_GetPCLK1Freq + 30
        0x00000ad2:    9800        ..      LDR      r0,[sp,#0]
        0x00000ad4:    2820         (      CMP      r0,#0x20
        0x00000ad6:    d015        ..      BEQ      0xb04 ; CLK_GetPCLK1Freq + 80
        0x00000ad8:    e7ff        ..      B        0xada ; CLK_GetPCLK1Freq + 38
        0x00000ada:    9800        ..      LDR      r0,[sp,#0]
        0x00000adc:    2830        0(      CMP      r0,#0x30
        0x00000ade:    d016        ..      BEQ      0xb0e ; CLK_GetPCLK1Freq + 90
        0x00000ae0:    e7ff        ..      B        0xae2 ; CLK_GetPCLK1Freq + 46
        0x00000ae2:    9800        ..      LDR      r0,[sp,#0]
        0x00000ae4:    2840        @(      CMP      r0,#0x40
        0x00000ae6:    d017        ..      BEQ      0xb18 ; CLK_GetPCLK1Freq + 100
        0x00000ae8:    e7ff        ..      B        0xaea ; CLK_GetPCLK1Freq + 54
        0x00000aea:    9800        ..      LDR      r0,[sp,#0]
        0x00000aec:    2850        P(      CMP      r0,#0x50
        0x00000aee:    d018        ..      BEQ      0xb22 ; CLK_GetPCLK1Freq + 110
        0x00000af0:    e01c        ..      B        0xb2c ; CLK_GetPCLK1Freq + 120
        0x00000af2:    48a3        .H      LDR      r0,[pc,#652] ; [0xd80] = 0x2000000c
        0x00000af4:    6800        .h      LDR      r0,[r0,#0]
        0x00000af6:    9001        ..      STR      r0,[sp,#4]
        0x00000af8:    e01b        ..      B        0xb32 ; CLK_GetPCLK1Freq + 126
        0x00000afa:    48a1        .H      LDR      r0,[pc,#644] ; [0xd80] = 0x2000000c
        0x00000afc:    6800        .h      LDR      r0,[r0,#0]
        0x00000afe:    0840        @.      LSRS     r0,r0,#1
        0x00000b00:    9001        ..      STR      r0,[sp,#4]
        0x00000b02:    e016        ..      B        0xb32 ; CLK_GetPCLK1Freq + 126
        0x00000b04:    489e        .H      LDR      r0,[pc,#632] ; [0xd80] = 0x2000000c
        0x00000b06:    6800        .h      LDR      r0,[r0,#0]
        0x00000b08:    0880        ..      LSRS     r0,r0,#2
        0x00000b0a:    9001        ..      STR      r0,[sp,#4]
        0x00000b0c:    e011        ..      B        0xb32 ; CLK_GetPCLK1Freq + 126
        0x00000b0e:    489c        .H      LDR      r0,[pc,#624] ; [0xd80] = 0x2000000c
        0x00000b10:    6800        .h      LDR      r0,[r0,#0]
        0x00000b12:    08c0        ..      LSRS     r0,r0,#3
        0x00000b14:    9001        ..      STR      r0,[sp,#4]
        0x00000b16:    e00c        ..      B        0xb32 ; CLK_GetPCLK1Freq + 126
        0x00000b18:    4899        .H      LDR      r0,[pc,#612] ; [0xd80] = 0x2000000c
        0x00000b1a:    6800        .h      LDR      r0,[r0,#0]
        0x00000b1c:    0900        ..      LSRS     r0,r0,#4
        0x00000b1e:    9001        ..      STR      r0,[sp,#4]
        0x00000b20:    e007        ..      B        0xb32 ; CLK_GetPCLK1Freq + 126
        0x00000b22:    4897        .H      LDR      r0,[pc,#604] ; [0xd80] = 0x2000000c
        0x00000b24:    6800        .h      LDR      r0,[r0,#0]
        0x00000b26:    0940        @.      LSRS     r0,r0,#5
        0x00000b28:    9001        ..      STR      r0,[sp,#4]
        0x00000b2a:    e002        ..      B        0xb32 ; CLK_GetPCLK1Freq + 126
        0x00000b2c:    2000        .       MOVS     r0,#0
        0x00000b2e:    9001        ..      STR      r0,[sp,#4]
        0x00000b30:    e7ff        ..      B        0xb32 ; CLK_GetPCLK1Freq + 126
        0x00000b32:    9801        ..      LDR      r0,[sp,#4]
        0x00000b34:    b002        ..      ADD      sp,sp,#8
        0x00000b36:    bd80        ..      POP      {r7,pc}
    $d.15
    __arm_cp.7_0
        0x00000b38:    40000234    4..@    DCD    1073742388
    $t.20
    CLK_GetPLLClockFreq
        0x00000b3c:    b087        ..      SUB      sp,sp,#0x1c
        0x00000b3e:    2000        .       MOVS     r0,#0
        0x00000b40:    9006        ..      STR      r0,[sp,#0x18]
        0x00000b42:    4826        &H      LDR      r0,[pc,#152] ; [0xbdc] = 0x40000240
        0x00000b44:    6800        .h      LDR      r0,[r0,#0]
        0x00000b46:    9005        ..      STR      r0,[sp,#0x14]
        0x00000b48:    a805        ..      ADD      r0,sp,#0x14
        0x00000b4a:    7880        .x      LDRB     r0,[r0,#2]
        0x00000b4c:    2105        .!      MOVS     r1,#5
        0x00000b4e:    4208        .B      TST      r0,r1
        0x00000b50:    d140        @.      BNE      0xbd4 ; CLK_GetPLLClockFreq + 152
        0x00000b52:    e7ff        ..      B        0xb54 ; CLK_GetPLLClockFreq + 24
        0x00000b54:    a805        ..      ADD      r0,sp,#0x14
        0x00000b56:    7880        .x      LDRB     r0,[r0,#2]
        0x00000b58:    06c0        ..      LSLS     r0,r0,#27
        0x00000b5a:    0f80        ..      LSRS     r0,r0,#30
        0x00000b5c:    b170        p.      CBZ      r0,0xb7c ; CLK_GetPLLClockFreq + 64
        0x00000b5e:    e7ff        ..      B        0xb60 ; CLK_GetPLLClockFreq + 36
        0x00000b60:    9805        ..      LDR      r0,[sp,#0x14]
        0x00000b62:    2103        .!      MOVS     r1,#3
        0x00000b64:    04c9        ..      LSLS     r1,r1,#19
        0x00000b66:    4008        .@      ANDS     r0,r0,r1
        0x00000b68:    4288        .B      CMP      r0,r1
        0x00000b6a:    d103        ..      BNE      0xb74 ; CLK_GetPLLClockFreq + 56
        0x00000b6c:    e7ff        ..      B        0xb6e ; CLK_GetPLLClockFreq + 50
        0x00000b6e:    481d        .H      LDR      r0,[pc,#116] ; [0xbe4] = 0x3d8600
        0x00000b70:    9004        ..      STR      r0,[sp,#0x10]
        0x00000b72:    e002        ..      B        0xb7a ; CLK_GetPLLClockFreq + 62
        0x00000b74:    481a        .H      LDR      r0,[pc,#104] ; [0xbe0] = 0xb71b00
        0x00000b76:    9004        ..      STR      r0,[sp,#0x10]
        0x00000b78:    e7ff        ..      B        0xb7a ; CLK_GetPLLClockFreq + 62
        0x00000b7a:    e002        ..      B        0xb82 ; CLK_GetPLLClockFreq + 70
        0x00000b7c:    4818        .H      LDR      r0,[pc,#96] ; [0xbe0] = 0xb71b00
        0x00000b7e:    9004        ..      STR      r0,[sp,#0x10]
        0x00000b80:    e7ff        ..      B        0xb82 ; CLK_GetPLLClockFreq + 70
        0x00000b82:    a805        ..      ADD      r0,sp,#0x14
        0x00000b84:    7880        .x      LDRB     r0,[r0,#2]
        0x00000b86:    0780        ..      LSLS     r0,r0,#30
        0x00000b88:    2800        .(      CMP      r0,#0
        0x00000b8a:    d503        ..      BPL      0xb94 ; CLK_GetPLLClockFreq + 88
        0x00000b8c:    e7ff        ..      B        0xb8e ; CLK_GetPLLClockFreq + 82
        0x00000b8e:    9804        ..      LDR      r0,[sp,#0x10]
        0x00000b90:    9006        ..      STR      r0,[sp,#0x18]
        0x00000b92:    e01e        ..      B        0xbd2 ; CLK_GetPLLClockFreq + 150
        0x00000b94:    4814        .H      LDR      r0,[pc,#80] ; [0xbe8] = 0x4040201
        0x00000b96:    9000        ..      STR      r0,[sp,#0]
        0x00000b98:    a805        ..      ADD      r0,sp,#0x14
        0x00000b9a:    8800        ..      LDRH     r0,[r0,#0]
        0x00000b9c:    0b81        ..      LSRS     r1,r0,#14
        0x00000b9e:    4668        hF      MOV      r0,sp
        0x00000ba0:    1840        @.      ADDS     r0,r0,r1
        0x00000ba2:    7800        .x      LDRB     r0,[r0,#0]
        0x00000ba4:    9001        ..      STR      r0,[sp,#4]
        0x00000ba6:    9805        ..      LDR      r0,[sp,#0x14]
        0x00000ba8:    213f        ?!      MOVS     r1,#0x3f
        0x00000baa:    4008        .@      ANDS     r0,r0,r1
        0x00000bac:    9003        ..      STR      r0,[sp,#0xc]
        0x00000bae:    9805        ..      LDR      r0,[sp,#0x14]
        0x00000bb0:    f6416100    A..a    MOVW     r1,#0x1e00
        0x00000bb4:    4008        .@      ANDS     r0,r0,r1
        0x00000bb6:    0a40        @.      LSRS     r0,r0,#9
        0x00000bb8:    9002        ..      STR      r0,[sp,#8]
        0x00000bba:    9804        ..      LDR      r0,[sp,#0x10]
        0x00000bbc:    0881        ..      LSRS     r1,r0,#2
        0x00000bbe:    9803        ..      LDR      r0,[sp,#0xc]
        0x00000bc0:    4348        HC      MULS     r0,r1,r0
        0x00000bc2:    9a02        ..      LDR      r2,[sp,#8]
        0x00000bc4:    9901        ..      LDR      r1,[sp,#4]
        0x00000bc6:    4351        QC      MULS     r1,r2,r1
        0x00000bc8:    fbb0f0f1    ....    UDIV     r0,r0,r1
        0x00000bcc:    0080        ..      LSLS     r0,r0,#2
        0x00000bce:    9006        ..      STR      r0,[sp,#0x18]
        0x00000bd0:    e7ff        ..      B        0xbd2 ; CLK_GetPLLClockFreq + 150
        0x00000bd2:    e7ff        ..      B        0xbd4 ; CLK_GetPLLClockFreq + 152
        0x00000bd4:    9806        ..      LDR      r0,[sp,#0x18]
        0x00000bd6:    b007        ..      ADD      sp,sp,#0x1c
        0x00000bd8:    4770        pG      BX       lr
        0x00000bda:    46c0        .F      MOV      r8,r8
    $d.21
    __arm_cp.10_0
        0x00000bdc:    40000240    @..@    DCD    1073742400
    __arm_cp.10_1
        0x00000be0:    00b71b00    ....    DCD    12000000
    __arm_cp.10_2
        0x00000be4:    003d8600    ..=.    DCD    4032000
    __arm_cp.10_3
        0x00000be8:    04040201    ....    DCD    67371521
    $t.28
    CLK_SetHCLK
        0x00000bec:    b510        ..      PUSH     {r4,lr}
        0x00000bee:    b084        ..      SUB      sp,sp,#0x10
        0x00000bf0:    9003        ..      STR      r0,[sp,#0xc]
        0x00000bf2:    9102        ..      STR      r1,[sp,#8]
        0x00000bf4:    4864        dH      LDR      r0,[pc,#400] ; [0xd88] = 0x40000250
        0x00000bf6:    6801        .h      LDR      r1,[r0,#0]
        0x00000bf8:    2010        .       MOVS     r0,#0x10
        0x00000bfa:    4001        .@      ANDS     r1,r1,r0
        0x00000bfc:    9101        ..      STR      r1,[sp,#4]
        0x00000bfe:    4a12        .J      LDR      r2,[pc,#72] ; [0xc48] = 0x40000200
        0x00000c00:    6811        .h      LDR      r1,[r2,#0]
        0x00000c02:    2304        .#      MOVS     r3,#4
        0x00000c04:    4319        .C      ORRS     r1,r1,r3
        0x00000c06:    6011        .`      STR      r1,[r2,#0]
        0x00000c08:    f000f894    ....    BL       CLK_WaitClockReady ; 0xd34
        0x00000c0c:    4936        6I      LDR      r1,[pc,#216] ; [0xce8] = 0x40000210
        0x00000c0e:    6808        .h      LDR      r0,[r1,#0]
        0x00000c10:    2207        ."      MOVS     r2,#7
        0x00000c12:    4310        .C      ORRS     r0,r0,r2
        0x00000c14:    6008        .`      STR      r0,[r1,#0]
        0x00000c16:    4b33        3K      LDR      r3,[pc,#204] ; [0xce4] = 0x40000220
        0x00000c18:    6818        .h      LDR      r0,[r3,#0]
        0x00000c1a:    240f        .$      MOVS     r4,#0xf
        0x00000c1c:    43a0        .C      BICS     r0,r0,r4
        0x00000c1e:    9c02        ..      LDR      r4,[sp,#8]
        0x00000c20:    4320         C      ORRS     r0,r0,r4
        0x00000c22:    6018        .`      STR      r0,[r3,#0]
        0x00000c24:    6808        .h      LDR      r0,[r1,#0]
        0x00000c26:    4390        .C      BICS     r0,r0,r2
        0x00000c28:    9a03        ..      LDR      r2,[sp,#0xc]
        0x00000c2a:    4310        .C      ORRS     r0,r0,r2
        0x00000c2c:    6008        .`      STR      r0,[r1,#0]
        0x00000c2e:    f000fb7b    ..{.    BL       SystemCoreClockUpdate ; 0x1328
        0x00000c32:    9801        ..      LDR      r0,[sp,#4]
        0x00000c34:    b930        0.      CBNZ     r0,0xc44 ; CLK_SetHCLK + 88
        0x00000c36:    e7ff        ..      B        0xc38 ; CLK_SetHCLK + 76
        0x00000c38:    4903        .I      LDR      r1,[pc,#12] ; [0xc48] = 0x40000200
        0x00000c3a:    6808        .h      LDR      r0,[r1,#0]
        0x00000c3c:    2204        ."      MOVS     r2,#4
        0x00000c3e:    4390        .C      BICS     r0,r0,r2
        0x00000c40:    6008        .`      STR      r0,[r1,#0]
        0x00000c42:    e7ff        ..      B        0xc44 ; CLK_SetHCLK + 88
        0x00000c44:    b004        ..      ADD      sp,sp,#0x10
        0x00000c46:    bd10        ..      POP      {r4,pc}
    $d.29
    __arm_cp.14_1
        0x00000c48:    40000200    ...@    DCD    1073742336
    $t.32
    CLK_SetModuleClock
        0x00000c4c:    b08d        ..      SUB      sp,sp,#0x34
        0x00000c4e:    900c        ..      STR      r0,[sp,#0x30]
        0x00000c50:    910b        ..      STR      r1,[sp,#0x2c]
        0x00000c52:    920a        ..      STR      r2,[sp,#0x28]
        0x00000c54:    980c        ..      LDR      r0,[sp,#0x30]
        0x00000c56:    0a80        ..      LSRS     r0,r0,#10
        0x00000c58:    0600        ..      LSLS     r0,r0,#24
        0x00000c5a:    b1f0        ..      CBZ      r0,0xc9a ; CLK_SetModuleClock + 78
        0x00000c5c:    e7ff        ..      B        0xc5e ; CLK_SetModuleClock + 18
        0x00000c5e:    2010        .       MOVS     r0,#0x10
        0x00000c60:    9008        ..      STR      r0,[sp,#0x20]
        0x00000c62:    200c        .       MOVS     r0,#0xc
        0x00000c64:    9007        ..      STR      r0,[sp,#0x1c]
        0x00000c66:    2104        .!      MOVS     r1,#4
        0x00000c68:    9106        ..      STR      r1,[sp,#0x18]
        0x00000c6a:    2100        .!      MOVS     r1,#0
        0x00000c6c:    9105        ..      STR      r1,[sp,#0x14]
        0x00000c6e:    a90c        ..      ADD      r1,sp,#0x30
        0x00000c70:    8849        I.      LDRH     r1,[r1,#2]
        0x00000c72:    4001        .@      ANDS     r1,r1,r0
        0x00000c74:    a805        ..      ADD      r0,sp,#0x14
        0x00000c76:    5840        @X      LDR      r0,[r0,r1]
        0x00000c78:    491a        .I      LDR      r1,[pc,#104] ; [0xce4] = 0x40000220
        0x00000c7a:    1840        @.      ADDS     r0,r0,r1
        0x00000c7c:    9009        ..      STR      r0,[sp,#0x24]
        0x00000c7e:    9809        ..      LDR      r0,[sp,#0x24]
        0x00000c80:    6800        .h      LDR      r0,[r0,#0]
        0x00000c82:    9a0c        ..      LDR      r2,[sp,#0x30]
        0x00000c84:    0a91        ..      LSRS     r1,r2,#10
        0x00000c86:    b2c9        ..      UXTB     r1,r1
        0x00000c88:    0592        ..      LSLS     r2,r2,#22
        0x00000c8a:    0ed2        ..      LSRS     r2,r2,#27
        0x00000c8c:    4091        .@      LSLS     r1,r1,r2
        0x00000c8e:    4388        .C      BICS     r0,r0,r1
        0x00000c90:    990a        ..      LDR      r1,[sp,#0x28]
        0x00000c92:    4308        .C      ORRS     r0,r0,r1
        0x00000c94:    9909        ..      LDR      r1,[sp,#0x24]
        0x00000c96:    6008        .`      STR      r0,[r1,#0]
        0x00000c98:    e7ff        ..      B        0xc9a ; CLK_SetModuleClock + 78
        0x00000c9a:    980c        ..      LDR      r0,[sp,#0x30]
        0x00000c9c:    0100        ..      LSLS     r0,r0,#4
        0x00000c9e:    0f40        @.      LSRS     r0,r0,#29
        0x00000ca0:    b1f0        ..      CBZ      r0,0xce0 ; CLK_SetModuleClock + 148
        0x00000ca2:    e7ff        ..      B        0xca4 ; CLK_SetModuleClock + 88
        0x00000ca4:    200c        .       MOVS     r0,#0xc
        0x00000ca6:    9003        ..      STR      r0,[sp,#0xc]
        0x00000ca8:    2108        .!      MOVS     r1,#8
        0x00000caa:    9102        ..      STR      r1,[sp,#8]
        0x00000cac:    2104        .!      MOVS     r1,#4
        0x00000cae:    9101        ..      STR      r1,[sp,#4]
        0x00000cb0:    2100        .!      MOVS     r1,#0
        0x00000cb2:    9100        ..      STR      r1,[sp,#0]
        0x00000cb4:    990c        ..      LDR      r1,[sp,#0x30]
        0x00000cb6:    0e89        ..      LSRS     r1,r1,#26
        0x00000cb8:    4001        .@      ANDS     r1,r1,r0
        0x00000cba:    4668        hF      MOV      r0,sp
        0x00000cbc:    5840        @X      LDR      r0,[r0,r1]
        0x00000cbe:    490a        .I      LDR      r1,[pc,#40] ; [0xce8] = 0x40000210
        0x00000cc0:    1840        @.      ADDS     r0,r0,r1
        0x00000cc2:    9004        ..      STR      r0,[sp,#0x10]
        0x00000cc4:    9804        ..      LDR      r0,[sp,#0x10]
        0x00000cc6:    6800        .h      LDR      r0,[r0,#0]
        0x00000cc8:    9a0c        ..      LDR      r2,[sp,#0x30]
        0x00000cca:    0111        ..      LSLS     r1,r2,#4
        0x00000ccc:    0f49        I.      LSRS     r1,r1,#29
        0x00000cce:    01d2        ..      LSLS     r2,r2,#7
        0x00000cd0:    0ed2        ..      LSRS     r2,r2,#27
        0x00000cd2:    4091        .@      LSLS     r1,r1,r2
        0x00000cd4:    4388        .C      BICS     r0,r0,r1
        0x00000cd6:    990b        ..      LDR      r1,[sp,#0x2c]
        0x00000cd8:    4308        .C      ORRS     r0,r0,r1
        0x00000cda:    9904        ..      LDR      r1,[sp,#0x10]
        0x00000cdc:    6008        .`      STR      r0,[r1,#0]
        0x00000cde:    e7ff        ..      B        0xce0 ; CLK_SetModuleClock + 148
        0x00000ce0:    b00d        ..      ADD      sp,sp,#0x34
        0x00000ce2:    4770        pG      BX       lr
    $d.33
    __arm_cp.16_0
        0x00000ce4:    40000220     ..@    DCD    1073742368
    __arm_cp.16_1
        0x00000ce8:    40000210    ...@    DCD    1073742352
    $t.3
    CLK_SysTickDelay
        0x00000cec:    b081        ..      SUB      sp,sp,#4
        0x00000cee:    9000        ..      STR      r0,[sp,#0]
        0x00000cf0:    9900        ..      LDR      r1,[sp,#0]
        0x00000cf2:    480c        .H      LDR      r0,[pc,#48] ; [0xd24] = 0x20000004
        0x00000cf4:    6800        .h      LDR      r0,[r0,#0]
        0x00000cf6:    4348        HC      MULS     r0,r1,r0
        0x00000cf8:    490b        .I      LDR      r1,[pc,#44] ; [0xd28] = 0xe000e014
        0x00000cfa:    6008        .`      STR      r0,[r1,#0]
        0x00000cfc:    490b        .I      LDR      r1,[pc,#44] ; [0xd2c] = 0xe000e018
        0x00000cfe:    2000        .       MOVS     r0,#0
        0x00000d00:    6008        .`      STR      r0,[r1,#0]
        0x00000d02:    490b        .I      LDR      r1,[pc,#44] ; [0xd30] = 0xe000e010
        0x00000d04:    2005        .       MOVS     r0,#5
        0x00000d06:    6008        .`      STR      r0,[r1,#0]
        0x00000d08:    e7ff        ..      B        0xd0a ; CLK_SysTickDelay + 30
        0x00000d0a:    4809        .H      LDR      r0,[pc,#36] ; [0xd30] = 0xe000e010
        0x00000d0c:    6800        .h      LDR      r0,[r0,#0]
        0x00000d0e:    03c0        ..      LSLS     r0,r0,#15
        0x00000d10:    2800        .(      CMP      r0,#0
        0x00000d12:    d401        ..      BMI      0xd18 ; CLK_SysTickDelay + 44
        0x00000d14:    e7ff        ..      B        0xd16 ; CLK_SysTickDelay + 42
        0x00000d16:    e7f8        ..      B        0xd0a ; CLK_SysTickDelay + 30
        0x00000d18:    4905        .I      LDR      r1,[pc,#20] ; [0xd30] = 0xe000e010
        0x00000d1a:    2000        .       MOVS     r0,#0
        0x00000d1c:    6008        .`      STR      r0,[r1,#0]
        0x00000d1e:    b001        ..      ADD      sp,sp,#4
        0x00000d20:    4770        pG      BX       lr
        0x00000d22:    46c0        .F      MOV      r8,r8
    $d.4
    __arm_cp.2_0
        0x00000d24:    20000004    ...     DCD    536870916
    __arm_cp.2_1
        0x00000d28:    e000e014    ....    DCD    3758153748
    __arm_cp.2_2
        0x00000d2c:    e000e018    ....    DCD    3758153752
    __arm_cp.2_3
        0x00000d30:    e000e010    ....    DCD    3758153744
    $t.26
    CLK_WaitClockReady
        0x00000d34:    b083        ..      SUB      sp,sp,#0xc
        0x00000d36:    9002        ..      STR      r0,[sp,#8]
        0x00000d38:    4811        .H      LDR      r0,[pc,#68] ; [0xd80] = 0x2000000c
        0x00000d3a:    6800        .h      LDR      r0,[r0,#0]
        0x00000d3c:    9001        ..      STR      r0,[sp,#4]
        0x00000d3e:    2001        .       MOVS     r0,#1
        0x00000d40:    9000        ..      STR      r0,[sp,#0]
        0x00000d42:    4910        .I      LDR      r1,[pc,#64] ; [0xd84] = 0x2000006c
        0x00000d44:    2000        .       MOVS     r0,#0
        0x00000d46:    6008        .`      STR      r0,[r1,#0]
        0x00000d48:    e7ff        ..      B        0xd4a ; CLK_WaitClockReady + 22
        0x00000d4a:    480f        .H      LDR      r0,[pc,#60] ; [0xd88] = 0x40000250
        0x00000d4c:    6800        .h      LDR      r0,[r0,#0]
        0x00000d4e:    9902        ..      LDR      r1,[sp,#8]
        0x00000d50:    4008        .@      ANDS     r0,r0,r1
        0x00000d52:    4288        .B      CMP      r0,r1
        0x00000d54:    d009        ..      BEQ      0xd6a ; CLK_WaitClockReady + 54
        0x00000d56:    e7ff        ..      B        0xd58 ; CLK_WaitClockReady + 36
        0x00000d58:    9801        ..      LDR      r0,[sp,#4]
        0x00000d5a:    1e40        @.      SUBS     r0,r0,#1
        0x00000d5c:    9001        ..      STR      r0,[sp,#4]
        0x00000d5e:    b918        ..      CBNZ     r0,0xd68 ; CLK_WaitClockReady + 52
        0x00000d60:    e7ff        ..      B        0xd62 ; CLK_WaitClockReady + 46
        0x00000d62:    2000        .       MOVS     r0,#0
        0x00000d64:    9000        ..      STR      r0,[sp,#0]
        0x00000d66:    e000        ..      B        0xd6a ; CLK_WaitClockReady + 54
        0x00000d68:    e7ef        ..      B        0xd4a ; CLK_WaitClockReady + 22
        0x00000d6a:    9801        ..      LDR      r0,[sp,#4]
        0x00000d6c:    b928        (.      CBNZ     r0,0xd7a ; CLK_WaitClockReady + 70
        0x00000d6e:    e7ff        ..      B        0xd70 ; CLK_WaitClockReady + 60
        0x00000d70:    4904        .I      LDR      r1,[pc,#16] ; [0xd84] = 0x2000006c
        0x00000d72:    2000        .       MOVS     r0,#0
        0x00000d74:    43c0        .C      MVNS     r0,r0
        0x00000d76:    6008        .`      STR      r0,[r1,#0]
        0x00000d78:    e7ff        ..      B        0xd7a ; CLK_WaitClockReady + 70
        0x00000d7a:    9800        ..      LDR      r0,[sp,#0]
        0x00000d7c:    b003        ..      ADD      sp,sp,#0xc
        0x00000d7e:    4770        pG      BX       lr
    $d.27
    __arm_cp.13_0
        0x00000d80:    2000000c    ...     DCD    536870924
    __arm_cp.13_1
        0x00000d84:    2000006c    l..     DCD    536871020
    __arm_cp.13_2
        0x00000d88:    40000250    P..@    DCD    1073742416
    $t.3
    DumpStack
        0x00000d8c:    b081        ..      SUB      sp,sp,#4
        0x00000d8e:    9000        ..      STR      r0,[sp,#0]
        0x00000d90:    b001        ..      ADD      sp,sp,#4
        0x00000d92:    4770        pG      BX       lr
    GPIO_SetMode
        0x00000d94:    b084        ..      SUB      sp,sp,#0x10
        0x00000d96:    9003        ..      STR      r0,[sp,#0xc]
        0x00000d98:    9102        ..      STR      r1,[sp,#8]
        0x00000d9a:    9201        ..      STR      r2,[sp,#4]
        0x00000d9c:    2000        .       MOVS     r0,#0
        0x00000d9e:    9000        ..      STR      r0,[sp,#0]
        0x00000da0:    e7ff        ..      B        0xda2 ; GPIO_SetMode + 14
        0x00000da2:    9800        ..      LDR      r0,[sp,#0]
        0x00000da4:    280f        .(      CMP      r0,#0xf
        0x00000da6:    d818        ..      BHI      0xdda ; GPIO_SetMode + 70
        0x00000da8:    e7ff        ..      B        0xdaa ; GPIO_SetMode + 22
        0x00000daa:    9802        ..      LDR      r0,[sp,#8]
        0x00000dac:    9900        ..      LDR      r1,[sp,#0]
        0x00000dae:    40c8        .@      LSRS     r0,r0,r1
        0x00000db0:    07c0        ..      LSLS     r0,r0,#31
        0x00000db2:    b168        h.      CBZ      r0,0xdd0 ; GPIO_SetMode + 60
        0x00000db4:    e7ff        ..      B        0xdb6 ; GPIO_SetMode + 34
        0x00000db6:    9803        ..      LDR      r0,[sp,#0xc]
        0x00000db8:    6800        .h      LDR      r0,[r0,#0]
        0x00000dba:    9900        ..      LDR      r1,[sp,#0]
        0x00000dbc:    004a        J.      LSLS     r2,r1,#1
        0x00000dbe:    2103        .!      MOVS     r1,#3
        0x00000dc0:    4091        .@      LSLS     r1,r1,r2
        0x00000dc2:    4388        .C      BICS     r0,r0,r1
        0x00000dc4:    9901        ..      LDR      r1,[sp,#4]
        0x00000dc6:    4091        .@      LSLS     r1,r1,r2
        0x00000dc8:    4308        .C      ORRS     r0,r0,r1
        0x00000dca:    9903        ..      LDR      r1,[sp,#0xc]
        0x00000dcc:    6008        .`      STR      r0,[r1,#0]
        0x00000dce:    e7ff        ..      B        0xdd0 ; GPIO_SetMode + 60
        0x00000dd0:    e7ff        ..      B        0xdd2 ; GPIO_SetMode + 62
        0x00000dd2:    9800        ..      LDR      r0,[sp,#0]
        0x00000dd4:    1c40        @.      ADDS     r0,r0,#1
        0x00000dd6:    9000        ..      STR      r0,[sp,#0]
        0x00000dd8:    e7e3        ..      B        0xda2 ; GPIO_SetMode + 14
        0x00000dda:    b004        ..      ADD      sp,sp,#0x10
        0x00000ddc:    4770        pG      BX       lr
        0x00000dde:    0000        ..      MOVS     r0,r0
    GetChar
        0x00000de0:    e7ff        ..      B        0xde2 ; GetChar + 2
        0x00000de2:    4805        .H      LDR      r0,[pc,#20] ; [0xdf8] = 0x40070018
        0x00000de4:    6800        .h      LDR      r0,[r0,#0]
        0x00000de6:    0440        @.      LSLS     r0,r0,#17
        0x00000de8:    2800        .(      CMP      r0,#0
        0x00000dea:    d404        ..      BMI      0xdf6 ; GetChar + 22
        0x00000dec:    e7ff        ..      B        0xdee ; GetChar + 14
        0x00000dee:    4803        .H      LDR      r0,[pc,#12] ; [0xdfc] = 0x40070000
        0x00000df0:    6800        .h      LDR      r0,[r0,#0]
        0x00000df2:    b2c0        ..      UXTB     r0,r0
        0x00000df4:    4770        pG      BX       lr
        0x00000df6:    e7f4        ..      B        0xde2 ; GetChar + 2
    $d.8
    __arm_cp.5_0
        0x00000df8:    40070018    ...@    DCD    1074200600
    __arm_cp.5_1
        0x00000dfc:    40070000    ...@    DCD    1074200576
    $t.1
    HardFault_Handler
        0x00000e00:    e7ff        ..      B        0xe02 ; HardFault_Handler + 2
        0x00000e02:    e7fe        ..      B        0xe02 ; HardFault_Handler + 2
    NMI_Handler
        0x00000e04:    4770        pG      BX       lr
    PendSV_Handler
        0x00000e06:    4770        pG      BX       lr
    ProcessHardFault
        0x00000e08:    b580        ..      PUSH     {r7,lr}
        0x00000e0a:    b086        ..      SUB      sp,sp,#0x18
        0x00000e0c:    9004        ..      STR      r0,[sp,#0x10]
        0x00000e0e:    9103        ..      STR      r1,[sp,#0xc]
        0x00000e10:    9202        ..      STR      r2,[sp,#8]
        0x00000e12:    a804        ..      ADD      r0,sp,#0x10
        0x00000e14:    7800        .x      LDRB     r0,[r0,#0]
        0x00000e16:    0740        @.      LSLS     r0,r0,#29
        0x00000e18:    2800        .(      CMP      r0,#0
        0x00000e1a:    d503        ..      BPL      0xe24 ; ProcessHardFault + 28
        0x00000e1c:    e7ff        ..      B        0xe1e ; ProcessHardFault + 22
        0x00000e1e:    9802        ..      LDR      r0,[sp,#8]
        0x00000e20:    9001        ..      STR      r0,[sp,#4]
        0x00000e22:    e002        ..      B        0xe2a ; ProcessHardFault + 34
        0x00000e24:    9803        ..      LDR      r0,[sp,#0xc]
        0x00000e26:    9001        ..      STR      r0,[sp,#4]
        0x00000e28:    e7ff        ..      B        0xe2a ; ProcessHardFault + 34
        0x00000e2a:    9801        ..      LDR      r0,[sp,#4]
        0x00000e2c:    6980        .i      LDR      r0,[r0,#0x18]
        0x00000e2e:    8800        ..      LDRH     r0,[r0,#0]
        0x00000e30:    9000        ..      STR      r0,[sp,#0]
        0x00000e32:    9800        ..      LDR      r0,[sp,#0]
        0x00000e34:    4910        .I      LDR      r1,[pc,#64] ; [0xe78] = 0xbeab
        0x00000e36:    4288        .B      CMP      r0,r1
        0x00000e38:    d10a        ..      BNE      0xe50 ; ProcessHardFault + 72
        0x00000e3a:    e7ff        ..      B        0xe3c ; ProcessHardFault + 52
        0x00000e3c:    4910        .I      LDR      r1,[pc,#64] ; [0xe80] = 0x20000010
        0x00000e3e:    2000        .       MOVS     r0,#0
        0x00000e40:    6008        .`      STR      r0,[r1,#0]
        0x00000e42:    9901        ..      LDR      r1,[sp,#4]
        0x00000e44:    6988        .i      LDR      r0,[r1,#0x18]
        0x00000e46:    1c80        ..      ADDS     r0,r0,#2
        0x00000e48:    6188        .a      STR      r0,[r1,#0x18]
        0x00000e4a:    9804        ..      LDR      r0,[sp,#0x10]
        0x00000e4c:    9005        ..      STR      r0,[sp,#0x14]
        0x00000e4e:    e010        ..      B        0xe72 ; ProcessHardFault + 106
        0x00000e50:    480a        .H      LDR      r0,[pc,#40] ; [0xe7c] = 0x6881
        0x00000e52:    f003fc21    ..!.    BL       __0printf ; 0x4698
        0x00000e56:    9801        ..      LDR      r0,[sp,#4]
        0x00000e58:    f7ffff98    ....    BL       DumpStack ; 0xd8c
        0x00000e5c:    e7ff        ..      B        0xe5e ; ProcessHardFault + 86
        0x00000e5e:    9801        ..      LDR      r0,[sp,#4]
        0x00000e60:    6800        .h      LDR      r0,[r0,#0]
        0x00000e62:    2101        .!      MOVS     r1,#1
        0x00000e64:    4308        .C      ORRS     r0,r0,r1
        0x00000e66:    b108        ..      CBZ      r0,0xe6c ; ProcessHardFault + 100
        0x00000e68:    e7ff        ..      B        0xe6a ; ProcessHardFault + 98
        0x00000e6a:    e7f8        ..      B        0xe5e ; ProcessHardFault + 86
        0x00000e6c:    9804        ..      LDR      r0,[sp,#0x10]
        0x00000e6e:    9005        ..      STR      r0,[sp,#0x14]
        0x00000e70:    e7ff        ..      B        0xe72 ; ProcessHardFault + 106
        0x00000e72:    9805        ..      LDR      r0,[sp,#0x14]
        0x00000e74:    b006        ..      ADD      sp,sp,#0x18
        0x00000e76:    bd80        ..      POP      {r7,pc}
    $d.2
    __arm_cp.1_0
        0x00000e78:    0000beab    ....    DCD    48811
    __arm_cp.1_1
        0x00000e7c:    00006881    .h..    DCD    26753
    __arm_cp.1_2
        0x00000e80:    20000010    ...     DCD    536870928
    $t.0
    SH_Return
        0x00000e84:    b083        ..      SUB      sp,sp,#0xc
        0x00000e86:    9002        ..      STR      r0,[sp,#8]
        0x00000e88:    9101        ..      STR      r1,[sp,#4]
        0x00000e8a:    9200        ..      STR      r2,[sp,#0]
        0x00000e8c:    2000        .       MOVS     r0,#0
        0x00000e8e:    b003        ..      ADD      sp,sp,#0xc
        0x00000e90:    4770        pG      BX       lr
        0x00000e92:    0000        ..      MOVS     r0,r0
    SPI_Close
        0x00000e94:    b081        ..      SUB      sp,sp,#4
        0x00000e96:    9000        ..      STR      r0,[sp,#0]
        0x00000e98:    9800        ..      LDR      r0,[sp,#0]
        0x00000e9a:    49ab        .I      LDR      r1,[pc,#684] ; [0x1148] = 0x40061000
        0x00000e9c:    4288        .B      CMP      r0,r1
        0x00000e9e:    d10a        ..      BNE      0xeb6 ; SPI_Close + 34
        0x00000ea0:    e7ff        ..      B        0xea2 ; SPI_Close + 14
        0x00000ea2:    490e        .I      LDR      r1,[pc,#56] ; [0xedc] = 0x4000000c
        0x00000ea4:    6808        .h      LDR      r0,[r1,#0]
        0x00000ea6:    f2420200    B...    MOVW     r2,#0x2000
        0x00000eaa:    4310        .C      ORRS     r0,r0,r2
        0x00000eac:    6008        .`      STR      r0,[r1,#0]
        0x00000eae:    6808        .h      LDR      r0,[r1,#0]
        0x00000eb0:    4390        .C      BICS     r0,r0,r2
        0x00000eb2:    6008        .`      STR      r0,[r1,#0]
        0x00000eb4:    e00f        ..      B        0xed6 ; SPI_Close + 66
        0x00000eb6:    9800        ..      LDR      r0,[sp,#0]
        0x00000eb8:    49a4        .I      LDR      r1,[pc,#656] ; [0x114c] = 0x40062000
        0x00000eba:    4288        .B      CMP      r0,r1
        0x00000ebc:    d10a        ..      BNE      0xed4 ; SPI_Close + 64
        0x00000ebe:    e7ff        ..      B        0xec0 ; SPI_Close + 44
        0x00000ec0:    4906        .I      LDR      r1,[pc,#24] ; [0xedc] = 0x4000000c
        0x00000ec2:    6808        .h      LDR      r0,[r1,#0]
        0x00000ec4:    f2440200    D...    MOVW     r2,#0x4000
        0x00000ec8:    4310        .C      ORRS     r0,r0,r2
        0x00000eca:    6008        .`      STR      r0,[r1,#0]
        0x00000ecc:    6808        .h      LDR      r0,[r1,#0]
        0x00000ece:    4390        .C      BICS     r0,r0,r2
        0x00000ed0:    6008        .`      STR      r0,[r1,#0]
        0x00000ed2:    e7ff        ..      B        0xed4 ; SPI_Close + 64
        0x00000ed4:    e7ff        ..      B        0xed6 ; SPI_Close + 66
        0x00000ed6:    b001        ..      ADD      sp,sp,#4
        0x00000ed8:    4770        pG      BX       lr
        0x00000eda:    46c0        .F      MOV      r8,r8
    $d.3
    __arm_cp.1_2
        0x00000edc:    4000000c    ...@    DCD    1073741836
    $t.7
    SPI_EnableAutoSS
        0x00000ee0:    b083        ..      SUB      sp,sp,#0xc
        0x00000ee2:    9002        ..      STR      r0,[sp,#8]
        0x00000ee4:    9101        ..      STR      r1,[sp,#4]
        0x00000ee6:    9200        ..      STR      r2,[sp,#0]
        0x00000ee8:    9802        ..      LDR      r0,[sp,#8]
        0x00000eea:    6881        .h      LDR      r1,[r0,#8]
        0x00000eec:    2005        .       MOVS     r0,#5
        0x00000eee:    4381        .C      BICS     r1,r1,r0
        0x00000ef0:    9801        ..      LDR      r0,[sp,#4]
        0x00000ef2:    9a00        ..      LDR      r2,[sp,#0]
        0x00000ef4:    4310        .C      ORRS     r0,r0,r2
        0x00000ef6:    4308        .C      ORRS     r0,r0,r1
        0x00000ef8:    2108        .!      MOVS     r1,#8
        0x00000efa:    4308        .C      ORRS     r0,r0,r1
        0x00000efc:    9902        ..      LDR      r1,[sp,#8]
        0x00000efe:    6088        .`      STR      r0,[r1,#8]
        0x00000f00:    b003        ..      ADD      sp,sp,#0xc
        0x00000f02:    4770        pG      BX       lr
    SPI_Open
        0x00000f04:    b510        ..      PUSH     {r4,lr}
        0x00000f06:    b088        ..      SUB      sp,sp,#0x20
        0x00000f08:    9c0a        ..      LDR      r4,[sp,#0x28]
        0x00000f0a:    9007        ..      STR      r0,[sp,#0x1c]
        0x00000f0c:    9106        ..      STR      r1,[sp,#0x18]
        0x00000f0e:    9205        ..      STR      r2,[sp,#0x14]
        0x00000f10:    9304        ..      STR      r3,[sp,#0x10]
        0x00000f12:    2000        .       MOVS     r0,#0
        0x00000f14:    9003        ..      STR      r0,[sp,#0xc]
        0x00000f16:    9000        ..      STR      r0,[sp,#0]
        0x00000f18:    9907        ..      LDR      r1,[sp,#0x1c]
        0x00000f1a:    6e08        .n      LDR      r0,[r1,#0x60]
        0x00000f1c:    2201        ."      MOVS     r2,#1
        0x00000f1e:    4390        .C      BICS     r0,r0,r2
        0x00000f20:    6608        .f      STR      r0,[r1,#0x60]
        0x00000f22:    9804        ..      LDR      r0,[sp,#0x10]
        0x00000f24:    2820         (      CMP      r0,#0x20
        0x00000f26:    d103        ..      BNE      0xf30 ; SPI_Open + 44
        0x00000f28:    e7ff        ..      B        0xf2a ; SPI_Open + 38
        0x00000f2a:    2000        .       MOVS     r0,#0
        0x00000f2c:    9004        ..      STR      r0,[sp,#0x10]
        0x00000f2e:    e7ff        ..      B        0xf30 ; SPI_Open + 44
        0x00000f30:    f7fffd7a    ..z.    BL       CLK_GetHCLKFreq ; 0xa28
        0x00000f34:    9001        ..      STR      r0,[sp,#4]
        0x00000f36:    9806        ..      LDR      r0,[sp,#0x18]
        0x00000f38:    b100        ..      CBZ      r0,0xf3c ; SPI_Open + 56
        0x00000f3a:    e0d1        ..      B        0x10e0 ; SPI_Open + 476
        0x00000f3c:    9907        ..      LDR      r1,[sp,#0x1c]
        0x00000f3e:    2000        .       MOVS     r0,#0
        0x00000f40:    6088        .`      STR      r0,[r1,#8]
        0x00000f42:    9806        ..      LDR      r0,[sp,#0x18]
        0x00000f44:    9904        ..      LDR      r1,[sp,#0x10]
        0x00000f46:    0209        ..      LSLS     r1,r1,#8
        0x00000f48:    4308        .C      ORRS     r0,r0,r1
        0x00000f4a:    9905        ..      LDR      r1,[sp,#0x14]
        0x00000f4c:    4308        .C      ORRS     r0,r0,r1
        0x00000f4e:    2101        .!      MOVS     r1,#1
        0x00000f50:    4308        .C      ORRS     r0,r0,r1
        0x00000f52:    9907        ..      LDR      r1,[sp,#0x1c]
        0x00000f54:    6008        .`      STR      r0,[r1,#0]
        0x00000f56:    980a        ..      LDR      r0,[sp,#0x28]
        0x00000f58:    9901        ..      LDR      r1,[sp,#4]
        0x00000f5a:    4288        .B      CMP      r0,r1
        0x00000f5c:    d31c        ..      BCC      0xf98 ; SPI_Open + 148
        0x00000f5e:    e7ff        ..      B        0xf60 ; SPI_Open + 92
        0x00000f60:    9807        ..      LDR      r0,[sp,#0x1c]
        0x00000f62:    4979        yI      LDR      r1,[pc,#484] ; [0x1148] = 0x40061000
        0x00000f64:    4288        .B      CMP      r0,r1
        0x00000f66:    d108        ..      BNE      0xf7a ; SPI_Open + 118
        0x00000f68:    e7ff        ..      B        0xf6a ; SPI_Open + 102
        0x00000f6a:    4979        yI      LDR      r1,[pc,#484] ; [0x1150] = 0x40000218
        0x00000f6c:    6808        .h      LDR      r0,[r1,#0]
        0x00000f6e:    2220         "      MOVS     r2,#0x20
        0x00000f70:    4310        .C      ORRS     r0,r0,r2
        0x00000f72:    2210        ."      MOVS     r2,#0x10
        0x00000f74:    4390        .C      BICS     r0,r0,r2
        0x00000f76:    6008        .`      STR      r0,[r1,#0]
        0x00000f78:    e00d        ..      B        0xf96 ; SPI_Open + 146
        0x00000f7a:    9807        ..      LDR      r0,[sp,#0x1c]
        0x00000f7c:    4973        sI      LDR      r1,[pc,#460] ; [0x114c] = 0x40062000
        0x00000f7e:    4288        .B      CMP      r0,r1
        0x00000f80:    d108        ..      BNE      0xf94 ; SPI_Open + 144
        0x00000f82:    e7ff        ..      B        0xf84 ; SPI_Open + 128
        0x00000f84:    4972        rI      LDR      r1,[pc,#456] ; [0x1150] = 0x40000218
        0x00000f86:    6808        .h      LDR      r0,[r1,#0]
        0x00000f88:    2280        ."      MOVS     r2,#0x80
        0x00000f8a:    4310        .C      ORRS     r0,r0,r2
        0x00000f8c:    2240        @"      MOVS     r2,#0x40
        0x00000f8e:    4390        .C      BICS     r0,r0,r2
        0x00000f90:    6008        .`      STR      r0,[r1,#0]
        0x00000f92:    e7ff        ..      B        0xf94 ; SPI_Open + 144
        0x00000f94:    e7ff        ..      B        0xf96 ; SPI_Open + 146
        0x00000f96:    e7ff        ..      B        0xf98 ; SPI_Open + 148
        0x00000f98:    9807        ..      LDR      r0,[sp,#0x1c]
        0x00000f9a:    496b        kI      LDR      r1,[pc,#428] ; [0x1148] = 0x40061000
        0x00000f9c:    4288        .B      CMP      r0,r1
        0x00000f9e:    d125        %.      BNE      0xfec ; SPI_Open + 232
        0x00000fa0:    e7ff        ..      B        0xfa2 ; SPI_Open + 158
        0x00000fa2:    486b        kH      LDR      r0,[pc,#428] ; [0x1150] = 0x40000218
        0x00000fa4:    6800        .h      LDR      r0,[r0,#0]
        0x00000fa6:    0680        ..      LSLS     r0,r0,#26
        0x00000fa8:    0f80        ..      LSRS     r0,r0,#30
        0x00000faa:    b918        ..      CBNZ     r0,0xfb4 ; SPI_Open + 176
        0x00000fac:    e7ff        ..      B        0xfae ; SPI_Open + 170
        0x00000fae:    486a        jH      LDR      r0,[pc,#424] ; [0x1158] = 0xb71b00
        0x00000fb0:    9003        ..      STR      r0,[sp,#0xc]
        0x00000fb2:    e01a        ..      B        0xfea ; SPI_Open + 230
        0x00000fb4:    4866        fH      LDR      r0,[pc,#408] ; [0x1150] = 0x40000218
        0x00000fb6:    6800        .h      LDR      r0,[r0,#0]
        0x00000fb8:    2130        0!      MOVS     r1,#0x30
        0x00000fba:    4008        .@      ANDS     r0,r0,r1
        0x00000fbc:    2810        .(      CMP      r0,#0x10
        0x00000fbe:    d104        ..      BNE      0xfca ; SPI_Open + 198
        0x00000fc0:    e7ff        ..      B        0xfc2 ; SPI_Open + 190
        0x00000fc2:    f7fffdbb    ....    BL       CLK_GetPLLClockFreq ; 0xb3c
        0x00000fc6:    9003        ..      STR      r0,[sp,#0xc]
        0x00000fc8:    e00e        ..      B        0xfe8 ; SPI_Open + 228
        0x00000fca:    4861        aH      LDR      r0,[pc,#388] ; [0x1150] = 0x40000218
        0x00000fcc:    6800        .h      LDR      r0,[r0,#0]
        0x00000fce:    2130        0!      MOVS     r1,#0x30
        0x00000fd0:    4008        .@      ANDS     r0,r0,r1
        0x00000fd2:    2820         (      CMP      r0,#0x20
        0x00000fd4:    d104        ..      BNE      0xfe0 ; SPI_Open + 220
        0x00000fd6:    e7ff        ..      B        0xfd8 ; SPI_Open + 212
        0x00000fd8:    f7fffd6c    ..l.    BL       CLK_GetPCLK1Freq ; 0xab4
        0x00000fdc:    9003        ..      STR      r0,[sp,#0xc]
        0x00000fde:    e002        ..      B        0xfe6 ; SPI_Open + 226
        0x00000fe0:    485c        \H      LDR      r0,[pc,#368] ; [0x1154] = 0x2dc6c00
        0x00000fe2:    9003        ..      STR      r0,[sp,#0xc]
        0x00000fe4:    e7ff        ..      B        0xfe6 ; SPI_Open + 226
        0x00000fe6:    e7ff        ..      B        0xfe8 ; SPI_Open + 228
        0x00000fe8:    e7ff        ..      B        0xfea ; SPI_Open + 230
        0x00000fea:    e02a        *.      B        0x1042 ; SPI_Open + 318
        0x00000fec:    9807        ..      LDR      r0,[sp,#0x1c]
        0x00000fee:    4957        WI      LDR      r1,[pc,#348] ; [0x114c] = 0x40062000
        0x00000ff0:    4288        .B      CMP      r0,r1
        0x00000ff2:    d125        %.      BNE      0x1040 ; SPI_Open + 316
        0x00000ff4:    e7ff        ..      B        0xff6 ; SPI_Open + 242
        0x00000ff6:    4856        VH      LDR      r0,[pc,#344] ; [0x1150] = 0x40000218
        0x00000ff8:    6800        .h      LDR      r0,[r0,#0]
        0x00000ffa:    0600        ..      LSLS     r0,r0,#24
        0x00000ffc:    0f80        ..      LSRS     r0,r0,#30
        0x00000ffe:    b918        ..      CBNZ     r0,0x1008 ; SPI_Open + 260
        0x00001000:    e7ff        ..      B        0x1002 ; SPI_Open + 254
        0x00001002:    4855        UH      LDR      r0,[pc,#340] ; [0x1158] = 0xb71b00
        0x00001004:    9003        ..      STR      r0,[sp,#0xc]
        0x00001006:    e01a        ..      B        0x103e ; SPI_Open + 314
        0x00001008:    4851        QH      LDR      r0,[pc,#324] ; [0x1150] = 0x40000218
        0x0000100a:    6800        .h      LDR      r0,[r0,#0]
        0x0000100c:    21c0        .!      MOVS     r1,#0xc0
        0x0000100e:    4008        .@      ANDS     r0,r0,r1
        0x00001010:    2840        @(      CMP      r0,#0x40
        0x00001012:    d104        ..      BNE      0x101e ; SPI_Open + 282
        0x00001014:    e7ff        ..      B        0x1016 ; SPI_Open + 274
        0x00001016:    f7fffd91    ....    BL       CLK_GetPLLClockFreq ; 0xb3c
        0x0000101a:    9003        ..      STR      r0,[sp,#0xc]
        0x0000101c:    e00e        ..      B        0x103c ; SPI_Open + 312
        0x0000101e:    484c        LH      LDR      r0,[pc,#304] ; [0x1150] = 0x40000218
        0x00001020:    6800        .h      LDR      r0,[r0,#0]
        0x00001022:    21c0        .!      MOVS     r1,#0xc0
        0x00001024:    4008        .@      ANDS     r0,r0,r1
        0x00001026:    2880        .(      CMP      r0,#0x80
        0x00001028:    d104        ..      BNE      0x1034 ; SPI_Open + 304
        0x0000102a:    e7ff        ..      B        0x102c ; SPI_Open + 296
        0x0000102c:    f7fffd42    ..B.    BL       CLK_GetPCLK1Freq ; 0xab4
        0x00001030:    9003        ..      STR      r0,[sp,#0xc]
        0x00001032:    e002        ..      B        0x103a ; SPI_Open + 310
        0x00001034:    4847        GH      LDR      r0,[pc,#284] ; [0x1154] = 0x2dc6c00
        0x00001036:    9003        ..      STR      r0,[sp,#0xc]
        0x00001038:    e7ff        ..      B        0x103a ; SPI_Open + 310
        0x0000103a:    e7ff        ..      B        0x103c ; SPI_Open + 312
        0x0000103c:    e7ff        ..      B        0x103e ; SPI_Open + 314
        0x0000103e:    e7ff        ..      B        0x1040 ; SPI_Open + 316
        0x00001040:    e7ff        ..      B        0x1042 ; SPI_Open + 318
        0x00001042:    980a        ..      LDR      r0,[sp,#0x28]
        0x00001044:    9901        ..      LDR      r1,[sp,#4]
        0x00001046:    4288        .B      CMP      r0,r1
        0x00001048:    d306        ..      BCC      0x1058 ; SPI_Open + 340
        0x0000104a:    e7ff        ..      B        0x104c ; SPI_Open + 328
        0x0000104c:    9907        ..      LDR      r1,[sp,#0x1c]
        0x0000104e:    2000        .       MOVS     r0,#0
        0x00001050:    6048        H`      STR      r0,[r1,#4]
        0x00001052:    9803        ..      LDR      r0,[sp,#0xc]
        0x00001054:    9000        ..      STR      r0,[sp,#0]
        0x00001056:    e042        B.      B        0x10de ; SPI_Open + 474
        0x00001058:    980a        ..      LDR      r0,[sp,#0x28]
        0x0000105a:    9903        ..      LDR      r1,[sp,#0xc]
        0x0000105c:    4288        .B      CMP      r0,r1
        0x0000105e:    d306        ..      BCC      0x106e ; SPI_Open + 362
        0x00001060:    e7ff        ..      B        0x1062 ; SPI_Open + 350
        0x00001062:    9907        ..      LDR      r1,[sp,#0x1c]
        0x00001064:    2000        .       MOVS     r0,#0
        0x00001066:    6048        H`      STR      r0,[r1,#4]
        0x00001068:    9803        ..      LDR      r0,[sp,#0xc]
        0x0000106a:    9000        ..      STR      r0,[sp,#0]
        0x0000106c:    e036        6.      B        0x10dc ; SPI_Open + 472
        0x0000106e:    980a        ..      LDR      r0,[sp,#0x28]
        0x00001070:    b948        H.      CBNZ     r0,0x1086 ; SPI_Open + 386
        0x00001072:    e7ff        ..      B        0x1074 ; SPI_Open + 368
        0x00001074:    9907        ..      LDR      r1,[sp,#0x1c]
        0x00001076:    6848        Hh      LDR      r0,[r1,#4]
        0x00001078:    4a39        9J      LDR      r2,[pc,#228] ; [0x1160] = 0x1ff
        0x0000107a:    4310        .C      ORRS     r0,r0,r2
        0x0000107c:    6048        H`      STR      r0,[r1,#4]
        0x0000107e:    9803        ..      LDR      r0,[sp,#0xc]
        0x00001080:    0a40        @.      LSRS     r0,r0,#9
        0x00001082:    9000        ..      STR      r0,[sp,#0]
        0x00001084:    e029        ).      B        0x10da ; SPI_Open + 470
        0x00001086:    9a03        ..      LDR      r2,[sp,#0xc]
        0x00001088:    210a        .!      MOVS     r1,#0xa
        0x0000108a:    4608        .F      MOV      r0,r1
        0x0000108c:    4350        PC      MULS     r0,r2,r0
        0x0000108e:    9a0a        ..      LDR      r2,[sp,#0x28]
        0x00001090:    fbb0f0f2    ....    UDIV     r0,r0,r2
        0x00001094:    1d40        @.      ADDS     r0,r0,#5
        0x00001096:    fbb0f0f1    ....    UDIV     r0,r0,r1
        0x0000109a:    1e40        @.      SUBS     r0,r0,#1
        0x0000109c:    9002        ..      STR      r0,[sp,#8]
        0x0000109e:    9802        ..      LDR      r0,[sp,#8]
        0x000010a0:    0a40        @.      LSRS     r0,r0,#9
        0x000010a2:    b150        P.      CBZ      r0,0x10ba ; SPI_Open + 438
        0x000010a4:    e7ff        ..      B        0x10a6 ; SPI_Open + 418
        0x000010a6:    4a2e        .J      LDR      r2,[pc,#184] ; [0x1160] = 0x1ff
        0x000010a8:    9202        ..      STR      r2,[sp,#8]
        0x000010aa:    9907        ..      LDR      r1,[sp,#0x1c]
        0x000010ac:    6848        Hh      LDR      r0,[r1,#4]
        0x000010ae:    4310        .C      ORRS     r0,r0,r2
        0x000010b0:    6048        H`      STR      r0,[r1,#4]
        0x000010b2:    9803        ..      LDR      r0,[sp,#0xc]
        0x000010b4:    0a40        @.      LSRS     r0,r0,#9
        0x000010b6:    9000        ..      STR      r0,[sp,#0]
        0x000010b8:    e00e        ..      B        0x10d8 ; SPI_Open + 468
        0x000010ba:    9807        ..      LDR      r0,[sp,#0x1c]
        0x000010bc:    6840        @h      LDR      r0,[r0,#4]
        0x000010be:    4927        'I      LDR      r1,[pc,#156] ; [0x115c] = 0xfffffe00
        0x000010c0:    4008        .@      ANDS     r0,r0,r1
        0x000010c2:    9902        ..      LDR      r1,[sp,#8]
        0x000010c4:    4308        .C      ORRS     r0,r0,r1
        0x000010c6:    9907        ..      LDR      r1,[sp,#0x1c]
        0x000010c8:    6048        H`      STR      r0,[r1,#4]
        0x000010ca:    9803        ..      LDR      r0,[sp,#0xc]
        0x000010cc:    9902        ..      LDR      r1,[sp,#8]
        0x000010ce:    1c49        I.      ADDS     r1,r1,#1
        0x000010d0:    fbb0f0f1    ....    UDIV     r0,r0,r1
        0x000010d4:    9000        ..      STR      r0,[sp,#0]
        0x000010d6:    e7ff        ..      B        0x10d8 ; SPI_Open + 468
        0x000010d8:    e7ff        ..      B        0x10da ; SPI_Open + 470
        0x000010da:    e7ff        ..      B        0x10dc ; SPI_Open + 472
        0x000010dc:    e7ff        ..      B        0x10de ; SPI_Open + 474
        0x000010de:    e030        0.      B        0x1142 ; SPI_Open + 574
        0x000010e0:    9907        ..      LDR      r1,[sp,#0x1c]
        0x000010e2:    2000        .       MOVS     r0,#0
        0x000010e4:    6088        .`      STR      r0,[r1,#8]
        0x000010e6:    9906        ..      LDR      r1,[sp,#0x18]
        0x000010e8:    9a04        ..      LDR      r2,[sp,#0x10]
        0x000010ea:    0212        ..      LSLS     r2,r2,#8
        0x000010ec:    4311        .C      ORRS     r1,r1,r2
        0x000010ee:    9a05        ..      LDR      r2,[sp,#0x14]
        0x000010f0:    4311        .C      ORRS     r1,r1,r2
        0x000010f2:    2201        ."      MOVS     r2,#1
        0x000010f4:    4311        .C      ORRS     r1,r1,r2
        0x000010f6:    9a07        ..      LDR      r2,[sp,#0x1c]
        0x000010f8:    6011        .`      STR      r1,[r2,#0]
        0x000010fa:    9907        ..      LDR      r1,[sp,#0x1c]
        0x000010fc:    6048        H`      STR      r0,[r1,#4]
        0x000010fe:    9807        ..      LDR      r0,[sp,#0x1c]
        0x00001100:    4911        .I      LDR      r1,[pc,#68] ; [0x1148] = 0x40061000
        0x00001102:    4288        .B      CMP      r0,r1
        0x00001104:    d10b        ..      BNE      0x111e ; SPI_Open + 538
        0x00001106:    e7ff        ..      B        0x1108 ; SPI_Open + 516
        0x00001108:    4911        .I      LDR      r1,[pc,#68] ; [0x1150] = 0x40000218
        0x0000110a:    6808        .h      LDR      r0,[r1,#0]
        0x0000110c:    2220         "      MOVS     r2,#0x20
        0x0000110e:    4310        .C      ORRS     r0,r0,r2
        0x00001110:    2210        ."      MOVS     r2,#0x10
        0x00001112:    4390        .C      BICS     r0,r0,r2
        0x00001114:    6008        .`      STR      r0,[r1,#0]
        0x00001116:    f7fffccd    ....    BL       CLK_GetPCLK1Freq ; 0xab4
        0x0000111a:    9000        ..      STR      r0,[sp,#0]
        0x0000111c:    e010        ..      B        0x1140 ; SPI_Open + 572
        0x0000111e:    9807        ..      LDR      r0,[sp,#0x1c]
        0x00001120:    490a        .I      LDR      r1,[pc,#40] ; [0x114c] = 0x40062000
        0x00001122:    4288        .B      CMP      r0,r1
        0x00001124:    d10b        ..      BNE      0x113e ; SPI_Open + 570
        0x00001126:    e7ff        ..      B        0x1128 ; SPI_Open + 548
        0x00001128:    4909        .I      LDR      r1,[pc,#36] ; [0x1150] = 0x40000218
        0x0000112a:    6808        .h      LDR      r0,[r1,#0]
        0x0000112c:    2280        ."      MOVS     r2,#0x80
        0x0000112e:    4310        .C      ORRS     r0,r0,r2
        0x00001130:    2240        @"      MOVS     r2,#0x40
        0x00001132:    4390        .C      BICS     r0,r0,r2
        0x00001134:    6008        .`      STR      r0,[r1,#0]
        0x00001136:    f7fffcbd    ....    BL       CLK_GetPCLK1Freq ; 0xab4
        0x0000113a:    9000        ..      STR      r0,[sp,#0]
        0x0000113c:    e7ff        ..      B        0x113e ; SPI_Open + 570
        0x0000113e:    e7ff        ..      B        0x1140 ; SPI_Open + 572
        0x00001140:    e7ff        ..      B        0x1142 ; SPI_Open + 574
        0x00001142:    9800        ..      LDR      r0,[sp,#0]
        0x00001144:    b008        ..      ADD      sp,sp,#0x20
        0x00001146:    bd10        ..      POP      {r4,pc}
    $d.1
    __arm_cp.0_0
        0x00001148:    40061000    ...@    DCD    1074139136
    __arm_cp.0_1
        0x0000114c:    40062000    . .@    DCD    1074143232
    __arm_cp.0_2
        0x00001150:    40000218    ...@    DCD    1073742360
    __arm_cp.0_3
        0x00001154:    02dc6c00    .l..    DCD    48000000
    __arm_cp.0_4
        0x00001158:    00b71b00    ....    DCD    12000000
    __arm_cp.0_5
        0x0000115c:    fffffe00    ....    DCD    4294966784
    __arm_cp.0_6
        0x00001160:    000001ff    ....    DCD    511
    $t.5
    SVC_Handler
        0x00001164:    4770        pG      BX       lr
        0x00001166:    0000        ..      MOVS     r0,r0
    SYS_Init
        0x00001168:    b580        ..      PUSH     {r7,lr}
        0x0000116a:    b086        ..      SUB      sp,sp,#0x18
        0x0000116c:    f000f880    ....    BL       SYS_UnlockReg ; 0x1270
        0x00001170:    2004        .       MOVS     r0,#4
        0x00001172:    f7fffc4f    ..O.    BL       CLK_EnableXtalRC ; 0xa14
        0x00001176:    2010        .       MOVS     r0,#0x10
        0x00001178:    f7fffddc    ....    BL       CLK_WaitClockReady ; 0xd34
        0x0000117c:    f7fffc28    ..(.    BL       CLK_DisablePLL ; 0x9d0
        0x00001180:    2007        .       MOVS     r0,#7
        0x00001182:    2100        .!      MOVS     r1,#0
        0x00001184:    9105        ..      STR      r1,[sp,#0x14]
        0x00001186:    f7fffd31    ..1.    BL       CLK_SetHCLK ; 0xbec
        0x0000118a:    9805        ..      LDR      r0,[sp,#0x14]
        0x0000118c:    4927        'I      LDR      r1,[pc,#156] ; [0x122c] = 0x40000234
        0x0000118e:    6008        .`      STR      r0,[r1,#0]
        0x00001190:    200f        .       MOVS     r0,#0xf
        0x00001192:    f7fffc25    ..%.    BL       CLK_EnableModuleClock ; 0x9e0
        0x00001196:    4826        &H      LDR      r0,[pc,#152] ; [0x1230] = 0x40000008
        0x00001198:    f7fffc22    ..".    BL       CLK_EnableModuleClock ; 0x9e0
        0x0000119c:    2002        .       MOVS     r0,#2
        0x0000119e:    f7fffc1f    ....    BL       CLK_EnableModuleClock ; 0x9e0
        0x000011a2:    4824        $H      LDR      r0,[pc,#144] ; [0x1234] = 0x5e800002
        0x000011a4:    9001        ..      STR      r0,[sp,#4]
        0x000011a6:    f7fffc1b    ....    BL       CLK_EnableModuleClock ; 0x9e0
        0x000011aa:    4823        #H      LDR      r0,[pc,#140] ; [0x1238] = 0x5f803d10
        0x000011ac:    9002        ..      STR      r0,[sp,#8]
        0x000011ae:    f7fffc17    ....    BL       CLK_EnableModuleClock ; 0x9e0
        0x000011b2:    202b        +       MOVS     r0,#0x2b
        0x000011b4:    0640        @.      LSLS     r0,r0,#25
        0x000011b6:    9003        ..      STR      r0,[sp,#0xc]
        0x000011b8:    f7fffc12    ....    BL       CLK_EnableModuleClock ; 0x9e0
        0x000011bc:    481f        .H      LDR      r0,[pc,#124] ; [0x123c] = 0x56200000
        0x000011be:    9004        ..      STR      r0,[sp,#0x10]
        0x000011c0:    f7fffc0e    ....    BL       CLK_EnableModuleClock ; 0x9e0
        0x000011c4:    9801        ..      LDR      r0,[sp,#4]
        0x000011c6:    9a05        ..      LDR      r2,[sp,#0x14]
        0x000011c8:    f2407100    @..q    MOVW     r1,#0x700
        0x000011cc:    f7fffd3e    ..>.    BL       CLK_SetModuleClock ; 0xc4c
        0x000011d0:    9802        ..      LDR      r0,[sp,#8]
        0x000011d2:    9a05        ..      LDR      r2,[sp,#0x14]
        0x000011d4:    2101        .!      MOVS     r1,#1
        0x000011d6:    0689        ..      LSLS     r1,r1,#26
        0x000011d8:    f7fffd38    ..8.    BL       CLK_SetModuleClock ; 0xc4c
        0x000011dc:    9803        ..      LDR      r0,[sp,#0xc]
        0x000011de:    9a05        ..      LDR      r2,[sp,#0x14]
        0x000011e0:    2103        .!      MOVS     r1,#3
        0x000011e2:    f7fffd33    ..3.    BL       CLK_SetModuleClock ; 0xc4c
        0x000011e6:    9804        ..      LDR      r0,[sp,#0x10]
        0x000011e8:    9a05        ..      LDR      r2,[sp,#0x14]
        0x000011ea:    2108        .!      MOVS     r1,#8
        0x000011ec:    f7fffd2e    ....    BL       CLK_SetModuleClock ; 0xc4c
        0x000011f0:    f000f89a    ....    BL       SystemCoreClockUpdate ; 0x1328
        0x000011f4:    9805        ..      LDR      r0,[sp,#0x14]
        0x000011f6:    4912        .I      LDR      r1,[pc,#72] ; [0x1240] = 0x40000034
        0x000011f8:    6008        .`      STR      r0,[r1,#0]
        0x000011fa:    4912        .I      LDR      r1,[pc,#72] ; [0x1244] = 0x40000030
        0x000011fc:    6008        .`      STR      r0,[r1,#0]
        0x000011fe:    4912        .I      LDR      r1,[pc,#72] ; [0x1248] = 0x4000003c
        0x00001200:    6008        .`      STR      r0,[r1,#0]
        0x00001202:    4912        .I      LDR      r1,[pc,#72] ; [0x124c] = 0x40000038
        0x00001204:    6008        .`      STR      r0,[r1,#0]
        0x00001206:    4912        .I      LDR      r1,[pc,#72] ; [0x1250] = 0x40000044
        0x00001208:    6008        .`      STR      r0,[r1,#0]
        0x0000120a:    4a12        .J      LDR      r2,[pc,#72] ; [0x1254] = 0x40000040
        0x0000120c:    2199        .!      MOVS     r1,#0x99
        0x0000120e:    6011        .`      STR      r1,[r2,#0]
        0x00001210:    4911        .I      LDR      r1,[pc,#68] ; [0x1258] = 0x4000004c
        0x00001212:    6008        .`      STR      r0,[r1,#0]
        0x00001214:    4911        .I      LDR      r1,[pc,#68] ; [0x125c] = 0x40000048
        0x00001216:    6008        .`      STR      r0,[r1,#0]
        0x00001218:    4911        .I      LDR      r1,[pc,#68] ; [0x1260] = 0x4000005c
        0x0000121a:    6008        .`      STR      r0,[r1,#0]
        0x0000121c:    4911        .I      LDR      r1,[pc,#68] ; [0x1264] = 0x40000058
        0x0000121e:    20ee        .       MOVS     r0,#0xee
        0x00001220:    6008        .`      STR      r0,[r1,#0]
        0x00001222:    f000f9dd    ....    BL       Uart0DefaultMPF ; 0x15e0
        0x00001226:    b006        ..      ADD      sp,sp,#0x18
        0x00001228:    bd80        ..      POP      {r7,pc}
        0x0000122a:    46c0        .F      MOV      r8,r8
    $d.1
    __arm_cp.0_0
        0x0000122c:    40000234    4..@    DCD    1073742388
    __arm_cp.0_1
        0x00001230:    40000008    ...@    DCD    1073741832
    __arm_cp.0_2
        0x00001234:    5e800002    ...^    DCD    1585446914
    __arm_cp.0_3
        0x00001238:    5f803d10    .=._    DCD    1602239760
    __arm_cp.0_4
        0x0000123c:    56200000    .. V    DCD    1444937728
    __arm_cp.0_5
        0x00001240:    40000034    4..@    DCD    1073741876
    __arm_cp.0_6
        0x00001244:    40000030    0..@    DCD    1073741872
    __arm_cp.0_7
        0x00001248:    4000003c    <..@    DCD    1073741884
    __arm_cp.0_8
        0x0000124c:    40000038    8..@    DCD    1073741880
    __arm_cp.0_9
        0x00001250:    40000044    D..@    DCD    1073741892
    __arm_cp.0_10
        0x00001254:    40000040    @..@    DCD    1073741888
    __arm_cp.0_11
        0x00001258:    4000004c    L..@    DCD    1073741900
    __arm_cp.0_12
        0x0000125c:    40000048    H..@    DCD    1073741896
    __arm_cp.0_13
        0x00001260:    4000005c    \..@    DCD    1073741916
    __arm_cp.0_14
        0x00001264:    40000058    X..@    DCD    1073741912
    $t.8
    SYS_LockReg
        0x00001268:    4919        .I      LDR      r1,[pc,#100] ; [0x12d0] = 0x40000100
        0x0000126a:    2000        .       MOVS     r0,#0
        0x0000126c:    6008        .`      STR      r0,[r1,#0]
        0x0000126e:    4770        pG      BX       lr
    SYS_UnlockReg
        0x00001270:    e7ff        ..      B        0x1272 ; SYS_UnlockReg + 2
        0x00001272:    4917        .I      LDR      r1,[pc,#92] ; [0x12d0] = 0x40000100
        0x00001274:    2059        Y       MOVS     r0,#0x59
        0x00001276:    6008        .`      STR      r0,[r1,#0]
        0x00001278:    2016        .       MOVS     r0,#0x16
        0x0000127a:    6008        .`      STR      r0,[r1,#0]
        0x0000127c:    2088        .       MOVS     r0,#0x88
        0x0000127e:    6008        .`      STR      r0,[r1,#0]
        0x00001280:    e7ff        ..      B        0x1282 ; SYS_UnlockReg + 18
        0x00001282:    4813        .H      LDR      r0,[pc,#76] ; [0x12d0] = 0x40000100
        0x00001284:    6800        .h      LDR      r0,[r0,#0]
        0x00001286:    2800        .(      CMP      r0,#0
        0x00001288:    d0f3        ..      BEQ      0x1272 ; SYS_UnlockReg + 2
        0x0000128a:    e7ff        ..      B        0x128c ; SYS_UnlockReg + 28
        0x0000128c:    4770        pG      BX       lr
        0x0000128e:    46c0        .F      MOV      r8,r8
    SYS_UnlockReg
        0x00001290:    e7ff        ..      B        0x1292 ; SYS_UnlockReg + 2
        0x00001292:    490f        .I      LDR      r1,[pc,#60] ; [0x12d0] = 0x40000100
        0x00001294:    2059        Y       MOVS     r0,#0x59
        0x00001296:    6008        .`      STR      r0,[r1,#0]
        0x00001298:    2016        .       MOVS     r0,#0x16
        0x0000129a:    6008        .`      STR      r0,[r1,#0]
        0x0000129c:    2088        .       MOVS     r0,#0x88
        0x0000129e:    6008        .`      STR      r0,[r1,#0]
        0x000012a0:    e7ff        ..      B        0x12a2 ; SYS_UnlockReg + 18
        0x000012a2:    480b        .H      LDR      r0,[pc,#44] ; [0x12d0] = 0x40000100
        0x000012a4:    6800        .h      LDR      r0,[r0,#0]
        0x000012a6:    2800        .(      CMP      r0,#0
        0x000012a8:    d0f3        ..      BEQ      0x1292 ; SYS_UnlockReg + 2
        0x000012aa:    e7ff        ..      B        0x12ac ; SYS_UnlockReg + 28
        0x000012ac:    4770        pG      BX       lr
        0x000012ae:    46c0        .F      MOV      r8,r8
    SYS_UnlockReg
        0x000012b0:    e7ff        ..      B        0x12b2 ; SYS_UnlockReg + 2
        0x000012b2:    4907        .I      LDR      r1,[pc,#28] ; [0x12d0] = 0x40000100
        0x000012b4:    2059        Y       MOVS     r0,#0x59
        0x000012b6:    6008        .`      STR      r0,[r1,#0]
        0x000012b8:    2016        .       MOVS     r0,#0x16
        0x000012ba:    6008        .`      STR      r0,[r1,#0]
        0x000012bc:    2088        .       MOVS     r0,#0x88
        0x000012be:    6008        .`      STR      r0,[r1,#0]
        0x000012c0:    e7ff        ..      B        0x12c2 ; SYS_UnlockReg + 18
        0x000012c2:    4803        .H      LDR      r0,[pc,#12] ; [0x12d0] = 0x40000100
        0x000012c4:    6800        .h      LDR      r0,[r0,#0]
        0x000012c6:    2800        .(      CMP      r0,#0
        0x000012c8:    d0f3        ..      BEQ      0x12b2 ; SYS_UnlockReg + 2
        0x000012ca:    e7ff        ..      B        0x12cc ; SYS_UnlockReg + 28
        0x000012cc:    4770        pG      BX       lr
        0x000012ce:    46c0        .F      MOV      r8,r8
    $d.3
    __arm_cp.1_0
        0x000012d0:    40000100    ...@    DCD    1073742080
    $t.6
    SendChar
        0x000012d4:    b580        ..      PUSH     {r7,lr}
        0x000012d6:    b082        ..      SUB      sp,sp,#8
        0x000012d8:    9001        ..      STR      r0,[sp,#4]
        0x000012da:    9801        ..      LDR      r0,[sp,#4]
        0x000012dc:    f000f802    ....    BL       SendChar_ToUART ; 0x12e4
        0x000012e0:    b002        ..      ADD      sp,sp,#8
        0x000012e2:    bd80        ..      POP      {r7,pc}
    SendChar_ToUART
        0x000012e4:    b081        ..      SUB      sp,sp,#4
        0x000012e6:    9000        ..      STR      r0,[sp,#0]
        0x000012e8:    e7ff        ..      B        0x12ea ; SendChar_ToUART + 6
        0x000012ea:    480e        .H      LDR      r0,[pc,#56] ; [0x1324] = 0x40070018
        0x000012ec:    6800        .h      LDR      r0,[r0,#0]
        0x000012ee:    0200        ..      LSLS     r0,r0,#8
        0x000012f0:    2800        .(      CMP      r0,#0
        0x000012f2:    d501        ..      BPL      0x12f8 ; SendChar_ToUART + 20
        0x000012f4:    e7ff        ..      B        0x12f6 ; SendChar_ToUART + 18
        0x000012f6:    e7f8        ..      B        0x12ea ; SendChar_ToUART + 6
        0x000012f8:    4668        hF      MOV      r0,sp
        0x000012fa:    7800        .x      LDRB     r0,[r0,#0]
        0x000012fc:    280a        .(      CMP      r0,#0xa
        0x000012fe:    d10c        ..      BNE      0x131a ; SendChar_ToUART + 54
        0x00001300:    e7ff        ..      B        0x1302 ; SendChar_ToUART + 30
        0x00001302:    4993        .I      LDR      r1,[pc,#588] ; [0x1550] = 0x40070000
        0x00001304:    200d        .       MOVS     r0,#0xd
        0x00001306:    6008        .`      STR      r0,[r1,#0]
        0x00001308:    e7ff        ..      B        0x130a ; SendChar_ToUART + 38
        0x0000130a:    4806        .H      LDR      r0,[pc,#24] ; [0x1324] = 0x40070018
        0x0000130c:    6800        .h      LDR      r0,[r0,#0]
        0x0000130e:    0200        ..      LSLS     r0,r0,#8
        0x00001310:    2800        .(      CMP      r0,#0
        0x00001312:    d501        ..      BPL      0x1318 ; SendChar_ToUART + 52
        0x00001314:    e7ff        ..      B        0x1316 ; SendChar_ToUART + 50
        0x00001316:    e7f8        ..      B        0x130a ; SendChar_ToUART + 38
        0x00001318:    e7ff        ..      B        0x131a ; SendChar_ToUART + 54
        0x0000131a:    9800        ..      LDR      r0,[sp,#0]
        0x0000131c:    498c        .I      LDR      r1,[pc,#560] ; [0x1550] = 0x40070000
        0x0000131e:    6008        .`      STR      r0,[r1,#0]
        0x00001320:    b001        ..      ADD      sp,sp,#4
        0x00001322:    4770        pG      BX       lr
    $d.5
    __arm_cp.3_0
        0x00001324:    40070018    ...@    DCD    1074200600
    $t.0
    SystemCoreClockUpdate
        0x00001328:    b580        ..      PUSH     {r7,lr}
        0x0000132a:    b084        ..      SUB      sp,sp,#0x10
        0x0000132c:    4816        .H      LDR      r0,[pc,#88] ; [0x1388] = 0x40000210
        0x0000132e:    6800        .h      LDR      r0,[r0,#0]
        0x00001330:    2107        .!      MOVS     r1,#7
        0x00001332:    4008        .@      ANDS     r0,r0,r1
        0x00001334:    9002        ..      STR      r0,[sp,#8]
        0x00001336:    f7fffc01    ....    BL       CLK_GetPLLClockFreq ; 0xb3c
        0x0000133a:    4914        .I      LDR      r1,[pc,#80] ; [0x138c] = 0x20000008
        0x0000133c:    6008        .`      STR      r0,[r1,#0]
        0x0000133e:    9802        ..      LDR      r0,[sp,#8]
        0x00001340:    2802        .(      CMP      r0,#2
        0x00001342:    d006        ..      BEQ      0x1352 ; SystemCoreClockUpdate + 42
        0x00001344:    e7ff        ..      B        0x1346 ; SystemCoreClockUpdate + 30
        0x00001346:    9802        ..      LDR      r0,[sp,#8]
        0x00001348:    0081        ..      LSLS     r1,r0,#2
        0x0000134a:    4811        .H      LDR      r0,[pc,#68] ; [0x1390] = 0x509c
        0x0000134c:    5840        @X      LDR      r0,[r0,r1]
        0x0000134e:    9003        ..      STR      r0,[sp,#0xc]
        0x00001350:    e003        ..      B        0x135a ; SystemCoreClockUpdate + 50
        0x00001352:    480e        .H      LDR      r0,[pc,#56] ; [0x138c] = 0x20000008
        0x00001354:    6800        .h      LDR      r0,[r0,#0]
        0x00001356:    9003        ..      STR      r0,[sp,#0xc]
        0x00001358:    e7ff        ..      B        0x135a ; SystemCoreClockUpdate + 50
        0x0000135a:    4884        .H      LDR      r0,[pc,#528] ; [0x156c] = 0x40000220
        0x0000135c:    6800        .h      LDR      r0,[r0,#0]
        0x0000135e:    210f        .!      MOVS     r1,#0xf
        0x00001360:    4008        .@      ANDS     r0,r0,r1
        0x00001362:    1c40        @.      ADDS     r0,r0,#1
        0x00001364:    9001        ..      STR      r0,[sp,#4]
        0x00001366:    9803        ..      LDR      r0,[sp,#0xc]
        0x00001368:    9901        ..      LDR      r1,[sp,#4]
        0x0000136a:    fbb0f1f1    ....    UDIV     r1,r0,r1
        0x0000136e:    4809        .H      LDR      r0,[pc,#36] ; [0x1394] = 0x2000000c
        0x00001370:    6001        .`      STR      r1,[r0,#0]
        0x00001372:    6800        .h      LDR      r0,[r0,#0]
        0x00001374:    4908        .I      LDR      r1,[pc,#32] ; [0x1398] = 0x7a120
        0x00001376:    1840        @.      ADDS     r0,r0,r1
        0x00001378:    4908        .I      LDR      r1,[pc,#32] ; [0x139c] = 0xf4240
        0x0000137a:    fbb0f0f1    ....    UDIV     r0,r0,r1
        0x0000137e:    4908        .I      LDR      r1,[pc,#32] ; [0x13a0] = 0x20000004
        0x00001380:    6008        .`      STR      r0,[r1,#0]
        0x00001382:    b004        ..      ADD      sp,sp,#0x10
        0x00001384:    bd80        ..      POP      {r7,pc}
        0x00001386:    46c0        .F      MOV      r8,r8
    $d.1
    __arm_cp.0_0
        0x00001388:    40000210    ...@    DCD    1073742352
    __arm_cp.0_1
        0x0000138c:    20000008    ...     DCD    536870920
    __arm_cp.0_2
        0x00001390:    0000509c    .P..    DCD    20636
    __arm_cp.0_4
        0x00001394:    2000000c    ...     DCD    536870924
    __arm_cp.0_5
        0x00001398:    0007a120     ...    DCD    500000
    __arm_cp.0_6
        0x0000139c:    000f4240    @B..    DCD    1000000
    __arm_cp.0_7
        0x000013a0:    20000004    ...     DCD    536870916
    $t.2
    SystemInit
        0x000013a4:    4905        .I      LDR      r1,[pc,#20] ; [0x13bc] = 0x4000c04c
        0x000013a6:    6808        .h      LDR      r0,[r1,#0]
        0x000013a8:    f2401203    @...    MOV      r2,#0x103
        0x000013ac:    4310        .C      ORRS     r0,r0,r2
        0x000013ae:    220c        ."      MOVS     r2,#0xc
        0x000013b0:    4390        .C      BICS     r0,r0,r2
        0x000013b2:    6008        .`      STR      r0,[r1,#0]
        0x000013b4:    4802        .H      LDR      r0,[pc,#8] ; [0x13c0] = 0
        0x000013b6:    4903        .I      LDR      r1,[pc,#12] ; [0x13c4] = 0xe000ed08
        0x000013b8:    6008        .`      STR      r0,[r1,#0]
        0x000013ba:    4770        pG      BX       lr
    $d.3
    __arm_cp.1_0
        0x000013bc:    4000c04c    L..@    DCD    1073791052
    __arm_cp.1_1
        0x000013c0:    00000000    ....    DCD    0
    __arm_cp.1_2
        0x000013c4:    e000ed08    ....    DCD    3758157064
    $t.9
    UART1_IRQHandler
        0x000013c8:    4770        pG      BX       lr
    UART2_IRQHandler
        0x000013ca:    4770        pG      BX       lr
    UART_Open
        0x000013cc:    b510        ..      PUSH     {r4,lr}
        0x000013ce:    b08c        ..      SUB      sp,sp,#0x30
        0x000013d0:    900b        ..      STR      r0,[sp,#0x2c]
        0x000013d2:    910a        ..      STR      r1,[sp,#0x28]
        0x000013d4:    2000        .       MOVS     r0,#0
        0x000013d6:    9009        ..      STR      r0,[sp,#0x24]
        0x000013d8:    9008        ..      STR      r0,[sp,#0x20]
        0x000013da:    495c        \I      LDR      r1,[pc,#368] ; [0x154c] = 0x5030
        0x000013dc:    a802        ..      ADD      r0,sp,#8
        0x000013de:    c91c        ..      LDM      r1!,{r2-r4}
        0x000013e0:    c01c        ..      STM      r0!,{r2-r4}
        0x000013e2:    c91c        ..      LDM      r1!,{r2-r4}
        0x000013e4:    c01c        ..      STM      r0!,{r2-r4}
        0x000013e6:    980b        ..      LDR      r0,[sp,#0x2c]
        0x000013e8:    4959        YI      LDR      r1,[pc,#356] ; [0x1550] = 0x40070000
        0x000013ea:    4288        .B      CMP      r0,r1
        0x000013ec:    d10f        ..      BNE      0x140e ; UART_Open + 66
        0x000013ee:    e7ff        ..      B        0x13f0 ; UART_Open + 36
        0x000013f0:    485d        ]H      LDR      r0,[pc,#372] ; [0x1568] = 0x40000214
        0x000013f2:    6800        .h      LDR      r0,[r0,#0]
        0x000013f4:    2107        .!      MOVS     r1,#7
        0x000013f6:    0609        ..      LSLS     r1,r1,#24
        0x000013f8:    4008        .@      ANDS     r0,r0,r1
        0x000013fa:    0e00        ..      LSRS     r0,r0,#24
        0x000013fc:    9009        ..      STR      r0,[sp,#0x24]
        0x000013fe:    485b        [H      LDR      r0,[pc,#364] ; [0x156c] = 0x40000220
        0x00001400:    6800        .h      LDR      r0,[r0,#0]
        0x00001402:    f6407100    @..q    MOVW     r1,#0xf00
        0x00001406:    4008        .@      ANDS     r0,r0,r1
        0x00001408:    0a00        ..      LSRS     r0,r0,#8
        0x0000140a:    9008        ..      STR      r0,[sp,#0x20]
        0x0000140c:    e038        8.      B        0x1480 ; UART_Open + 180
        0x0000140e:    980b        ..      LDR      r0,[sp,#0x2c]
        0x00001410:    4950        PI      LDR      r1,[pc,#320] ; [0x1554] = 0x40071000
        0x00001412:    4288        .B      CMP      r0,r1
        0x00001414:    d10d        ..      BNE      0x1432 ; UART_Open + 102
        0x00001416:    e7ff        ..      B        0x1418 ; UART_Open + 76
        0x00001418:    4853        SH      LDR      r0,[pc,#332] ; [0x1568] = 0x40000214
        0x0000141a:    6800        .h      LDR      r0,[r0,#0]
        0x0000141c:    2107        .!      MOVS     r1,#7
        0x0000141e:    0709        ..      LSLS     r1,r1,#28
        0x00001420:    4008        .@      ANDS     r0,r0,r1
        0x00001422:    0f00        ..      LSRS     r0,r0,#28
        0x00001424:    9009        ..      STR      r0,[sp,#0x24]
        0x00001426:    4851        QH      LDR      r0,[pc,#324] ; [0x156c] = 0x40000220
        0x00001428:    6800        .h      LDR      r0,[r0,#0]
        0x0000142a:    b280        ..      UXTH     r0,r0
        0x0000142c:    0b00        ..      LSRS     r0,r0,#12
        0x0000142e:    9008        ..      STR      r0,[sp,#0x20]
        0x00001430:    e025        %.      B        0x147e ; UART_Open + 178
        0x00001432:    980b        ..      LDR      r0,[sp,#0x2c]
        0x00001434:    4948        HI      LDR      r1,[pc,#288] ; [0x1558] = 0x40072000
        0x00001436:    4288        .B      CMP      r0,r1
        0x00001438:    d10d        ..      BNE      0x1456 ; UART_Open + 138
        0x0000143a:    e7ff        ..      B        0x143c ; UART_Open + 112
        0x0000143c:    4848        HH      LDR      r0,[pc,#288] ; [0x1560] = 0x4000021c
        0x0000143e:    6800        .h      LDR      r0,[r0,#0]
        0x00001440:    2107        .!      MOVS     r1,#7
        0x00001442:    0609        ..      LSLS     r1,r1,#24
        0x00001444:    4008        .@      ANDS     r0,r0,r1
        0x00001446:    0e00        ..      LSRS     r0,r0,#24
        0x00001448:    9009        ..      STR      r0,[sp,#0x24]
        0x0000144a:    4846        FH      LDR      r0,[pc,#280] ; [0x1564] = 0x40000230
        0x0000144c:    6800        .h      LDR      r0,[r0,#0]
        0x0000144e:    210f        .!      MOVS     r1,#0xf
        0x00001450:    4008        .@      ANDS     r0,r0,r1
        0x00001452:    9008        ..      STR      r0,[sp,#0x20]
        0x00001454:    e012        ..      B        0x147c ; UART_Open + 176
        0x00001456:    980b        ..      LDR      r0,[sp,#0x2c]
        0x00001458:    4940        @I      LDR      r1,[pc,#256] ; [0x155c] = 0x40073000
        0x0000145a:    4288        .B      CMP      r0,r1
        0x0000145c:    d10d        ..      BNE      0x147a ; UART_Open + 174
        0x0000145e:    e7ff        ..      B        0x1460 ; UART_Open + 148
        0x00001460:    483f        ?H      LDR      r0,[pc,#252] ; [0x1560] = 0x4000021c
        0x00001462:    6800        .h      LDR      r0,[r0,#0]
        0x00001464:    2107        .!      MOVS     r1,#7
        0x00001466:    0709        ..      LSLS     r1,r1,#28
        0x00001468:    4008        .@      ANDS     r0,r0,r1
        0x0000146a:    0f00        ..      LSRS     r0,r0,#28
        0x0000146c:    9009        ..      STR      r0,[sp,#0x24]
        0x0000146e:    483d        =H      LDR      r0,[pc,#244] ; [0x1564] = 0x40000230
        0x00001470:    6800        .h      LDR      r0,[r0,#0]
        0x00001472:    b2c0        ..      UXTB     r0,r0
        0x00001474:    0900        ..      LSRS     r0,r0,#4
        0x00001476:    9008        ..      STR      r0,[sp,#0x20]
        0x00001478:    e7ff        ..      B        0x147a ; UART_Open + 174
        0x0000147a:    e7ff        ..      B        0x147c ; UART_Open + 176
        0x0000147c:    e7ff        ..      B        0x147e ; UART_Open + 178
        0x0000147e:    e7ff        ..      B        0x1480 ; UART_Open + 180
        0x00001480:    990b        ..      LDR      r1,[sp,#0x2c]
        0x00001482:    2000        .       MOVS     r0,#0
        0x00001484:    6308        .c      STR      r0,[r1,#0x30]
        0x00001486:    990b        ..      LDR      r1,[sp,#0x2c]
        0x00001488:    2003        .       MOVS     r0,#3
        0x0000148a:    60c8        .`      STR      r0,[r1,#0xc]
        0x0000148c:    990b        ..      LDR      r1,[sp,#0x2c]
        0x0000148e:    6888        .h      LDR      r0,[r1,#8]
        0x00001490:    4a37        7J      LDR      r2,[pc,#220] ; [0x1570] = 0xfff0ff0f
        0x00001492:    4010        .@      ANDS     r0,r0,r2
        0x00001494:    6088        .`      STR      r0,[r1,#8]
        0x00001496:    9809        ..      LDR      r0,[sp,#0x24]
        0x00001498:    2801        .(      CMP      r0,#1
        0x0000149a:    d107        ..      BNE      0x14ac ; UART_Open + 224
        0x0000149c:    e7ff        ..      B        0x149e ; UART_Open + 210
        0x0000149e:    f7fffb4d    ..M.    BL       CLK_GetPLLClockFreq ; 0xb3c
        0x000014a2:    9909        ..      LDR      r1,[sp,#0x24]
        0x000014a4:    008a        ..      LSLS     r2,r1,#2
        0x000014a6:    a902        ..      ADD      r1,sp,#8
        0x000014a8:    5088        .P      STR      r0,[r1,r2]
        0x000014aa:    e7ff        ..      B        0x14ac ; UART_Open + 224
        0x000014ac:    9809        ..      LDR      r0,[sp,#0x24]
        0x000014ae:    2804        .(      CMP      r0,#4
        0x000014b0:    d119        ..      BNE      0x14e6 ; UART_Open + 282
        0x000014b2:    e7ff        ..      B        0x14b4 ; UART_Open + 232
        0x000014b4:    980b        ..      LDR      r0,[sp,#0x2c]
        0x000014b6:    4926        &I      LDR      r1,[pc,#152] ; [0x1550] = 0x40070000
        0x000014b8:    4288        .B      CMP      r0,r1
        0x000014ba:    d005        ..      BEQ      0x14c8 ; UART_Open + 252
        0x000014bc:    e7ff        ..      B        0x14be ; UART_Open + 242
        0x000014be:    980b        ..      LDR      r0,[sp,#0x2c]
        0x000014c0:    4925        %I      LDR      r1,[pc,#148] ; [0x1558] = 0x40072000
        0x000014c2:    4288        .B      CMP      r0,r1
        0x000014c4:    d107        ..      BNE      0x14d6 ; UART_Open + 266
        0x000014c6:    e7ff        ..      B        0x14c8 ; UART_Open + 252
        0x000014c8:    f7fffab4    ....    BL       CLK_GetPCLK0Freq ; 0xa34
        0x000014cc:    9909        ..      LDR      r1,[sp,#0x24]
        0x000014ce:    008a        ..      LSLS     r2,r1,#2
        0x000014d0:    a902        ..      ADD      r1,sp,#8
        0x000014d2:    5088        .P      STR      r0,[r1,r2]
        0x000014d4:    e006        ..      B        0x14e4 ; UART_Open + 280
        0x000014d6:    f7fffaed    ....    BL       CLK_GetPCLK1Freq ; 0xab4
        0x000014da:    9909        ..      LDR      r1,[sp,#0x24]
        0x000014dc:    008a        ..      LSLS     r2,r1,#2
        0x000014de:    a902        ..      ADD      r1,sp,#8
        0x000014e0:    5088        .P      STR      r0,[r1,r2]
        0x000014e2:    e7ff        ..      B        0x14e4 ; UART_Open + 280
        0x000014e4:    e7ff        ..      B        0x14e6 ; UART_Open + 282
        0x000014e6:    980a        ..      LDR      r0,[sp,#0x28]
        0x000014e8:    b368        h.      CBZ      r0,0x1546 ; UART_Open + 378
        0x000014ea:    e7ff        ..      B        0x14ec ; UART_Open + 288
        0x000014ec:    9809        ..      LDR      r0,[sp,#0x24]
        0x000014ee:    0081        ..      LSLS     r1,r0,#2
        0x000014f0:    a802        ..      ADD      r0,sp,#8
        0x000014f2:    5840        @X      LDR      r0,[r0,r1]
        0x000014f4:    9908        ..      LDR      r1,[sp,#0x20]
        0x000014f6:    1c49        I.      ADDS     r1,r1,#1
        0x000014f8:    fbb0f0f1    ....    UDIV     r0,r0,r1
        0x000014fc:    990a        ..      LDR      r1,[sp,#0x28]
        0x000014fe:    084a        J.      LSRS     r2,r1,#1
        0x00001500:    1880        ..      ADDS     r0,r0,r2
        0x00001502:    fbb0f0f1    ....    UDIV     r0,r0,r1
        0x00001506:    1e80        ..      SUBS     r0,r0,#2
        0x00001508:    9001        ..      STR      r0,[sp,#4]
        0x0000150a:    a801        ..      ADD      r0,sp,#4
        0x0000150c:    8840        @.      LDRH     r0,[r0,#2]
        0x0000150e:    b190        ..      CBZ      r0,0x1536 ; UART_Open + 362
        0x00001510:    e7ff        ..      B        0x1512 ; UART_Open + 326
        0x00001512:    9809        ..      LDR      r0,[sp,#0x24]
        0x00001514:    0081        ..      LSLS     r1,r0,#2
        0x00001516:    a802        ..      ADD      r0,sp,#8
        0x00001518:    5840        @X      LDR      r0,[r0,r1]
        0x0000151a:    9908        ..      LDR      r1,[sp,#0x20]
        0x0000151c:    1c49        I.      ADDS     r1,r1,#1
        0x0000151e:    fbb0f0f1    ....    UDIV     r0,r0,r1
        0x00001522:    990a        ..      LDR      r1,[sp,#0x28]
        0x00001524:    00ca        ..      LSLS     r2,r1,#3
        0x00001526:    1880        ..      ADDS     r0,r0,r2
        0x00001528:    fbb0f0f1    ....    UDIV     r0,r0,r1
        0x0000152c:    0900        ..      LSRS     r0,r0,#4
        0x0000152e:    1e80        ..      SUBS     r0,r0,#2
        0x00001530:    990b        ..      LDR      r1,[sp,#0x2c]
        0x00001532:    6248        Hb      STR      r0,[r1,#0x24]
        0x00001534:    e006        ..      B        0x1544 ; UART_Open + 376
        0x00001536:    9801        ..      LDR      r0,[sp,#4]
        0x00001538:    2103        .!      MOVS     r1,#3
        0x0000153a:    0709        ..      LSLS     r1,r1,#28
        0x0000153c:    4308        .C      ORRS     r0,r0,r1
        0x0000153e:    990b        ..      LDR      r1,[sp,#0x2c]
        0x00001540:    6248        Hb      STR      r0,[r1,#0x24]
        0x00001542:    e7ff        ..      B        0x1544 ; UART_Open + 376
        0x00001544:    e7ff        ..      B        0x1546 ; UART_Open + 378
        0x00001546:    b00c        ..      ADD      sp,sp,#0x30
        0x00001548:    bd10        ..      POP      {r4,pc}
        0x0000154a:    46c0        .F      MOV      r8,r8
    $d.8
    __arm_cp.6_0
        0x0000154c:    00005030    0P..    DCD    20528
    __arm_cp.6_1
        0x00001550:    40070000    ...@    DCD    1074200576
    __arm_cp.6_2
        0x00001554:    40071000    ...@    DCD    1074204672
    __arm_cp.6_3
        0x00001558:    40072000    . .@    DCD    1074208768
    __arm_cp.6_4
        0x0000155c:    40073000    .0.@    DCD    1074212864
    __arm_cp.6_5
        0x00001560:    4000021c    ...@    DCD    1073742364
    __arm_cp.6_6
        0x00001564:    40000230    0..@    DCD    1073742384
    __arm_cp.6_7
        0x00001568:    40000214    ...@    DCD    1073742356
    __arm_cp.6_8
        0x0000156c:    40000220     ..@    DCD    1073742368
    __arm_cp.6_9
        0x00001570:    fff0ff0f    ....    DCD    4293984015
    $t.18
    UART_Write
        0x00001574:    b086        ..      SUB      sp,sp,#0x18
        0x00001576:    9005        ..      STR      r0,[sp,#0x14]
        0x00001578:    9104        ..      STR      r1,[sp,#0x10]
        0x0000157a:    9203        ..      STR      r2,[sp,#0xc]
        0x0000157c:    2000        .       MOVS     r0,#0
        0x0000157e:    9001        ..      STR      r0,[sp,#4]
        0x00001580:    9002        ..      STR      r0,[sp,#8]
        0x00001582:    e7ff        ..      B        0x1584 ; UART_Write + 16
        0x00001584:    9802        ..      LDR      r0,[sp,#8]
        0x00001586:    9903        ..      LDR      r1,[sp,#0xc]
        0x00001588:    4288        .B      CMP      r0,r1
        0x0000158a:    d025        %.      BEQ      0x15d8 ; UART_Write + 100
        0x0000158c:    e7ff        ..      B        0x158e ; UART_Write + 26
        0x0000158e:    2000        .       MOVS     r0,#0
        0x00001590:    9000        ..      STR      r0,[sp,#0]
        0x00001592:    e7ff        ..      B        0x1594 ; UART_Write + 32
        0x00001594:    9805        ..      LDR      r0,[sp,#0x14]
        0x00001596:    6980        .i      LDR      r0,[r0,#0x18]
        0x00001598:    0200        ..      LSLS     r0,r0,#8
        0x0000159a:    2800        .(      CMP      r0,#0
        0x0000159c:    d50c        ..      BPL      0x15b8 ; UART_Write + 68
        0x0000159e:    e7ff        ..      B        0x15a0 ; UART_Write + 44
        0x000015a0:    9800        ..      LDR      r0,[sp,#0]
        0x000015a2:    1c40        @.      ADDS     r0,r0,#1
        0x000015a4:    9000        ..      STR      r0,[sp,#0]
        0x000015a6:    9800        ..      LDR      r0,[sp,#0]
        0x000015a8:    0f80        ..      LSRS     r0,r0,#30
        0x000015aa:    b118        ..      CBZ      r0,0x15b4 ; UART_Write + 64
        0x000015ac:    e7ff        ..      B        0x15ae ; UART_Write + 58
        0x000015ae:    2001        .       MOVS     r0,#1
        0x000015b0:    9001        ..      STR      r0,[sp,#4]
        0x000015b2:    e001        ..      B        0x15b8 ; UART_Write + 68
        0x000015b4:    e7ff        ..      B        0x15b6 ; UART_Write + 66
        0x000015b6:    e7ed        ..      B        0x1594 ; UART_Write + 32
        0x000015b8:    9801        ..      LDR      r0,[sp,#4]
        0x000015ba:    2801        .(      CMP      r0,#1
        0x000015bc:    d101        ..      BNE      0x15c2 ; UART_Write + 78
        0x000015be:    e7ff        ..      B        0x15c0 ; UART_Write + 76
        0x000015c0:    e00a        ..      B        0x15d8 ; UART_Write + 100
        0x000015c2:    9804        ..      LDR      r0,[sp,#0x10]
        0x000015c4:    9902        ..      LDR      r1,[sp,#8]
        0x000015c6:    5c40        @\      LDRB     r0,[r0,r1]
        0x000015c8:    9905        ..      LDR      r1,[sp,#0x14]
        0x000015ca:    6008        .`      STR      r0,[r1,#0]
        0x000015cc:    e7ff        ..      B        0x15ce ; UART_Write + 90
        0x000015ce:    e7ff        ..      B        0x15d0 ; UART_Write + 92
        0x000015d0:    9802        ..      LDR      r0,[sp,#8]
        0x000015d2:    1c40        @.      ADDS     r0,r0,#1
        0x000015d4:    9002        ..      STR      r0,[sp,#8]
        0x000015d6:    e7d5        ..      B        0x1584 ; UART_Write + 16
        0x000015d8:    9802        ..      LDR      r0,[sp,#8]
        0x000015da:    b006        ..      ADD      sp,sp,#0x18
        0x000015dc:    4770        pG      BX       lr
        0x000015de:    0000        ..      MOVS     r0,r0
    Uart0DefaultMPF
        0x000015e0:    b510        ..      PUSH     {r4,lr}
        0x000015e2:    4908        .I      LDR      r1,[pc,#32] ; [0x1604] = 0x4000003c
        0x000015e4:    6808        .h      LDR      r0,[r1,#0]
        0x000015e6:    230f        .#      MOVS     r3,#0xf
        0x000015e8:    041a        ..      LSLS     r2,r3,#16
        0x000015ea:    4390        .C      BICS     r0,r0,r2
        0x000015ec:    2203        ."      MOVS     r2,#3
        0x000015ee:    0454        T.      LSLS     r4,r2,#17
        0x000015f0:    1900        ..      ADDS     r0,r0,r4
        0x000015f2:    6008        .`      STR      r0,[r1,#0]
        0x000015f4:    6808        .h      LDR      r0,[r1,#0]
        0x000015f6:    051b        ..      LSLS     r3,r3,#20
        0x000015f8:    4398        .C      BICS     r0,r0,r3
        0x000015fa:    0552        R.      LSLS     r2,r2,#21
        0x000015fc:    1880        ..      ADDS     r0,r0,r2
        0x000015fe:    6008        .`      STR      r0,[r1,#0]
        0x00001600:    bd10        ..      POP      {r4,pc}
        0x00001602:    46c0        .F      MOV      r8,r8
    $d.5
    __arm_cp.2_0
        0x00001604:    4000003c    <..@    DCD    1073741884
    $t.4
    a_spi_cs_init
        0x00001608:    b580        ..      PUSH     {r7,lr}
        0x0000160a:    4804        .H      LDR      r0,[pc,#16] ; [0x161c] = 0x40004040
        0x0000160c:    f2410100    A...    MOVW     r1,#0x1000
        0x00001610:    2201        ."      MOVS     r2,#1
        0x00001612:    f7fffbbf    ....    BL       GPIO_SetMode ; 0xd94
        0x00001616:    2000        .       MOVS     r0,#0
        0x00001618:    bd80        ..      POP      {r7,pc}
        0x0000161a:    46c0        .F      MOV      r8,r8
    $d.5
    __arm_cp.2_0
        0x0000161c:    40004040    @@.@    DCD    1073758272
    $t.98
    a_st7789_draw_point
        0x00001620:    b510        ..      PUSH     {r4,lr}
        0x00001622:    b086        ..      SUB      sp,sp,#0x18
        0x00001624:    9004        ..      STR      r0,[sp,#0x10]
        0x00001626:    a803        ..      ADD      r0,sp,#0xc
        0x00001628:    8001        ..      STRH     r1,[r0,#0]
        0x0000162a:    a802        ..      ADD      r0,sp,#8
        0x0000162c:    8002        ..      STRH     r2,[r0,#0]
        0x0000162e:    9301        ..      STR      r3,[sp,#4]
        0x00001630:    9804        ..      LDR      r0,[sp,#0x10]
        0x00001632:    212a        *!      MOVS     r1,#0x2a
        0x00001634:    2200        ."      MOVS     r2,#0
        0x00001636:    f000f977    ..w.    BL       a_st7789_write_byte ; 0x1928
        0x0000163a:    b120         .      CBZ      r0,0x1646 ; a_st7789_draw_point + 38
        0x0000163c:    e7ff        ..      B        0x163e ; a_st7789_draw_point + 30
        0x0000163e:    a905        ..      ADD      r1,sp,#0x14
        0x00001640:    2001        .       MOVS     r0,#1
        0x00001642:    7008        .p      STRB     r0,[r1,#0]
        0x00001644:    e0b0        ..      B        0x17a8 ; a_st7789_draw_point + 392
        0x00001646:    a803        ..      ADD      r0,sp,#0xc
        0x00001648:    7842        Bx      LDRB     r2,[r0,#1]
        0x0000164a:    4669        iF      MOV      r1,sp
        0x0000164c:    700a        .p      STRB     r2,[r1,#0]
        0x0000164e:    9a03        ..      LDR      r2,[sp,#0xc]
        0x00001650:    704a        Jp      STRB     r2,[r1,#1]
        0x00001652:    7840        @x      LDRB     r0,[r0,#1]
        0x00001654:    7088        .p      STRB     r0,[r1,#2]
        0x00001656:    9803        ..      LDR      r0,[sp,#0xc]
        0x00001658:    70c8        .p      STRB     r0,[r1,#3]
        0x0000165a:    9804        ..      LDR      r0,[sp,#0x10]
        0x0000165c:    2204        ."      MOVS     r2,#4
        0x0000165e:    2301        .#      MOVS     r3,#1
        0x00001660:    f000f98e    ....    BL       a_st7789_write_bytes ; 0x1980
        0x00001664:    b120         .      CBZ      r0,0x1670 ; a_st7789_draw_point + 80
        0x00001666:    e7ff        ..      B        0x1668 ; a_st7789_draw_point + 72
        0x00001668:    a905        ..      ADD      r1,sp,#0x14
        0x0000166a:    2001        .       MOVS     r0,#1
        0x0000166c:    7008        .p      STRB     r0,[r1,#0]
        0x0000166e:    e09b        ..      B        0x17a8 ; a_st7789_draw_point + 392
        0x00001670:    9804        ..      LDR      r0,[sp,#0x10]
        0x00001672:    212b        +!      MOVS     r1,#0x2b
        0x00001674:    2200        ."      MOVS     r2,#0
        0x00001676:    f000f957    ..W.    BL       a_st7789_write_byte ; 0x1928
        0x0000167a:    b120         .      CBZ      r0,0x1686 ; a_st7789_draw_point + 102
        0x0000167c:    e7ff        ..      B        0x167e ; a_st7789_draw_point + 94
        0x0000167e:    a905        ..      ADD      r1,sp,#0x14
        0x00001680:    2001        .       MOVS     r0,#1
        0x00001682:    7008        .p      STRB     r0,[r1,#0]
        0x00001684:    e090        ..      B        0x17a8 ; a_st7789_draw_point + 392
        0x00001686:    a802        ..      ADD      r0,sp,#8
        0x00001688:    7842        Bx      LDRB     r2,[r0,#1]
        0x0000168a:    4669        iF      MOV      r1,sp
        0x0000168c:    700a        .p      STRB     r2,[r1,#0]
        0x0000168e:    9a02        ..      LDR      r2,[sp,#8]
        0x00001690:    704a        Jp      STRB     r2,[r1,#1]
        0x00001692:    7840        @x      LDRB     r0,[r0,#1]
        0x00001694:    7088        .p      STRB     r0,[r1,#2]
        0x00001696:    9802        ..      LDR      r0,[sp,#8]
        0x00001698:    70c8        .p      STRB     r0,[r1,#3]
        0x0000169a:    9804        ..      LDR      r0,[sp,#0x10]
        0x0000169c:    2204        ."      MOVS     r2,#4
        0x0000169e:    2301        .#      MOVS     r3,#1
        0x000016a0:    f000f96e    ..n.    BL       a_st7789_write_bytes ; 0x1980
        0x000016a4:    b120         .      CBZ      r0,0x16b0 ; a_st7789_draw_point + 144
        0x000016a6:    e7ff        ..      B        0x16a8 ; a_st7789_draw_point + 136
        0x000016a8:    a905        ..      ADD      r1,sp,#0x14
        0x000016aa:    2001        .       MOVS     r0,#1
        0x000016ac:    7008        .p      STRB     r0,[r1,#0]
        0x000016ae:    e07b        {.      B        0x17a8 ; a_st7789_draw_point + 392
        0x000016b0:    9804        ..      LDR      r0,[sp,#0x10]
        0x000016b2:    212c        ,!      MOVS     r1,#0x2c
        0x000016b4:    2200        ."      MOVS     r2,#0
        0x000016b6:    f000f937    ..7.    BL       a_st7789_write_byte ; 0x1928
        0x000016ba:    b120         .      CBZ      r0,0x16c6 ; a_st7789_draw_point + 166
        0x000016bc:    e7ff        ..      B        0x16be ; a_st7789_draw_point + 158
        0x000016be:    a905        ..      ADD      r1,sp,#0x14
        0x000016c0:    2001        .       MOVS     r0,#1
        0x000016c2:    7008        .p      STRB     r0,[r1,#0]
        0x000016c4:    e070        p.      B        0x17a8 ; a_st7789_draw_point + 392
        0x000016c6:    9804        ..      LDR      r0,[sp,#0x10]
        0x000016c8:    2132        2!      MOVS     r1,#0x32
        0x000016ca:    5c40        @\      LDRB     r0,[r0,r1]
        0x000016cc:    2103        .!      MOVS     r1,#3
        0x000016ce:    4008        .@      ANDS     r0,r0,r1
        0x000016d0:    2803        .(      CMP      r0,#3
        0x000016d2:    d118        ..      BNE      0x1706 ; a_st7789_draw_point + 230
        0x000016d4:    e7ff        ..      B        0x16d6 ; a_st7789_draw_point + 182
        0x000016d6:    9801        ..      LDR      r0,[sp,#4]
        0x000016d8:    0900        ..      LSRS     r0,r0,#4
        0x000016da:    9904        ..      LDR      r1,[sp,#0x10]
        0x000016dc:    2233        3"      MOVS     r2,#0x33
        0x000016de:    5488        .T      STRB     r0,[r1,r2]
        0x000016e0:    9801        ..      LDR      r0,[sp,#4]
        0x000016e2:    0100        ..      LSLS     r0,r0,#4
        0x000016e4:    9904        ..      LDR      r1,[sp,#0x10]
        0x000016e6:    2234        4"      MOVS     r2,#0x34
        0x000016e8:    5488        .T      STRB     r0,[r1,r2]
        0x000016ea:    9804        ..      LDR      r0,[sp,#0x10]
        0x000016ec:    4601        .F      MOV      r1,r0
        0x000016ee:    3133        31      ADDS     r1,r1,#0x33
        0x000016f0:    2202        ."      MOVS     r2,#2
        0x000016f2:    2301        .#      MOVS     r3,#1
        0x000016f4:    f000f944    ..D.    BL       a_st7789_write_bytes ; 0x1980
        0x000016f8:    b120         .      CBZ      r0,0x1704 ; a_st7789_draw_point + 228
        0x000016fa:    e7ff        ..      B        0x16fc ; a_st7789_draw_point + 220
        0x000016fc:    a905        ..      ADD      r1,sp,#0x14
        0x000016fe:    2001        .       MOVS     r0,#1
        0x00001700:    7008        .p      STRB     r0,[r1,#0]
        0x00001702:    e051        Q.      B        0x17a8 ; a_st7789_draw_point + 392
        0x00001704:    e04c        L.      B        0x17a0 ; a_st7789_draw_point + 384
        0x00001706:    9804        ..      LDR      r0,[sp,#0x10]
        0x00001708:    2132        2!      MOVS     r1,#0x32
        0x0000170a:    5c40        @\      LDRB     r0,[r0,r1]
        0x0000170c:    2105        .!      MOVS     r1,#5
        0x0000170e:    4008        .@      ANDS     r0,r0,r1
        0x00001710:    2805        .(      CMP      r0,#5
        0x00001712:    d117        ..      BNE      0x1744 ; a_st7789_draw_point + 292
        0x00001714:    e7ff        ..      B        0x1716 ; a_st7789_draw_point + 246
        0x00001716:    9801        ..      LDR      r0,[sp,#4]
        0x00001718:    0a00        ..      LSRS     r0,r0,#8
        0x0000171a:    9904        ..      LDR      r1,[sp,#0x10]
        0x0000171c:    2233        3"      MOVS     r2,#0x33
        0x0000171e:    5488        .T      STRB     r0,[r1,r2]
        0x00001720:    9801        ..      LDR      r0,[sp,#4]
        0x00001722:    9904        ..      LDR      r1,[sp,#0x10]
        0x00001724:    2234        4"      MOVS     r2,#0x34
        0x00001726:    5488        .T      STRB     r0,[r1,r2]
        0x00001728:    9804        ..      LDR      r0,[sp,#0x10]
        0x0000172a:    4601        .F      MOV      r1,r0
        0x0000172c:    3133        31      ADDS     r1,r1,#0x33
        0x0000172e:    2202        ."      MOVS     r2,#2
        0x00001730:    2301        .#      MOVS     r3,#1
        0x00001732:    f000f925    ..%.    BL       a_st7789_write_bytes ; 0x1980
        0x00001736:    b120         .      CBZ      r0,0x1742 ; a_st7789_draw_point + 290
        0x00001738:    e7ff        ..      B        0x173a ; a_st7789_draw_point + 282
        0x0000173a:    a905        ..      ADD      r1,sp,#0x14
        0x0000173c:    2001        .       MOVS     r0,#1
        0x0000173e:    7008        .p      STRB     r0,[r1,#0]
        0x00001740:    e032        2.      B        0x17a8 ; a_st7789_draw_point + 392
        0x00001742:    e02c        ,.      B        0x179e ; a_st7789_draw_point + 382
        0x00001744:    9804        ..      LDR      r0,[sp,#0x10]
        0x00001746:    2132        2!      MOVS     r1,#0x32
        0x00001748:    5c40        @\      LDRB     r0,[r0,r1]
        0x0000174a:    2106        .!      MOVS     r1,#6
        0x0000174c:    4008        .@      ANDS     r0,r0,r1
        0x0000174e:    2806        .(      CMP      r0,#6
        0x00001750:    d120         .      BNE      0x1794 ; a_st7789_draw_point + 372
        0x00001752:    e7ff        ..      B        0x1754 ; a_st7789_draw_point + 308
        0x00001754:    9801        ..      LDR      r0,[sp,#4]
        0x00001756:    0a80        ..      LSRS     r0,r0,#10
        0x00001758:    21fc        .!      MOVS     r1,#0xfc
        0x0000175a:    4008        .@      ANDS     r0,r0,r1
        0x0000175c:    9a04        ..      LDR      r2,[sp,#0x10]
        0x0000175e:    2333        3#      MOVS     r3,#0x33
        0x00001760:    54d0        .T      STRB     r0,[r2,r3]
        0x00001762:    9801        ..      LDR      r0,[sp,#4]
        0x00001764:    0900        ..      LSRS     r0,r0,#4
        0x00001766:    4008        .@      ANDS     r0,r0,r1
        0x00001768:    9904        ..      LDR      r1,[sp,#0x10]
        0x0000176a:    2234        4"      MOVS     r2,#0x34
        0x0000176c:    5488        .T      STRB     r0,[r1,r2]
        0x0000176e:    9801        ..      LDR      r0,[sp,#4]
        0x00001770:    0080        ..      LSLS     r0,r0,#2
        0x00001772:    9904        ..      LDR      r1,[sp,#0x10]
        0x00001774:    2235        5"      MOVS     r2,#0x35
        0x00001776:    5488        .T      STRB     r0,[r1,r2]
        0x00001778:    9804        ..      LDR      r0,[sp,#0x10]
        0x0000177a:    4601        .F      MOV      r1,r0
        0x0000177c:    3133        31      ADDS     r1,r1,#0x33
        0x0000177e:    2203        ."      MOVS     r2,#3
        0x00001780:    2301        .#      MOVS     r3,#1
        0x00001782:    f000f8fd    ....    BL       a_st7789_write_bytes ; 0x1980
        0x00001786:    b120         .      CBZ      r0,0x1792 ; a_st7789_draw_point + 370
        0x00001788:    e7ff        ..      B        0x178a ; a_st7789_draw_point + 362
        0x0000178a:    a905        ..      ADD      r1,sp,#0x14
        0x0000178c:    2001        .       MOVS     r0,#1
        0x0000178e:    7008        .p      STRB     r0,[r1,#0]
        0x00001790:    e00a        ..      B        0x17a8 ; a_st7789_draw_point + 392
        0x00001792:    e003        ..      B        0x179c ; a_st7789_draw_point + 380
        0x00001794:    a905        ..      ADD      r1,sp,#0x14
        0x00001796:    2004        .       MOVS     r0,#4
        0x00001798:    7008        .p      STRB     r0,[r1,#0]
        0x0000179a:    e005        ..      B        0x17a8 ; a_st7789_draw_point + 392
        0x0000179c:    e7ff        ..      B        0x179e ; a_st7789_draw_point + 382
        0x0000179e:    e7ff        ..      B        0x17a0 ; a_st7789_draw_point + 384
        0x000017a0:    a905        ..      ADD      r1,sp,#0x14
        0x000017a2:    2000        .       MOVS     r0,#0
        0x000017a4:    7008        .p      STRB     r0,[r1,#0]
        0x000017a6:    e7ff        ..      B        0x17a8 ; a_st7789_draw_point + 392
        0x000017a8:    a805        ..      ADD      r0,sp,#0x14
        0x000017aa:    7800        .x      LDRB     r0,[r0,#0]
        0x000017ac:    b006        ..      ADD      sp,sp,#0x18
        0x000017ae:    bd10        ..      POP      {r4,pc}
    a_st7789_show_char
        0x000017b0:    b5b0        ..      PUSH     {r4,r5,r7,lr}
        0x000017b2:    b090        ..      SUB      sp,sp,#0x40
        0x000017b4:    9100        ..      STR      r1,[sp,#0]
        0x000017b6:    4604        .F      MOV      r4,r0
        0x000017b8:    9800        ..      LDR      r0,[sp,#0]
        0x000017ba:    9915        ..      LDR      r1,[sp,#0x54]
        0x000017bc:    9914        ..      LDR      r1,[sp,#0x50]
        0x000017be:    940e        ..      STR      r4,[sp,#0x38]
        0x000017c0:    ac0d        ..      ADD      r4,sp,#0x34
        0x000017c2:    8020         .      STRH     r0,[r4,#0]
        0x000017c4:    a80c        ..      ADD      r0,sp,#0x30
        0x000017c6:    8002        ..      STRH     r2,[r0,#0]
        0x000017c8:    a80b        ..      ADD      r0,sp,#0x2c
        0x000017ca:    9001        ..      STR      r0,[sp,#4]
        0x000017cc:    7003        .p      STRB     r3,[r0,#0]
        0x000017ce:    a80a        ..      ADD      r0,sp,#0x28
        0x000017d0:    7001        .p      STRB     r1,[r0,#0]
        0x000017d2:    990c        ..      LDR      r1,[sp,#0x30]
        0x000017d4:    aa06        ..      ADD      r2,sp,#0x18
        0x000017d6:    8011        ..      STRH     r1,[r2,#0]
        0x000017d8:    7801        .x      LDRB     r1,[r0,#0]
        0x000017da:    9102        ..      STR      r1,[sp,#8]
        0x000017dc:    08c8        ..      LSRS     r0,r1,#3
        0x000017de:    9003        ..      STR      r0,[sp,#0xc]
        0x000017e0:    0749        I.      LSLS     r1,r1,#29
        0x000017e2:    1c40        @.      ADDS     r0,r0,#1
        0x000017e4:    9004        ..      STR      r0,[sp,#0x10]
        0x000017e6:    b909        ..      CBNZ     r1,0x17ec ; a_st7789_show_char + 60
        0x000017e8:    9803        ..      LDR      r0,[sp,#0xc]
        0x000017ea:    9004        ..      STR      r0,[sp,#0x10]
        0x000017ec:    9901        ..      LDR      r1,[sp,#4]
        0x000017ee:    9802        ..      LDR      r0,[sp,#8]
        0x000017f0:    9a04        ..      LDR      r2,[sp,#0x10]
        0x000017f2:    0840        @.      LSRS     r0,r0,#1
        0x000017f4:    4350        PC      MULS     r0,r2,r0
        0x000017f6:    aa05        ..      ADD      r2,sp,#0x14
        0x000017f8:    7010        .p      STRB     r0,[r2,#0]
        0x000017fa:    980b        ..      LDR      r0,[sp,#0x2c]
        0x000017fc:    3820         8      SUBS     r0,r0,#0x20
        0x000017fe:    7008        .p      STRB     r0,[r1,#0]
        0x00001800:    a908        ..      ADD      r1,sp,#0x20
        0x00001802:    2000        .       MOVS     r0,#0
        0x00001804:    7008        .p      STRB     r0,[r1,#0]
        0x00001806:    e7ff        ..      B        0x1808 ; a_st7789_show_char + 88
        0x00001808:    a808        ..      ADD      r0,sp,#0x20
        0x0000180a:    7800        .x      LDRB     r0,[r0,#0]
        0x0000180c:    a905        ..      ADD      r1,sp,#0x14
        0x0000180e:    7809        .x      LDRB     r1,[r1,#0]
        0x00001810:    4288        .B      CMP      r0,r1
        0x00001812:    da7b        {.      BGE      0x190c ; a_st7789_show_char + 348
        0x00001814:    e7ff        ..      B        0x1816 ; a_st7789_show_char + 102
        0x00001816:    a80a        ..      ADD      r0,sp,#0x28
        0x00001818:    7800        .x      LDRB     r0,[r0,#0]
        0x0000181a:    280c        .(      CMP      r0,#0xc
        0x0000181c:    d10c        ..      BNE      0x1838 ; a_st7789_show_char + 136
        0x0000181e:    e7ff        ..      B        0x1820 ; a_st7789_show_char + 112
        0x00001820:    a80b        ..      ADD      r0,sp,#0x2c
        0x00001822:    7800        .x      LDRB     r0,[r0,#0]
        0x00001824:    210c        .!      MOVS     r1,#0xc
        0x00001826:    4341        AC      MULS     r1,r0,r1
        0x00001828:    483e        >H      LDR      r0,[pc,#248] ; [0x1924] = 0x50bc
        0x0000182a:    1840        @.      ADDS     r0,r0,r1
        0x0000182c:    a908        ..      ADD      r1,sp,#0x20
        0x0000182e:    7809        .x      LDRB     r1,[r1,#0]
        0x00001830:    5c40        @\      LDRB     r0,[r0,r1]
        0x00001832:    a909        ..      ADD      r1,sp,#0x24
        0x00001834:    7008        .p      STRB     r0,[r1,#0]
        0x00001836:    e026        &.      B        0x1886 ; a_st7789_show_char + 214
        0x00001838:    a80a        ..      ADD      r0,sp,#0x28
        0x0000183a:    7800        .x      LDRB     r0,[r0,#0]
        0x0000183c:    2810        .(      CMP      r0,#0x10
        0x0000183e:    d10b        ..      BNE      0x1858 ; a_st7789_show_char + 168
        0x00001840:    e7ff        ..      B        0x1842 ; a_st7789_show_char + 146
        0x00001842:    a80b        ..      ADD      r0,sp,#0x2c
        0x00001844:    7800        .x      LDRB     r0,[r0,#0]
        0x00001846:    0101        ..      LSLS     r1,r0,#4
        0x00001848:    4835        5H      LDR      r0,[pc,#212] ; [0x1920] = 0x5530
        0x0000184a:    1840        @.      ADDS     r0,r0,r1
        0x0000184c:    a908        ..      ADD      r1,sp,#0x20
        0x0000184e:    7809        .x      LDRB     r1,[r1,#0]
        0x00001850:    5c40        @\      LDRB     r0,[r0,r1]
        0x00001852:    a909        ..      ADD      r1,sp,#0x24
        0x00001854:    7008        .p      STRB     r0,[r1,#0]
        0x00001856:    e015        ..      B        0x1884 ; a_st7789_show_char + 212
        0x00001858:    a80a        ..      ADD      r0,sp,#0x28
        0x0000185a:    7800        .x      LDRB     r0,[r0,#0]
        0x0000185c:    2818        .(      CMP      r0,#0x18
        0x0000185e:    d10c        ..      BNE      0x187a ; a_st7789_show_char + 202
        0x00001860:    e7ff        ..      B        0x1862 ; a_st7789_show_char + 178
        0x00001862:    a80b        ..      ADD      r0,sp,#0x2c
        0x00001864:    7800        .x      LDRB     r0,[r0,#0]
        0x00001866:    2124        $!      MOVS     r1,#0x24
        0x00001868:    4341        AC      MULS     r1,r0,r1
        0x0000186a:    482c        ,H      LDR      r0,[pc,#176] ; [0x191c] = 0x5b20
        0x0000186c:    1840        @.      ADDS     r0,r0,r1
        0x0000186e:    a908        ..      ADD      r1,sp,#0x20
        0x00001870:    7809        .x      LDRB     r1,[r1,#0]
        0x00001872:    5c40        @\      LDRB     r0,[r0,r1]
        0x00001874:    a909        ..      ADD      r1,sp,#0x24
        0x00001876:    7008        .p      STRB     r0,[r1,#0]
        0x00001878:    e003        ..      B        0x1882 ; a_st7789_show_char + 210
        0x0000187a:    a90f        ..      ADD      r1,sp,#0x3c
        0x0000187c:    2001        .       MOVS     r0,#1
        0x0000187e:    7008        .p      STRB     r0,[r1,#0]
        0x00001880:    e048        H.      B        0x1914 ; a_st7789_show_char + 356
        0x00001882:    e7ff        ..      B        0x1884 ; a_st7789_show_char + 212
        0x00001884:    e7ff        ..      B        0x1886 ; a_st7789_show_char + 214
        0x00001886:    a907        ..      ADD      r1,sp,#0x1c
        0x00001888:    2000        .       MOVS     r0,#0
        0x0000188a:    7008        .p      STRB     r0,[r1,#0]
        0x0000188c:    e7ff        ..      B        0x188e ; a_st7789_show_char + 222
        0x0000188e:    a807        ..      ADD      r0,sp,#0x1c
        0x00001890:    7800        .x      LDRB     r0,[r0,#0]
        0x00001892:    2807        .(      CMP      r0,#7
        0x00001894:    dc34        4.      BGT      0x1900 ; a_st7789_show_char + 336
        0x00001896:    e7ff        ..      B        0x1898 ; a_st7789_show_char + 232
        0x00001898:    a809        ..      ADD      r0,sp,#0x24
        0x0000189a:    7800        .x      LDRB     r0,[r0,#0]
        0x0000189c:    0600        ..      LSLS     r0,r0,#24
        0x0000189e:    2800        .(      CMP      r0,#0
        0x000018a0:    d50f        ..      BPL      0x18c2 ; a_st7789_show_char + 274
        0x000018a2:    e7ff        ..      B        0x18a4 ; a_st7789_show_char + 244
        0x000018a4:    980e        ..      LDR      r0,[sp,#0x38]
        0x000018a6:    a90d        ..      ADD      r1,sp,#0x34
        0x000018a8:    8809        ..      LDRH     r1,[r1,#0]
        0x000018aa:    aa0c        ..      ADD      r2,sp,#0x30
        0x000018ac:    8812        ..      LDRH     r2,[r2,#0]
        0x000018ae:    9b15        ..      LDR      r3,[sp,#0x54]
        0x000018b0:    f7fffeb6    ....    BL       a_st7789_draw_point ; 0x1620
        0x000018b4:    b120         .      CBZ      r0,0x18c0 ; a_st7789_show_char + 272
        0x000018b6:    e7ff        ..      B        0x18b8 ; a_st7789_show_char + 264
        0x000018b8:    a90f        ..      ADD      r1,sp,#0x3c
        0x000018ba:    2001        .       MOVS     r0,#1
        0x000018bc:    7008        .p      STRB     r0,[r1,#0]
        0x000018be:    e029        ).      B        0x1914 ; a_st7789_show_char + 356
        0x000018c0:    e7ff        ..      B        0x18c2 ; a_st7789_show_char + 274
        0x000018c2:    9809        ..      LDR      r0,[sp,#0x24]
        0x000018c4:    0040        @.      LSLS     r0,r0,#1
        0x000018c6:    a909        ..      ADD      r1,sp,#0x24
        0x000018c8:    7008        .p      STRB     r0,[r1,#0]
        0x000018ca:    980c        ..      LDR      r0,[sp,#0x30]
        0x000018cc:    1c41        A.      ADDS     r1,r0,#1
        0x000018ce:    a80c        ..      ADD      r0,sp,#0x30
        0x000018d0:    8001        ..      STRH     r1,[r0,#0]
        0x000018d2:    8800        ..      LDRH     r0,[r0,#0]
        0x000018d4:    a906        ..      ADD      r1,sp,#0x18
        0x000018d6:    8809        ..      LDRH     r1,[r1,#0]
        0x000018d8:    1a40        @.      SUBS     r0,r0,r1
        0x000018da:    a90a        ..      ADD      r1,sp,#0x28
        0x000018dc:    7809        .x      LDRB     r1,[r1,#0]
        0x000018de:    4288        .B      CMP      r0,r1
        0x000018e0:    d108        ..      BNE      0x18f4 ; a_st7789_show_char + 324
        0x000018e2:    e7ff        ..      B        0x18e4 ; a_st7789_show_char + 308
        0x000018e4:    9806        ..      LDR      r0,[sp,#0x18]
        0x000018e6:    a90c        ..      ADD      r1,sp,#0x30
        0x000018e8:    8008        ..      STRH     r0,[r1,#0]
        0x000018ea:    980d        ..      LDR      r0,[sp,#0x34]
        0x000018ec:    1c40        @.      ADDS     r0,r0,#1
        0x000018ee:    a90d        ..      ADD      r1,sp,#0x34
        0x000018f0:    8008        ..      STRH     r0,[r1,#0]
        0x000018f2:    e005        ..      B        0x1900 ; a_st7789_show_char + 336
        0x000018f4:    e7ff        ..      B        0x18f6 ; a_st7789_show_char + 326
        0x000018f6:    9807        ..      LDR      r0,[sp,#0x1c]
        0x000018f8:    1c40        @.      ADDS     r0,r0,#1
        0x000018fa:    a907        ..      ADD      r1,sp,#0x1c
        0x000018fc:    7008        .p      STRB     r0,[r1,#0]
        0x000018fe:    e7c6        ..      B        0x188e ; a_st7789_show_char + 222
        0x00001900:    e7ff        ..      B        0x1902 ; a_st7789_show_char + 338
        0x00001902:    9808        ..      LDR      r0,[sp,#0x20]
        0x00001904:    1c40        @.      ADDS     r0,r0,#1
        0x00001906:    a908        ..      ADD      r1,sp,#0x20
        0x00001908:    7008        .p      STRB     r0,[r1,#0]
        0x0000190a:    e77d        }.      B        0x1808 ; a_st7789_show_char + 88
        0x0000190c:    a90f        ..      ADD      r1,sp,#0x3c
        0x0000190e:    2000        .       MOVS     r0,#0
        0x00001910:    7008        .p      STRB     r0,[r1,#0]
        0x00001912:    e7ff        ..      B        0x1914 ; a_st7789_show_char + 356
        0x00001914:    a80f        ..      ADD      r0,sp,#0x3c
        0x00001916:    7800        .x      LDRB     r0,[r0,#0]
        0x00001918:    b010        ..      ADD      sp,sp,#0x40
        0x0000191a:    bdb0        ..      POP      {r4,r5,r7,pc}
    $d.96
    __arm_cp.84_0
        0x0000191c:    00005b20     [..    DCD    23328
    __arm_cp.84_1
        0x00001920:    00005530    0U..    DCD    21808
    __arm_cp.84_2
        0x00001924:    000050bc    .P..    DCD    20668
    $t.1
    a_st7789_write_byte
        0x00001928:    b580        ..      PUSH     {r7,lr}
        0x0000192a:    b086        ..      SUB      sp,sp,#0x18
        0x0000192c:    9004        ..      STR      r0,[sp,#0x10]
        0x0000192e:    a803        ..      ADD      r0,sp,#0xc
        0x00001930:    7001        .p      STRB     r1,[r0,#0]
        0x00001932:    a802        ..      ADD      r0,sp,#8
        0x00001934:    7002        .p      STRB     r2,[r0,#0]
        0x00001936:    9904        ..      LDR      r1,[sp,#0x10]
        0x00001938:    6949        Ii      LDR      r1,[r1,#0x14]
        0x0000193a:    7800        .x      LDRB     r0,[r0,#0]
        0x0000193c:    4788        .G      BLX      r1
        0x0000193e:    4601        .F      MOV      r1,r0
        0x00001940:    a801        ..      ADD      r0,sp,#4
        0x00001942:    7001        .p      STRB     r1,[r0,#0]
        0x00001944:    7800        .x      LDRB     r0,[r0,#0]
        0x00001946:    b120         .      CBZ      r0,0x1952 ; a_st7789_write_byte + 42
        0x00001948:    e7ff        ..      B        0x194a ; a_st7789_write_byte + 34
        0x0000194a:    a905        ..      ADD      r1,sp,#0x14
        0x0000194c:    2001        .       MOVS     r0,#1
        0x0000194e:    7008        .p      STRB     r0,[r1,#0]
        0x00001950:    e012        ..      B        0x1978 ; a_st7789_write_byte + 80
        0x00001952:    9804        ..      LDR      r0,[sp,#0x10]
        0x00001954:    6882        .h      LDR      r2,[r0,#8]
        0x00001956:    a803        ..      ADD      r0,sp,#0xc
        0x00001958:    2101        .!      MOVS     r1,#1
        0x0000195a:    4790        .G      BLX      r2
        0x0000195c:    4601        .F      MOV      r1,r0
        0x0000195e:    a801        ..      ADD      r0,sp,#4
        0x00001960:    7001        .p      STRB     r1,[r0,#0]
        0x00001962:    7800        .x      LDRB     r0,[r0,#0]
        0x00001964:    b120         .      CBZ      r0,0x1970 ; a_st7789_write_byte + 72
        0x00001966:    e7ff        ..      B        0x1968 ; a_st7789_write_byte + 64
        0x00001968:    a905        ..      ADD      r1,sp,#0x14
        0x0000196a:    2001        .       MOVS     r0,#1
        0x0000196c:    7008        .p      STRB     r0,[r1,#0]
        0x0000196e:    e003        ..      B        0x1978 ; a_st7789_write_byte + 80
        0x00001970:    a905        ..      ADD      r1,sp,#0x14
        0x00001972:    2000        .       MOVS     r0,#0
        0x00001974:    7008        .p      STRB     r0,[r1,#0]
        0x00001976:    e7ff        ..      B        0x1978 ; a_st7789_write_byte + 80
        0x00001978:    a805        ..      ADD      r0,sp,#0x14
        0x0000197a:    7800        .x      LDRB     r0,[r0,#0]
        0x0000197c:    b006        ..      ADD      sp,sp,#0x18
        0x0000197e:    bd80        ..      POP      {r7,pc}
    a_st7789_write_bytes
        0x00001980:    b510        ..      PUSH     {r4,lr}
        0x00001982:    b086        ..      SUB      sp,sp,#0x18
        0x00001984:    9004        ..      STR      r0,[sp,#0x10]
        0x00001986:    9103        ..      STR      r1,[sp,#0xc]
        0x00001988:    a802        ..      ADD      r0,sp,#8
        0x0000198a:    8002        ..      STRH     r2,[r0,#0]
        0x0000198c:    a801        ..      ADD      r0,sp,#4
        0x0000198e:    7003        .p      STRB     r3,[r0,#0]
        0x00001990:    9904        ..      LDR      r1,[sp,#0x10]
        0x00001992:    6949        Ii      LDR      r1,[r1,#0x14]
        0x00001994:    7800        .x      LDRB     r0,[r0,#0]
        0x00001996:    4788        .G      BLX      r1
        0x00001998:    4601        .F      MOV      r1,r0
        0x0000199a:    4668        hF      MOV      r0,sp
        0x0000199c:    7001        .p      STRB     r1,[r0,#0]
        0x0000199e:    7800        .x      LDRB     r0,[r0,#0]
        0x000019a0:    b120         .      CBZ      r0,0x19ac ; a_st7789_write_bytes + 44
        0x000019a2:    e7ff        ..      B        0x19a4 ; a_st7789_write_bytes + 36
        0x000019a4:    a905        ..      ADD      r1,sp,#0x14
        0x000019a6:    2001        .       MOVS     r0,#1
        0x000019a8:    7008        .p      STRB     r0,[r1,#0]
        0x000019aa:    e013        ..      B        0x19d4 ; a_st7789_write_bytes + 84
        0x000019ac:    9804        ..      LDR      r0,[sp,#0x10]
        0x000019ae:    6882        .h      LDR      r2,[r0,#8]
        0x000019b0:    9803        ..      LDR      r0,[sp,#0xc]
        0x000019b2:    a902        ..      ADD      r1,sp,#8
        0x000019b4:    8809        ..      LDRH     r1,[r1,#0]
        0x000019b6:    4790        .G      BLX      r2
        0x000019b8:    4601        .F      MOV      r1,r0
        0x000019ba:    4668        hF      MOV      r0,sp
        0x000019bc:    7001        .p      STRB     r1,[r0,#0]
        0x000019be:    7800        .x      LDRB     r0,[r0,#0]
        0x000019c0:    b120         .      CBZ      r0,0x19cc ; a_st7789_write_bytes + 76
        0x000019c2:    e7ff        ..      B        0x19c4 ; a_st7789_write_bytes + 68
        0x000019c4:    a905        ..      ADD      r1,sp,#0x14
        0x000019c6:    2001        .       MOVS     r0,#1
        0x000019c8:    7008        .p      STRB     r0,[r1,#0]
        0x000019ca:    e003        ..      B        0x19d4 ; a_st7789_write_bytes + 84
        0x000019cc:    a905        ..      ADD      r1,sp,#0x14
        0x000019ce:    2000        .       MOVS     r0,#0
        0x000019d0:    7008        .p      STRB     r0,[r1,#0]
        0x000019d2:    e7ff        ..      B        0x19d4 ; a_st7789_write_bytes + 84
        0x000019d4:    a805        ..      ADD      r0,sp,#0x14
        0x000019d6:    7800        .x      LDRB     r0,[r0,#0]
        0x000019d8:    b006        ..      ADD      sp,sp,#0x18
        0x000019da:    bd10        ..      POP      {r4,pc}
    delay_ms
        0x000019dc:    b580        ..      PUSH     {r7,lr}
        0x000019de:    b082        ..      SUB      sp,sp,#8
        0x000019e0:    9001        ..      STR      r0,[sp,#4]
        0x000019e2:    9901        ..      LDR      r1,[sp,#4]
        0x000019e4:    f24030e8    @..0    MOVW     r0,#0x3e8
        0x000019e8:    4348        HC      MULS     r0,r1,r0
        0x000019ea:    f7fff97f    ....    BL       CLK_SysTickDelay ; 0xcec
        0x000019ee:    b002        ..      ADD      sp,sp,#8
        0x000019f0:    bd80        ..      POP      {r7,pc}
    fputc
        0x000019f2:    b580        ..      PUSH     {r7,lr}
        0x000019f4:    b082        ..      SUB      sp,sp,#8
        0x000019f6:    9001        ..      STR      r0,[sp,#4]
        0x000019f8:    9100        ..      STR      r1,[sp,#0]
        0x000019fa:    9801        ..      LDR      r0,[sp,#4]
        0x000019fc:    f7fffc6a    ..j.    BL       SendChar ; 0x12d4
        0x00001a00:    9801        ..      LDR      r0,[sp,#4]
        0x00001a02:    b002        ..      ADD      sp,sp,#8
        0x00001a04:    bd80        ..      POP      {r7,pc}
        0x00001a06:    0000        ..      MOVS     r0,r0
    main
        0x00001a08:    b5f0        ..      PUSH     {r4-r7,lr}
        0x00001a0a:    b0ff        ..      SUB      sp,sp,#0x1fc
        0x00001a0c:    b08a        ..      SUB      sp,sp,#0x28
        0x00001a0e:    2000        .       MOVS     r0,#0
        0x00001a10:    902c        ,.      STR      r0,[sp,#0xb0]
        0x00001a12:    9088        ..      STR      r0,[sp,#0x220]
        0x00001a14:    a957        W.      ADD      r1,sp,#0x15c
        0x00001a16:    7108        .q      STRB     r0,[r1,#4]
        0x00001a18:    49f5        .I      LDR      r1,[pc,#980] ; [0x1df0] = 0x74736554
        0x00001a1a:    9157        W.      STR      r1,[sp,#0x15c]
        0x00001a1c:    aa55        U.      ADD      r2,sp,#0x154
        0x00001a1e:    7190        .q      STRB     r0,[r2,#6]
        0x00001a20:    49f4        .I      LDR      r1,[pc,#976] ; [0x1df4] = 0x3938
        0x00001a22:    8091        ..      STRH     r1,[r2,#4]
        0x00001a24:    49f4        .I      LDR      r1,[pc,#976] ; [0x1df8] = 0x37377473
        0x00001a26:    9155        U.      STR      r1,[sp,#0x154]
        0x00001a28:    aa53        S.      ADD      r2,sp,#0x14c
        0x00001a2a:    7190        .q      STRB     r0,[r2,#6]
        0x00001a2c:    49f3        .I      LDR      r1,[pc,#972] ; [0x1dfc] = 0x6362
        0x00001a2e:    8091        ..      STRH     r1,[r2,#4]
        0x00001a30:    49f3        .I      LDR      r1,[pc,#972] ; [0x1e00] = 0x61434241
        0x00001a32:    9153        S.      STR      r1,[sp,#0x14c]
        0x00001a34:    a950        P.      ADD      r1,sp,#0x140
        0x00001a36:    7208        .r      STRB     r0,[r1,#8]
        0x00001a38:    48f2        .H      LDR      r0,[pc,#968] ; [0x1e04] = 0x25242321
        0x00001a3a:    9051        Q.      STR      r0,[sp,#0x144]
        0x00001a3c:    48f2        .H      LDR      r0,[pc,#968] ; [0x1e08] = 0x3f333231
        0x00001a3e:    9050        P.      STR      r0,[sp,#0x140]
        0x00001a40:    49f2        .I      LDR      r1,[pc,#968] ; [0x1e0c] = 0x5079
        0x00001a42:    a847        G.      ADD      r0,sp,#0x11c
        0x00001a44:    901b        ..      STR      r0,[sp,#0x6c]
        0x00001a46:    2221        !"      MOVS     r2,#0x21
        0x00001a48:    921a        ..      STR      r2,[sp,#0x68]
        0x00001a4a:    f7fefbd7    ....    BL       __aeabi_memcpy ; 0x1fc
        0x00001a4e:    982c        ,.      LDR      r0,[sp,#0xb0]
        0x00001a50:    49ef        .I      LDR      r1,[pc,#956] ; [0x1e10] = 0xffff
        0x00001a52:    9146        F.      STR      r1,[sp,#0x118]
        0x00001a54:    a945        E.      ADD      r1,sp,#0x114
        0x00001a56:    8008        ..      STRH     r0,[r1,#0]
        0x00001a58:    a944        D.      ADD      r1,sp,#0x110
        0x00001a5a:    8008        ..      STRH     r0,[r1,#0]
        0x00001a5c:    a943        C.      ADD      r1,sp,#0x10c
        0x00001a5e:    8008        ..      STRH     r0,[r1,#0]
        0x00001a60:    a942        B.      ADD      r1,sp,#0x108
        0x00001a62:    8008        ..      STRH     r0,[r1,#0]
        0x00001a64:    a941        A.      ADD      r1,sp,#0x104
        0x00001a66:    8008        ..      STRH     r0,[r1,#0]
        0x00001a68:    a940        @.      ADD      r1,sp,#0x100
        0x00001a6a:    8008        ..      STRH     r0,[r1,#0]
        0x00001a6c:    a93f        ?.      ADD      r1,sp,#0xfc
        0x00001a6e:    7008        .p      STRB     r0,[r1,#0]
        0x00001a70:    a93e        >.      ADD      r1,sp,#0xf8
        0x00001a72:    7008        .p      STRB     r0,[r1,#0]
        0x00001a74:    a93d        =.      ADD      r1,sp,#0xf4
        0x00001a76:    7008        .p      STRB     r0,[r1,#0]
        0x00001a78:    a93c        <.      ADD      r1,sp,#0xf0
        0x00001a7a:    7008        .p      STRB     r0,[r1,#0]
        0x00001a7c:    a93b        ;.      ADD      r1,sp,#0xec
        0x00001a7e:    7008        .p      STRB     r0,[r1,#0]
        0x00001a80:    a93a        :.      ADD      r1,sp,#0xe8
        0x00001a82:    7008        .p      STRB     r0,[r1,#0]
        0x00001a84:    49e3        .I      LDR      r1,[pc,#908] ; [0x1e14] = 0x5048
        0x00001a86:    a82d        -.      ADD      r0,sp,#0xb4
        0x00001a88:    2231        1"      MOVS     r2,#0x31
        0x00001a8a:    f7fefbb7    ....    BL       __aeabi_memcpy ; 0x1fc
        0x00001a8e:    f7fffbef    ....    BL       SYS_UnlockReg ; 0x1270
        0x00001a92:    f7fffb69    ..i.    BL       SYS_Init ; 0x1168
        0x00001a96:    f7fffbe7    ....    BL       SYS_LockReg ; 0x1268
        0x00001a9a:    20e1        .       MOVS     r0,#0xe1
        0x00001a9c:    0240        @.      LSLS     r0,r0,#9
        0x00001a9e:    f002fd49    ..I.    BL       uart_init ; 0x4534
        0x00001aa2:    f000fb9b    ....    BL       shell_init ; 0x21dc
        0x00001aa6:    48dc        .H      LDR      r0,[pc,#880] ; [0x1e18] = 0x20000074
        0x00001aa8:    902a        *.      STR      r0,[sp,#0xa8]
        0x00001aaa:    49dc        .I      LDR      r1,[pc,#880] ; [0x1e1c] = 0x103c
        0x00001aac:    f7fefbbf    ....    BL       __aeabi_memclr ; 0x22e
        0x00001ab0:    991a        ..      LDR      r1,[sp,#0x68]
        0x00001ab2:    981b        ..      LDR      r0,[sp,#0x6c]
        0x00001ab4:    9b2a        *.      LDR      r3,[sp,#0xa8]
        0x00001ab6:    4ada        .J      LDR      r2,[pc,#872] ; [0x1e20] = 0x2e8f
        0x00001ab8:    601a        .`      STR      r2,[r3,#0]
        0x00001aba:    4ada        .J      LDR      r2,[pc,#872] ; [0x1e24] = 0x2e87
        0x00001abc:    605a        Z`      STR      r2,[r3,#4]
        0x00001abe:    4ada        .J      LDR      r2,[pc,#872] ; [0x1e28] = 0x2e99
        0x00001ac0:    609a        .`      STR      r2,[r3,#8]
        0x00001ac2:    4ada        .J      LDR      r2,[pc,#872] ; [0x1e2c] = 0x2ded
        0x00001ac4:    60da        .`      STR      r2,[r3,#0xc]
        0x00001ac6:    4ada        .J      LDR      r2,[pc,#872] ; [0x1e30] = 0x2de5
        0x00001ac8:    611a        .a      STR      r2,[r3,#0x10]
        0x00001aca:    4ada        .J      LDR      r2,[pc,#872] ; [0x1e34] = 0x2df5
        0x00001acc:    615a        Za      STR      r2,[r3,#0x14]
        0x00001ace:    4ada        .J      LDR      r2,[pc,#872] ; [0x1e38] = 0x2e6b
        0x00001ad0:    619a        .a      STR      r2,[r3,#0x18]
        0x00001ad2:    4ada        .J      LDR      r2,[pc,#872] ; [0x1e3c] = 0x2e63
        0x00001ad4:    61da        .a      STR      r2,[r3,#0x1c]
        0x00001ad6:    4ada        .J      LDR      r2,[pc,#872] ; [0x1e40] = 0x2e73
        0x00001ad8:    621a        .b      STR      r2,[r3,#0x20]
        0x00001ada:    4ada        .J      LDR      r2,[pc,#872] ; [0x1e44] = 0x2e53
        0x00001adc:    629a        .b      STR      r2,[r3,#0x28]
        0x00001ade:    4ada        .J      LDR      r2,[pc,#872] ; [0x1e48] = 0x2e09
        0x00001ae0:    625a        Zb      STR      r2,[r3,#0x24]
        0x00001ae2:    f7fefba4    ....    BL       __aeabi_memclr ; 0x22e
        0x00001ae6:    981b        ..      LDR      r0,[sp,#0x6c]
        0x00001ae8:    49d8        .I      LDR      r1,[pc,#864] ; [0x1e4c] = 0x200016b4
        0x00001aea:    680b        .h      LDR      r3,[r1,#0]
        0x00001aec:    4ad8        .J      LDR      r2,[pc,#864] ; [0x1e50] = 0x687c
        0x00001aee:    2120         !      MOVS     r1,#0x20
        0x00001af0:    9124        $.      STR      r1,[sp,#0x90]
        0x00001af2:    f002fde1    ....    BL       __0snprintf ; 0x46b8
        0x00001af6:    a859        Y.      ADD      r0,sp,#0x164
        0x00001af8:    f001f87a    ..z.    BL       st7789_info ; 0x2bf0
        0x00001afc:    982a        *.      LDR      r0,[sp,#0xa8]
        0x00001afe:    f001f8c3    ....    BL       st7789_init ; 0x2c88
        0x00001b02:    4601        .F      MOV      r1,r0
        0x00001b04:    982a        *.      LDR      r0,[sp,#0xa8]
        0x00001b06:    4cd3        .L      LDR      r4,[pc,#844] ; [0x1e54] = 0x200016b8
        0x00001b08:    942b        +.      STR      r4,[sp,#0xac]
        0x00001b0a:    7021        !p      STRB     r1,[r4,#0]
        0x00001b0c:    21f0        .!      MOVS     r1,#0xf0
        0x00001b0e:    911c        ..      STR      r1,[sp,#0x70]
        0x00001b10:    f001faac    ....    BL       st7789_set_column ; 0x306c
        0x00001b14:    991c        ..      LDR      r1,[sp,#0x70]
        0x00001b16:    4602        .F      MOV      r2,r0
        0x00001b18:    982a        *.      LDR      r0,[sp,#0xa8]
        0x00001b1a:    7022        "p      STRB     r2,[r4,#0]
        0x00001b1c:    f002f9e3    ....    BL       st7789_set_row ; 0x3ee6
        0x00001b20:    4601        .F      MOV      r1,r0
        0x00001b22:    982a        *.      LDR      r0,[sp,#0xa8]
        0x00001b24:    7021        !p      STRB     r1,[r4,#0]
        0x00001b26:    f002fb87    ....    BL       st7789_sleep_out ; 0x4238
        0x00001b2a:    4601        .F      MOV      r1,r0
        0x00001b2c:    982a        *.      LDR      r0,[sp,#0xa8]
        0x00001b2e:    7021        !p      STRB     r1,[r4,#0]
        0x00001b30:    f001f836    ..6.    BL       st7789_idle_mode_off ; 0x2ba0
        0x00001b34:    4601        .F      MOV      r1,r0
        0x00001b36:    982a        *.      LDR      r0,[sp,#0xa8]
        0x00001b38:    7021        !p      STRB     r1,[r4,#0]
        0x00001b3a:    f001f9bb    ....    BL       st7789_normal_display_mode_on ; 0x2eb4
        0x00001b3e:    4601        .F      MOV      r1,r0
        0x00001b40:    982a        *.      LDR      r0,[sp,#0xa8]
        0x00001b42:    7021        !p      STRB     r1,[r4,#0]
        0x00001b44:    f000fd5d    ..].    BL       st7789_display_inversion_on ; 0x2602
        0x00001b48:    4601        .F      MOV      r1,r0
        0x00001b4a:    982a        *.      LDR      r0,[sp,#0xa8]
        0x00001b4c:    7021        !p      STRB     r1,[r4,#0]
        0x00001b4e:    2101        .!      MOVS     r1,#1
        0x00001b50:    9123        #.      STR      r1,[sp,#0x8c]
        0x00001b52:    f001fcfc    ....    BL       st7789_set_gamma ; 0x354e
        0x00001b56:    992c        ,.      LDR      r1,[sp,#0xb0]
        0x00001b58:    4602        .F      MOV      r2,r0
        0x00001b5a:    982a        *.      LDR      r0,[sp,#0xa8]
        0x00001b5c:    7022        "p      STRB     r2,[r4,#0]
        0x00001b5e:    f001feae    ....    BL       st7789_set_memory_data_access_control ; 0x38be
        0x00001b62:    4601        .F      MOV      r1,r0
        0x00001b64:    982a        *.      LDR      r0,[sp,#0xa8]
        0x00001b66:    7021        !p      STRB     r1,[r4,#0]
        0x00001b68:    2106        .!      MOVS     r1,#6
        0x00001b6a:    2205        ."      MOVS     r2,#5
        0x00001b6c:    921f        ..      STR      r2,[sp,#0x7c]
        0x00001b6e:    f001fe1a    ....    BL       st7789_set_interface_pixel_format ; 0x37a6
        0x00001b72:    4601        .F      MOV      r1,r0
        0x00001b74:    982a        *.      LDR      r0,[sp,#0xa8]
        0x00001b76:    7021        !p      STRB     r1,[r4,#0]
        0x00001b78:    21ff        .!      MOVS     r1,#0xff
        0x00001b7a:    f001fb7b    ..{.    BL       st7789_set_display_brightness ; 0x3274
        0x00001b7e:    9b2c        ,.      LDR      r3,[sp,#0xb0]
        0x00001b80:    4601        .F      MOV      r1,r0
        0x00001b82:    982a        *.      LDR      r0,[sp,#0xa8]
        0x00001b84:    7021        !p      STRB     r1,[r4,#0]
        0x00001b86:    4619        .F      MOV      r1,r3
        0x00001b88:    461a        .F      MOV      r2,r3
        0x00001b8a:    f001fba8    ....    BL       st7789_set_display_control ; 0x32de
        0x00001b8e:    9a23        #.      LDR      r2,[sp,#0x8c]
        0x00001b90:    4601        .F      MOV      r1,r0
        0x00001b92:    982a        *.      LDR      r0,[sp,#0xa8]
        0x00001b94:    7021        !p      STRB     r1,[r4,#0]
        0x00001b96:    2303        .#      MOVS     r3,#3
        0x00001b98:    931d        ..      STR      r3,[sp,#0x74]
        0x00001b9a:    4611        .F      MOV      r1,r2
        0x00001b9c:    f001f9b1    ....    BL       st7789_set_brightness_control_and_color_enhancement ; 0x2f02
        0x00001ba0:    992c        ,.      LDR      r1,[sp,#0xb0]
        0x00001ba2:    4602        .F      MOV      r2,r0
        0x00001ba4:    982a        *.      LDR      r0,[sp,#0xa8]
        0x00001ba6:    7022        "p      STRB     r2,[r4,#0]
        0x00001ba8:    f001fa2b    ..+.    BL       st7789_set_cabc_minimum_brightness ; 0x3002
        0x00001bac:    9b2c        ,.      LDR      r3,[sp,#0xb0]
        0x00001bae:    4601        .F      MOV      r1,r0
        0x00001bb0:    982a        *.      LDR      r0,[sp,#0xa8]
        0x00001bb2:    7021        !p      STRB     r1,[r4,#0]
        0x00001bb4:    9302        ..      STR      r3,[sp,#8]
        0x00001bb6:    9301        ..      STR      r3,[sp,#4]
        0x00001bb8:    9300        ..      STR      r3,[sp,#0]
        0x00001bba:    4619        .F      MOV      r1,r3
        0x00001bbc:    461a        .F      MOV      r2,r3
        0x00001bbe:    f002f8db    ....    BL       st7789_set_ram_control ; 0x3d78
        0x00001bc2:    9b2c        ,.      LDR      r3,[sp,#0xb0]
        0x00001bc4:    4601        .F      MOV      r1,r0
        0x00001bc6:    982a        *.      LDR      r0,[sp,#0xa8]
        0x00001bc8:    7021        !p      STRB     r1,[r4,#0]
        0x00001bca:    2114        .!      MOVS     r1,#0x14
        0x00001bcc:    9104        ..      STR      r1,[sp,#0x10]
        0x00001bce:    2102        .!      MOVS     r1,#2
        0x00001bd0:    9122        ".      STR      r1,[sp,#0x88]
        0x00001bd2:    9103        ..      STR      r1,[sp,#0xc]
        0x00001bd4:    9302        ..      STR      r3,[sp,#8]
        0x00001bd6:    9301        ..      STR      r3,[sp,#4]
        0x00001bd8:    9300        ..      STR      r3,[sp,#0]
        0x00001bda:    4619        .F      MOV      r1,r3
        0x00001bdc:    461a        .F      MOV      r2,r3
        0x00001bde:    f002f914    ....    BL       st7789_set_rgb_interface_control ; 0x3e0a
        0x00001be2:    991d        ..      LDR      r1,[sp,#0x74]
        0x00001be4:    9b2c        ,.      LDR      r3,[sp,#0xb0]
        0x00001be6:    4602        .F      MOV      r2,r0
        0x00001be8:    982a        *.      LDR      r0,[sp,#0xa8]
        0x00001bea:    7022        "p      STRB     r2,[r4,#0]
        0x00001bec:    9103        ..      STR      r1,[sp,#0xc]
        0x00001bee:    9102        ..      STR      r1,[sp,#8]
        0x00001bf0:    9101        ..      STR      r1,[sp,#4]
        0x00001bf2:    9100        ..      STR      r1,[sp,#0]
        0x00001bf4:    220c        ."      MOVS     r2,#0xc
        0x00001bf6:    9228        (.      STR      r2,[sp,#0xa0]
        0x00001bf8:    4611        .F      MOV      r1,r2
        0x00001bfa:    f001ff07    ....    BL       st7789_set_porch ; 0x3a0c
        0x00001bfe:    9b2c        ,.      LDR      r3,[sp,#0xb0]
        0x00001c00:    4601        .F      MOV      r1,r0
        0x00001c02:    982a        *.      LDR      r0,[sp,#0xa8]
        0x00001c04:    7021        !p      STRB     r1,[r4,#0]
        0x00001c06:    210f        .!      MOVS     r1,#0xf
        0x00001c08:    9121        !.      STR      r1,[sp,#0x84]
        0x00001c0a:    9102        ..      STR      r1,[sp,#8]
        0x00001c0c:    9301        ..      STR      r3,[sp,#4]
        0x00001c0e:    9100        ..      STR      r1,[sp,#0]
        0x00001c10:    4619        .F      MOV      r1,r3
        0x00001c12:    461a        .F      MOV      r2,r3
        0x00001c14:    f001fc36    ..6.    BL       st7789_set_frame_rate_control ; 0x3484
        0x00001c18:    9b2c        ,.      LDR      r3,[sp,#0xb0]
        0x00001c1a:    4601        .F      MOV      r1,r0
        0x00001c1c:    982a        *.      LDR      r0,[sp,#0xa8]
        0x00001c1e:    7021        !p      STRB     r1,[r4,#0]
        0x00001c20:    4619        .F      MOV      r1,r3
        0x00001c22:    461a        .F      MOV      r2,r3
        0x00001c24:    f001feb4    ....    BL       st7789_set_partial_mode_control ; 0x3990
        0x00001c28:    9a22        ".      LDR      r2,[sp,#0x88]
        0x00001c2a:    4601        .F      MOV      r1,r0
        0x00001c2c:    982a        *.      LDR      r0,[sp,#0xa8]
        0x00001c2e:    7021        !p      STRB     r1,[r4,#0]
        0x00001c30:    2107        .!      MOVS     r1,#7
        0x00001c32:    911e        ..      STR      r1,[sp,#0x78]
        0x00001c34:    f001fd18    ....    BL       st7789_set_gate_control ; 0x3668
        0x00001c38:    9a1e        ..      LDR      r2,[sp,#0x78]
        0x00001c3a:    9b1f        ..      LDR      r3,[sp,#0x7c]
        0x00001c3c:    4601        .F      MOV      r1,r0
        0x00001c3e:    982a        *.      LDR      r0,[sp,#0xa8]
        0x00001c40:    7021        !p      STRB     r1,[r4,#0]
        0x00001c42:    2122        "!      MOVS     r1,#0x22
        0x00001c44:    f001fd4a    ..J.    BL       st7789_set_gate_on_timing_adjustment ; 0x36dc
        0x00001c48:    9923        #.      LDR      r1,[sp,#0x8c]
        0x00001c4a:    4602        .F      MOV      r2,r0
        0x00001c4c:    982a        *.      LDR      r0,[sp,#0xa8]
        0x00001c4e:    7022        "p      STRB     r2,[r4,#0]
        0x00001c50:    f001fa71    ..q.    BL       st7789_set_digital_gamma ; 0x3136
        0x00001c54:    4601        .F      MOV      r1,r0
        0x00001c56:    982a        *.      LDR      r0,[sp,#0xa8]
        0x00001c58:    7021        !p      STRB     r1,[r4,#0]
        0x00001c5a:    497f        .I      LDR      r1,[pc,#508] ; [0x1e58] = 0x3fd00000
        0x00001c5c:    aa87        ..      ADD      r2,sp,#0x21c
        0x00001c5e:    9220         .      STR      r2,[sp,#0x80]
        0x00001c60:    f002fb16    ....    BL       st7789_vcom_convert_to_register ; 0x4290
        0x00001c64:    9920         .      LDR      r1,[sp,#0x80]
        0x00001c66:    4602        .F      MOV      r2,r0
        0x00001c68:    982a        *.      LDR      r0,[sp,#0xa8]
        0x00001c6a:    7022        "p      STRB     r2,[r4,#0]
        0x00001c6c:    7809        .x      LDRB     r1,[r1,#0]
        0x00001c6e:    f002f99f    ....    BL       st7789_set_vcoms ; 0x3fb0
        0x00001c72:    9a23        #.      LDR      r2,[sp,#0x8c]
        0x00001c74:    9b2c        ,.      LDR      r3,[sp,#0xb0]
        0x00001c76:    4601        .F      MOV      r1,r0
        0x00001c78:    982a        *.      LDR      r0,[sp,#0xa8]
        0x00001c7a:    7021        !p      STRB     r1,[r4,#0]
        0x00001c7c:    9303        ..      STR      r3,[sp,#0xc]
        0x00001c7e:    9302        ..      STR      r3,[sp,#8]
        0x00001c80:    9201        ..      STR      r2,[sp,#4]
        0x00001c82:    9200        ..      STR      r2,[sp,#0]
        0x00001c84:    4619        .F      MOV      r1,r3
        0x00001c86:    f001fdcc    ....    BL       st7789_set_lcm_control ; 0x3822
        0x00001c8a:    9923        #.      LDR      r1,[sp,#0x8c]
        0x00001c8c:    4602        .F      MOV      r2,r0
        0x00001c8e:    982a        *.      LDR      r0,[sp,#0xa8]
        0x00001c90:    7022        "p      STRB     r2,[r4,#0]
        0x00001c92:    f002fa56    ..V.    BL       st7789_set_vdv_vrh_from ; 0x4142
        0x00001c96:    9a20         .      LDR      r2,[sp,#0x80]
        0x00001c98:    4601        .F      MOV      r1,r0
        0x00001c9a:    982a        *.      LDR      r0,[sp,#0xa8]
        0x00001c9c:    7021        !p      STRB     r1,[r4,#0]
        0x00001c9e:    496f        oI      LDR      r1,[pc,#444] ; [0x1e5c] = 0x4099999a
        0x00001ca0:    f002fb7a    ..z.    BL       st7789_vrhs_convert_to_register ; 0x4398
        0x00001ca4:    9920         .      LDR      r1,[sp,#0x80]
        0x00001ca6:    4602        .F      MOV      r2,r0
        0x00001ca8:    982a        *.      LDR      r0,[sp,#0xa8]
        0x00001caa:    7022        "p      STRB     r2,[r4,#0]
        0x00001cac:    7809        .x      LDRB     r1,[r1,#0]
        0x00001cae:    f002fa80    ....    BL       st7789_set_vrhs ; 0x41b2
        0x00001cb2:    9a20         .      LDR      r2,[sp,#0x80]
        0x00001cb4:    992c        ,.      LDR      r1,[sp,#0xb0]
        0x00001cb6:    4603        .F      MOV      r3,r0
        0x00001cb8:    982a        *.      LDR      r0,[sp,#0xa8]
        0x00001cba:    7023        #p      STRB     r3,[r4,#0]
        0x00001cbc:    f002fb3e    ..>.    BL       st7789_vdv_convert_to_register ; 0x433c
        0x00001cc0:    9920         .      LDR      r1,[sp,#0x80]
        0x00001cc2:    4602        .F      MOV      r2,r0
        0x00001cc4:    982a        *.      LDR      r0,[sp,#0xa8]
        0x00001cc6:    7022        "p      STRB     r2,[r4,#0]
        0x00001cc8:    7809        .x      LDRB     r1,[r1,#0]
        0x00001cca:    f002f9f7    ....    BL       st7789_set_vdv ; 0x40bc
        0x00001cce:    9a20         .      LDR      r2,[sp,#0x80]
        0x00001cd0:    992c        ,.      LDR      r1,[sp,#0xb0]
        0x00001cd2:    4603        .F      MOV      r3,r0
        0x00001cd4:    982a        *.      LDR      r0,[sp,#0xa8]
        0x00001cd6:    7023        #p      STRB     r3,[r4,#0]
        0x00001cd8:    f002fb06    ....    BL       st7789_vcoms_offset_convert_to_register ; 0x42e8
        0x00001cdc:    9920         .      LDR      r1,[sp,#0x80]
        0x00001cde:    4602        .F      MOV      r2,r0
        0x00001ce0:    982a        *.      LDR      r0,[sp,#0xa8]
        0x00001ce2:    7022        "p      STRB     r2,[r4,#0]
        0x00001ce4:    7809        .x      LDRB     r1,[r1,#0]
        0x00001ce6:    f002f9a6    ....    BL       st7789_set_vcoms_offset ; 0x4036
        0x00001cea:    9a21        !.      LDR      r2,[sp,#0x84]
        0x00001cec:    992c        ,.      LDR      r1,[sp,#0xb0]
        0x00001cee:    4603        .F      MOV      r3,r0
        0x00001cf0:    982a        *.      LDR      r0,[sp,#0xa8]
        0x00001cf2:    7023        #p      STRB     r3,[r4,#0]
        0x00001cf4:    f001fb8c    ....    BL       st7789_set_frame_rate ; 0x3410
        0x00001cf8:    9b2c        ,.      LDR      r3,[sp,#0xb0]
        0x00001cfa:    4601        .F      MOV      r1,r0
        0x00001cfc:    982a        *.      LDR      r0,[sp,#0xa8]
        0x00001cfe:    7021        !p      STRB     r1,[r4,#0]
        0x00001d00:    9300        ..      STR      r3,[sp,#0]
        0x00001d02:    4619        .F      MOV      r1,r3
        0x00001d04:    461a        .F      MOV      r2,r3
        0x00001d06:    f001f93a    ..:.    BL       st7789_set_cabc_control ; 0x2f7e
        0x00001d0a:    9922        ".      LDR      r1,[sp,#0x88]
        0x00001d0c:    4602        .F      MOV      r2,r0
        0x00001d0e:    982a        *.      LDR      r0,[sp,#0xa8]
        0x00001d10:    7022        "p      STRB     r2,[r4,#0]
        0x00001d12:    f001fffb    ....    BL       st7789_set_pwm_frequency ; 0x3d0c
        0x00001d16:    9a22        ".      LDR      r2,[sp,#0x88]
        0x00001d18:    9b23        #.      LDR      r3,[sp,#0x8c]
        0x00001d1a:    4601        .F      MOV      r1,r0
        0x00001d1c:    982a        *.      LDR      r0,[sp,#0xa8]
        0x00001d1e:    7021        !p      STRB     r1,[r4,#0]
        0x00001d20:    4611        .F      MOV      r1,r2
        0x00001d22:    f001ff3c    ..<.    BL       st7789_set_power_control_1 ; 0x3b9e
        0x00001d26:    9b2b        +.      LDR      r3,[sp,#0xac]
        0x00001d28:    992c        ,.      LDR      r1,[sp,#0xb0]
        0x00001d2a:    4602        .F      MOV      r2,r0
        0x00001d2c:    982a        *.      LDR      r0,[sp,#0xa8]
        0x00001d2e:    701a        .p      STRB     r2,[r3,#0]
        0x00001d30:    f001f9c5    ....    BL       st7789_set_command_2_enable ; 0x30be
        0x00001d34:    9a2b        +.      LDR      r2,[sp,#0xac]
        0x00001d36:    4601        .F      MOV      r1,r0
        0x00001d38:    982a        *.      LDR      r0,[sp,#0xa8]
        0x00001d3a:    7011        .p      STRB     r1,[r2,#0]
        0x00001d3c:    a981        ..      ADD      r1,sp,#0x204
        0x00001d3e:    9129        ).      STR      r1,[sp,#0xa4]
        0x00001d40:    22d0        ."      MOVS     r2,#0xd0
        0x00001d42:    9226        &.      STR      r2,[sp,#0x98]
        0x00001d44:    700a        .p      STRB     r2,[r1,#0]
        0x00001d46:    2204        ."      MOVS     r2,#4
        0x00001d48:    9227        '.      STR      r2,[sp,#0x9c]
        0x00001d4a:    704a        Jp      STRB     r2,[r1,#1]
        0x00001d4c:    220d        ."      MOVS     r2,#0xd
        0x00001d4e:    708a        .p      STRB     r2,[r1,#2]
        0x00001d50:    2711        .'      MOVS     r7,#0x11
        0x00001d52:    70cf        .p      STRB     r7,[r1,#3]
        0x00001d54:    2613        .&      MOVS     r6,#0x13
        0x00001d56:    710e        .q      STRB     r6,[r1,#4]
        0x00001d58:    232b        +#      MOVS     r3,#0x2b
        0x00001d5a:    714b        Kq      STRB     r3,[r1,#5]
        0x00001d5c:    253f        ?%      MOVS     r5,#0x3f
        0x00001d5e:    718d        .q      STRB     r5,[r1,#6]
        0x00001d60:    2354        T#      MOVS     r3,#0x54
        0x00001d62:    71cb        .q      STRB     r3,[r1,#7]
        0x00001d64:    234c        L#      MOVS     r3,#0x4c
        0x00001d66:    720b        .r      STRB     r3,[r1,#8]
        0x00001d68:    2318        .#      MOVS     r3,#0x18
        0x00001d6a:    724b        Kr      STRB     r3,[r1,#9]
        0x00001d6c:    728a        .r      STRB     r2,[r1,#0xa]
        0x00001d6e:    220b        ."      MOVS     r2,#0xb
        0x00001d70:    72ca        .r      STRB     r2,[r1,#0xb]
        0x00001d72:    241f        .$      MOVS     r4,#0x1f
        0x00001d74:    730c        .s      STRB     r4,[r1,#0xc]
        0x00001d76:    2223        #"      MOVS     r2,#0x23
        0x00001d78:    9225        %.      STR      r2,[sp,#0x94]
        0x00001d7a:    734a        Js      STRB     r2,[r1,#0xd]
        0x00001d7c:    f001fedb    ....    BL       st7789_set_positive_voltage_gamma_control ; 0x3b36
        0x00001d80:    9b24        $.      LDR      r3,[sp,#0x90]
        0x00001d82:    9a25        %.      LDR      r2,[sp,#0x94]
        0x00001d84:    4601        .F      MOV      r1,r0
        0x00001d86:    982b        +.      LDR      r0,[sp,#0xac]
        0x00001d88:    7001        .p      STRB     r1,[r0,#0]
        0x00001d8a:    9826        &.      LDR      r0,[sp,#0x98]
        0x00001d8c:    9929        ).      LDR      r1,[sp,#0xa4]
        0x00001d8e:    7008        .p      STRB     r0,[r1,#0]
        0x00001d90:    9927        '.      LDR      r1,[sp,#0x9c]
        0x00001d92:    9829        ).      LDR      r0,[sp,#0xa4]
        0x00001d94:    7041        Ap      STRB     r1,[r0,#1]
        0x00001d96:    9828        (.      LDR      r0,[sp,#0xa0]
        0x00001d98:    9929        ).      LDR      r1,[sp,#0xa4]
        0x00001d9a:    7088        .p      STRB     r0,[r1,#2]
        0x00001d9c:    982a        *.      LDR      r0,[sp,#0xa8]
        0x00001d9e:    70cf        .p      STRB     r7,[r1,#3]
        0x00001da0:    710e        .q      STRB     r6,[r1,#4]
        0x00001da2:    262c        ,&      MOVS     r6,#0x2c
        0x00001da4:    714e        Nq      STRB     r6,[r1,#5]
        0x00001da6:    718d        .q      STRB     r5,[r1,#6]
        0x00001da8:    2544        D%      MOVS     r5,#0x44
        0x00001daa:    71cd        .q      STRB     r5,[r1,#7]
        0x00001dac:    2551        Q%      MOVS     r5,#0x51
        0x00001dae:    720d        .r      STRB     r5,[r1,#8]
        0x00001db0:    252f        /%      MOVS     r5,#0x2f
        0x00001db2:    724d        Mr      STRB     r5,[r1,#9]
        0x00001db4:    728c        .r      STRB     r4,[r1,#0xa]
        0x00001db6:    72cc        .r      STRB     r4,[r1,#0xb]
        0x00001db8:    730b        .s      STRB     r3,[r1,#0xc]
        0x00001dba:    734a        Js      STRB     r2,[r1,#0xd]
        0x00001dbc:    f001fdb4    ....    BL       st7789_set_negative_voltage_gamma_control ; 0x3928
        0x00001dc0:    9a2b        +.      LDR      r2,[sp,#0xac]
        0x00001dc2:    4601        .F      MOV      r1,r0
        0x00001dc4:    982c        ,.      LDR      r0,[sp,#0xb0]
        0x00001dc6:    7011        .p      STRB     r1,[r2,#0]
        0x00001dc8:    a986        ..      ADD      r1,sp,#0x218
        0x00001dca:    8008        ..      STRH     r0,[r1,#0]
        0x00001dcc:    e7ff        ..      B        0x1dce ; main + 966
        0x00001dce:    a886        ..      ADD      r0,sp,#0x218
        0x00001dd0:    8800        ..      LDRH     r0,[r0,#0]
        0x00001dd2:    283f        ?(      CMP      r0,#0x3f
        0x00001dd4:    dc44        D.      BGT      0x1e60 ; 0x1e60
        0x00001dd6:    e7ff        ..      B        0x1dd8 ; main + 976
        0x00001dd8:    a886        ..      ADD      r0,sp,#0x218
        0x00001dda:    8802        ..      LDRH     r2,[r0,#0]
        0x00001ddc:    0090        ..      LSLS     r0,r2,#2
        0x00001dde:    a971        q.      ADD      r1,sp,#0x1c4
        0x00001de0:    5488        .T      STRB     r0,[r1,r2]
        0x00001de2:    e7ff        ..      B        0x1de4 ; main + 988
        0x00001de4:    9886        ..      LDR      r0,[sp,#0x218]
        0x00001de6:    1c40        @.      ADDS     r0,r0,#1
        0x00001de8:    a986        ..      ADD      r1,sp,#0x218
        0x00001dea:    8008        ..      STRH     r0,[r1,#0]
        0x00001dec:    e7ef        ..      B        0x1dce ; main + 966
        0x00001dee:    46c0        .F      MOV      r8,r8
    $d.5
    __arm_cp.2_28
        0x00001df0:    74736554    Test    DCD    1953719636
    __arm_cp.2_29
        0x00001df4:    00003938    89..    DCD    14648
    __arm_cp.2_30
        0x00001df8:    37377473    st77    DCD    926381171
    __arm_cp.2_31
        0x00001dfc:    00006362    bc..    DCD    25442
    __arm_cp.2_32
        0x00001e00:    61434241    ABCa    DCD    1631797825
    __arm_cp.2_33
        0x00001e04:    25242321    !#$%    DCD    623125281
    __arm_cp.2_34
        0x00001e08:    3f333231    123?    DCD    1060319793
    __arm_cp.2_35
        0x00001e0c:    00005079    yP..    DCD    20601
        0x00001e10:    0000ffff    ....    DCD    65535
    __arm_cp.2_37
        0x00001e14:    00005048    HP..    DCD    20552
        0x00001e18:    20000074    t..     DCD    536871028
    __arm_cp.2_39
        0x00001e1c:    0000103c    <...    DCD    4156
    __arm_cp.2_40
        0x00001e20:    00002e8f    ....    DCD    11919
    __arm_cp.2_41
        0x00001e24:    00002e87    ....    DCD    11911
    __arm_cp.2_42
        0x00001e28:    00002e99    ....    DCD    11929
    __arm_cp.2_43
        0x00001e2c:    00002ded    .-..    DCD    11757
    __arm_cp.2_44
        0x00001e30:    00002de5    .-..    DCD    11749
    __arm_cp.2_45
        0x00001e34:    00002df5    .-..    DCD    11765
    __arm_cp.2_46
        0x00001e38:    00002e6b    k...    DCD    11883
    __arm_cp.2_47
        0x00001e3c:    00002e63    c...    DCD    11875
    __arm_cp.2_48
        0x00001e40:    00002e73    s...    DCD    11891
    __arm_cp.2_49
        0x00001e44:    00002e53    S...    DCD    11859
    __arm_cp.2_50
        0x00001e48:    00002e09    ....    DCD    11785
    __arm_cp.2_51
        0x00001e4c:    200016b4    ...     DCD    536876724
    __arm_cp.2_52
        0x00001e50:    0000687c    |h..    DCD    26748
        0x00001e54:    200016b8    ...     DCD    536876728
    __arm_cp.2_54
        0x00001e58:    3fd00000    ...?    DCD    1070596096
    __arm_cp.2_55
        0x00001e5c:    4099999a    ...@    DCD    1083808154
    $t.6
        0x00001e60:    48dc        .H      LDR      r0,[pc,#880] ; [0x21d4] = 0x20000074
        0x00001e62:    9017        ..      STR      r0,[sp,#0x5c]
        0x00001e64:    a971        q.      ADD      r1,sp,#0x1c4
        0x00001e66:    9108        ..      STR      r1,[sp,#0x20]
        0x00001e68:    f001f9d0    ....    BL       st7789_set_digital_gamma_look_up_table_red ; 0x320c
        0x00001e6c:    9908        ..      LDR      r1,[sp,#0x20]
        0x00001e6e:    4602        .F      MOV      r2,r0
        0x00001e70:    9817        ..      LDR      r0,[sp,#0x5c]
        0x00001e72:    4cd9        .L      LDR      r4,[pc,#868] ; [0x21d8] = 0x200016b8
        0x00001e74:    9418        ..      STR      r4,[sp,#0x60]
        0x00001e76:    7022        "p      STRB     r2,[r4,#0]
        0x00001e78:    f001f994    ....    BL       st7789_set_digital_gamma_look_up_table_blue ; 0x31a4
        0x00001e7c:    4601        .F      MOV      r1,r0
        0x00001e7e:    9817        ..      LDR      r0,[sp,#0x5c]
        0x00001e80:    7021        !p      STRB     r1,[r4,#0]
        0x00001e82:    f2401140    @.@.    MOVW     r1,#0x140
        0x00001e86:    aa87        ..      ADD      r2,sp,#0x21c
        0x00001e88:    9209        ..      STR      r2,[sp,#0x24]
        0x00001e8a:    f000fe65    ..e.    BL       st7789_gate_line_convert_to_register ; 0x2b58
        0x00001e8e:    9909        ..      LDR      r1,[sp,#0x24]
        0x00001e90:    4602        .F      MOV      r2,r0
        0x00001e92:    9817        ..      LDR      r0,[sp,#0x5c]
        0x00001e94:    7022        "p      STRB     r2,[r4,#0]
        0x00001e96:    7809        .x      LDRB     r1,[r1,#0]
        0x00001e98:    2300        .#      MOVS     r3,#0
        0x00001e9a:    9319        ..      STR      r3,[sp,#0x64]
        0x00001e9c:    9300        ..      STR      r3,[sp,#0]
        0x00001e9e:    461a        .F      MOV      r2,r3
        0x00001ea0:    f001fb8c    ....    BL       st7789_set_gate ; 0x35bc
        0x00001ea4:    9a19        ..      LDR      r2,[sp,#0x64]
        0x00001ea6:    4601        .F      MOV      r1,r0
        0x00001ea8:    9817        ..      LDR      r0,[sp,#0x5c]
        0x00001eaa:    7021        !p      STRB     r1,[r4,#0]
        0x00001eac:    4611        .F      MOV      r1,r2
        0x00001eae:    f002f845    ..E.    BL       st7789_set_spi2_enable ; 0x3f3c
        0x00001eb2:    4601        .F      MOV      r1,r0
        0x00001eb4:    9817        ..      LDR      r0,[sp,#0x5c]
        0x00001eb6:    7021        !p      STRB     r1,[r4,#0]
        0x00001eb8:    2101        .!      MOVS     r1,#1
        0x00001eba:    2203        ."      MOVS     r2,#3
        0x00001ebc:    f001feaf    ....    BL       st7789_set_power_control_2 ; 0x3c1e
        0x00001ec0:    4601        .F      MOV      r1,r0
        0x00001ec2:    9817        ..      LDR      r0,[sp,#0x5c]
        0x00001ec4:    7021        !p      STRB     r1,[r4,#0]
        0x00001ec6:    2211        ."      MOVS     r2,#0x11
        0x00001ec8:    2308        .#      MOVS     r3,#8
        0x00001eca:    4611        .F      MOV      r1,r2
        0x00001ecc:    f001fa46    ..F.    BL       st7789_set_equalize_time_control ; 0x335c
        0x00001ed0:    9919        ..      LDR      r1,[sp,#0x64]
        0x00001ed2:    4602        .F      MOV      r2,r0
        0x00001ed4:    9817        ..      LDR      r0,[sp,#0x5c]
        0x00001ed6:    7022        "p      STRB     r2,[r4,#0]
        0x00001ed8:    f001fedb    ....    BL       st7789_set_program_mode_enable ; 0x3c92
        0x00001edc:    4601        .F      MOV      r1,r0
        0x00001ede:    9817        ..      LDR      r0,[sp,#0x5c]
        0x00001ee0:    7021        !p      STRB     r1,[r4,#0]
        0x00001ee2:    f000fbb5    ....    BL       st7789_display_on ; 0x2650
        0x00001ee6:    4601        .F      MOV      r1,r0
        0x00001ee8:    9817        ..      LDR      r0,[sp,#0x5c]
        0x00001eea:    7021        !p      STRB     r1,[r4,#0]
        0x00001eec:    f000f9ea    ....    BL       st7789_clear ; 0x22c4
        0x00001ef0:    7020         p      STRB     r0,[r4,#0]
        0x00001ef2:    a857        W.      ADD      r0,sp,#0x15c
        0x00001ef4:    900b        ..      STR      r0,[sp,#0x2c]
        0x00001ef6:    f7fef9b2    ....    BL       strlen ; 0x25e
        0x00001efa:    9b0b        ..      LDR      r3,[sp,#0x2c]
        0x00001efc:    9a19        ..      LDR      r2,[sp,#0x64]
        0x00001efe:    4601        .F      MOV      r1,r0
        0x00001f00:    9817        ..      LDR      r0,[sp,#0x5c]
        0x00001f02:    270c        .'      MOVS     r7,#0xc
        0x00001f04:    9702        ..      STR      r7,[sp,#8]
        0x00001f06:    f64f0600    O...    MOVW     r6,#0xf800
        0x00001f0a:    9612        ..      STR      r6,[sp,#0x48]
        0x00001f0c:    9601        ..      STR      r6,[sp,#4]
        0x00001f0e:    b289        ..      UXTH     r1,r1
        0x00001f10:    9100        ..      STR      r1,[sp,#0]
        0x00001f12:    4611        .F      MOV      r1,r2
        0x00001f14:    f002fa6e    ..n.    BL       st7789_write_string ; 0x43f4
        0x00001f18:    7020         p      STRB     r0,[r4,#0]
        0x00001f1a:    a855        U.      ADD      r0,sp,#0x154
        0x00001f1c:    900d        ..      STR      r0,[sp,#0x34]
        0x00001f1e:    f7fef99e    ....    BL       strlen ; 0x25e
        0x00001f22:    9b0d        ..      LDR      r3,[sp,#0x34]
        0x00001f24:    9919        ..      LDR      r1,[sp,#0x64]
        0x00001f26:    4602        .F      MOV      r2,r0
        0x00001f28:    9817        ..      LDR      r0,[sp,#0x5c]
        0x00001f2a:    9702        ..      STR      r7,[sp,#8]
        0x00001f2c:    f24075e0    @..u    MOVW     r5,#0x7e0
        0x00001f30:    950e        ..      STR      r5,[sp,#0x38]
        0x00001f32:    9501        ..      STR      r5,[sp,#4]
        0x00001f34:    b292        ..      UXTH     r2,r2
        0x00001f36:    9200        ..      STR      r2,[sp,#0]
        0x00001f38:    2232        2"      MOVS     r2,#0x32
        0x00001f3a:    920c        ..      STR      r2,[sp,#0x30]
        0x00001f3c:    f002fa5a    ..Z.    BL       st7789_write_string ; 0x43f4
        0x00001f40:    7020         p      STRB     r0,[r4,#0]
        0x00001f42:    a853        S.      ADD      r0,sp,#0x14c
        0x00001f44:    900f        ..      STR      r0,[sp,#0x3c]
        0x00001f46:    f7fef98a    ....    BL       strlen ; 0x25e
        0x00001f4a:    9b0f        ..      LDR      r3,[sp,#0x3c]
        0x00001f4c:    9919        ..      LDR      r1,[sp,#0x64]
        0x00001f4e:    4602        .F      MOV      r2,r0
        0x00001f50:    9817        ..      LDR      r0,[sp,#0x5c]
        0x00001f52:    9702        ..      STR      r7,[sp,#8]
        0x00001f54:    253f        ?%      MOVS     r5,#0x3f
        0x00001f56:    9501        ..      STR      r5,[sp,#4]
        0x00001f58:    b292        ..      UXTH     r2,r2
        0x00001f5a:    9200        ..      STR      r2,[sp,#0]
        0x00001f5c:    2264        d"      MOVS     r2,#0x64
        0x00001f5e:    9214        ..      STR      r2,[sp,#0x50]
        0x00001f60:    f002fa48    ..H.    BL       st7789_write_string ; 0x43f4
        0x00001f64:    7020         p      STRB     r0,[r4,#0]
        0x00001f66:    a850        P.      ADD      r0,sp,#0x140
        0x00001f68:    9010        ..      STR      r0,[sp,#0x40]
        0x00001f6a:    f7fef978    ..x.    BL       strlen ; 0x25e
        0x00001f6e:    9b10        ..      LDR      r3,[sp,#0x40]
        0x00001f70:    9919        ..      LDR      r1,[sp,#0x64]
        0x00001f72:    4602        .F      MOV      r2,r0
        0x00001f74:    9817        ..      LDR      r0,[sp,#0x5c]
        0x00001f76:    9702        ..      STR      r7,[sp,#8]
        0x00001f78:    4f95        .O      LDR      r7,[pc,#596] ; [0x21d0] = 0xffff
        0x00001f7a:    9701        ..      STR      r7,[sp,#4]
        0x00001f7c:    b292        ..      UXTH     r2,r2
        0x00001f7e:    9200        ..      STR      r2,[sp,#0]
        0x00001f80:    2296        ."      MOVS     r2,#0x96
        0x00001f82:    9213        ..      STR      r2,[sp,#0x4c]
        0x00001f84:    f002fa36    ..6.    BL       st7789_write_string ; 0x43f4
        0x00001f88:    7020         p      STRB     r0,[r4,#0]
        0x00001f8a:    f24030e8    @..0    MOVW     r0,#0x3e8
        0x00001f8e:    9016        ..      STR      r0,[sp,#0x58]
        0x00001f90:    f000ff5f    .._.    BL       st7789_interface_delay_ms ; 0x2e52
        0x00001f94:    9817        ..      LDR      r0,[sp,#0x5c]
        0x00001f96:    f000f995    ....    BL       st7789_clear ; 0x22c4
        0x00001f9a:    4601        .F      MOV      r1,r0
        0x00001f9c:    980b        ..      LDR      r0,[sp,#0x2c]
        0x00001f9e:    7021        !p      STRB     r1,[r4,#0]
        0x00001fa0:    f7fef95d    ..].    BL       strlen ; 0x25e
        0x00001fa4:    9b0b        ..      LDR      r3,[sp,#0x2c]
        0x00001fa6:    9a19        ..      LDR      r2,[sp,#0x64]
        0x00001fa8:    4601        .F      MOV      r1,r0
        0x00001faa:    2010        .       MOVS     r0,#0x10
        0x00001fac:    900a        ..      STR      r0,[sp,#0x28]
        0x00001fae:    9002        ..      STR      r0,[sp,#8]
        0x00001fb0:    9817        ..      LDR      r0,[sp,#0x5c]
        0x00001fb2:    9601        ..      STR      r6,[sp,#4]
        0x00001fb4:    b289        ..      UXTH     r1,r1
        0x00001fb6:    9100        ..      STR      r1,[sp,#0]
        0x00001fb8:    4611        .F      MOV      r1,r2
        0x00001fba:    f002fa1b    ....    BL       st7789_write_string ; 0x43f4
        0x00001fbe:    4601        .F      MOV      r1,r0
        0x00001fc0:    980d        ..      LDR      r0,[sp,#0x34]
        0x00001fc2:    7021        !p      STRB     r1,[r4,#0]
        0x00001fc4:    f7fef94b    ..K.    BL       strlen ; 0x25e
        0x00001fc8:    990a        ..      LDR      r1,[sp,#0x28]
        0x00001fca:    9a0c        ..      LDR      r2,[sp,#0x30]
        0x00001fcc:    9b0d        ..      LDR      r3,[sp,#0x34]
        0x00001fce:    9102        ..      STR      r1,[sp,#8]
        0x00001fd0:    990e        ..      LDR      r1,[sp,#0x38]
        0x00001fd2:    9101        ..      STR      r1,[sp,#4]
        0x00001fd4:    9919        ..      LDR      r1,[sp,#0x64]
        0x00001fd6:    b280        ..      UXTH     r0,r0
        0x00001fd8:    9000        ..      STR      r0,[sp,#0]
        0x00001fda:    9817        ..      LDR      r0,[sp,#0x5c]
        0x00001fdc:    f002fa0a    ....    BL       st7789_write_string ; 0x43f4
        0x00001fe0:    4601        .F      MOV      r1,r0
        0x00001fe2:    980f        ..      LDR      r0,[sp,#0x3c]
        0x00001fe4:    7021        !p      STRB     r1,[r4,#0]
        0x00001fe6:    f7fef93a    ..:.    BL       strlen ; 0x25e
        0x00001fea:    990a        ..      LDR      r1,[sp,#0x28]
        0x00001fec:    9b0f        ..      LDR      r3,[sp,#0x3c]
        0x00001fee:    9a14        ..      LDR      r2,[sp,#0x50]
        0x00001ff0:    9102        ..      STR      r1,[sp,#8]
        0x00001ff2:    9919        ..      LDR      r1,[sp,#0x64]
        0x00001ff4:    9501        ..      STR      r5,[sp,#4]
        0x00001ff6:    b280        ..      UXTH     r0,r0
        0x00001ff8:    9000        ..      STR      r0,[sp,#0]
        0x00001ffa:    9817        ..      LDR      r0,[sp,#0x5c]
        0x00001ffc:    f002f9fa    ....    BL       st7789_write_string ; 0x43f4
        0x00002000:    4601        .F      MOV      r1,r0
        0x00002002:    9810        ..      LDR      r0,[sp,#0x40]
        0x00002004:    7021        !p      STRB     r1,[r4,#0]
        0x00002006:    f7fef92a    ..*.    BL       strlen ; 0x25e
        0x0000200a:    990a        ..      LDR      r1,[sp,#0x28]
        0x0000200c:    9b10        ..      LDR      r3,[sp,#0x40]
        0x0000200e:    9a13        ..      LDR      r2,[sp,#0x4c]
        0x00002010:    9102        ..      STR      r1,[sp,#8]
        0x00002012:    9919        ..      LDR      r1,[sp,#0x64]
        0x00002014:    9701        ..      STR      r7,[sp,#4]
        0x00002016:    b280        ..      UXTH     r0,r0
        0x00002018:    9000        ..      STR      r0,[sp,#0]
        0x0000201a:    9817        ..      LDR      r0,[sp,#0x5c]
        0x0000201c:    f002f9ea    ....    BL       st7789_write_string ; 0x43f4
        0x00002020:    4601        .F      MOV      r1,r0
        0x00002022:    9816        ..      LDR      r0,[sp,#0x58]
        0x00002024:    7021        !p      STRB     r1,[r4,#0]
        0x00002026:    f000ff14    ....    BL       st7789_interface_delay_ms ; 0x2e52
        0x0000202a:    9817        ..      LDR      r0,[sp,#0x5c]
        0x0000202c:    f000f94a    ..J.    BL       st7789_clear ; 0x22c4
        0x00002030:    4601        .F      MOV      r1,r0
        0x00002032:    980b        ..      LDR      r0,[sp,#0x2c]
        0x00002034:    7021        !p      STRB     r1,[r4,#0]
        0x00002036:    f7fef912    ....    BL       strlen ; 0x25e
        0x0000203a:    9b0b        ..      LDR      r3,[sp,#0x2c]
        0x0000203c:    9a19        ..      LDR      r2,[sp,#0x64]
        0x0000203e:    4601        .F      MOV      r1,r0
        0x00002040:    2018        .       MOVS     r0,#0x18
        0x00002042:    9011        ..      STR      r0,[sp,#0x44]
        0x00002044:    9002        ..      STR      r0,[sp,#8]
        0x00002046:    9817        ..      LDR      r0,[sp,#0x5c]
        0x00002048:    9601        ..      STR      r6,[sp,#4]
        0x0000204a:    b289        ..      UXTH     r1,r1
        0x0000204c:    9100        ..      STR      r1,[sp,#0]
        0x0000204e:    4611        .F      MOV      r1,r2
        0x00002050:    f002f9d0    ....    BL       st7789_write_string ; 0x43f4
        0x00002054:    4601        .F      MOV      r1,r0
        0x00002056:    980d        ..      LDR      r0,[sp,#0x34]
        0x00002058:    7021        !p      STRB     r1,[r4,#0]
        0x0000205a:    f7fef900    ....    BL       strlen ; 0x25e
        0x0000205e:    9a0c        ..      LDR      r2,[sp,#0x30]
        0x00002060:    9b0d        ..      LDR      r3,[sp,#0x34]
        0x00002062:    9911        ..      LDR      r1,[sp,#0x44]
        0x00002064:    4606        .F      MOV      r6,r0
        0x00002066:    980e        ..      LDR      r0,[sp,#0x38]
        0x00002068:    9102        ..      STR      r1,[sp,#8]
        0x0000206a:    9919        ..      LDR      r1,[sp,#0x64]
        0x0000206c:    9001        ..      STR      r0,[sp,#4]
        0x0000206e:    9817        ..      LDR      r0,[sp,#0x5c]
        0x00002070:    b2b6        ..      UXTH     r6,r6
        0x00002072:    9600        ..      STR      r6,[sp,#0]
        0x00002074:    f002f9be    ....    BL       st7789_write_string ; 0x43f4
        0x00002078:    4601        .F      MOV      r1,r0
        0x0000207a:    980f        ..      LDR      r0,[sp,#0x3c]
        0x0000207c:    7021        !p      STRB     r1,[r4,#0]
        0x0000207e:    f7fef8ee    ....    BL       strlen ; 0x25e
        0x00002082:    9b0f        ..      LDR      r3,[sp,#0x3c]
        0x00002084:    9a14        ..      LDR      r2,[sp,#0x50]
        0x00002086:    9919        ..      LDR      r1,[sp,#0x64]
        0x00002088:    4606        .F      MOV      r6,r0
        0x0000208a:    9811        ..      LDR      r0,[sp,#0x44]
        0x0000208c:    9002        ..      STR      r0,[sp,#8]
        0x0000208e:    9817        ..      LDR      r0,[sp,#0x5c]
        0x00002090:    9501        ..      STR      r5,[sp,#4]
        0x00002092:    b2b6        ..      UXTH     r6,r6
        0x00002094:    9600        ..      STR      r6,[sp,#0]
        0x00002096:    f002f9ad    ....    BL       st7789_write_string ; 0x43f4
        0x0000209a:    4601        .F      MOV      r1,r0
        0x0000209c:    9810        ..      LDR      r0,[sp,#0x40]
        0x0000209e:    7021        !p      STRB     r1,[r4,#0]
        0x000020a0:    f7fef8dd    ....    BL       strlen ; 0x25e
        0x000020a4:    9b10        ..      LDR      r3,[sp,#0x40]
        0x000020a6:    9a13        ..      LDR      r2,[sp,#0x4c]
        0x000020a8:    9919        ..      LDR      r1,[sp,#0x64]
        0x000020aa:    4606        .F      MOV      r6,r0
        0x000020ac:    9811        ..      LDR      r0,[sp,#0x44]
        0x000020ae:    9002        ..      STR      r0,[sp,#8]
        0x000020b0:    9817        ..      LDR      r0,[sp,#0x5c]
        0x000020b2:    9701        ..      STR      r7,[sp,#4]
        0x000020b4:    b2b6        ..      UXTH     r6,r6
        0x000020b6:    9600        ..      STR      r6,[sp,#0]
        0x000020b8:    f002f99c    ....    BL       st7789_write_string ; 0x43f4
        0x000020bc:    4601        .F      MOV      r1,r0
        0x000020be:    9816        ..      LDR      r0,[sp,#0x58]
        0x000020c0:    7021        !p      STRB     r1,[r4,#0]
        0x000020c2:    f000fec6    ....    BL       st7789_interface_delay_ms ; 0x2e52
        0x000020c6:    9817        ..      LDR      r0,[sp,#0x5c]
        0x000020c8:    f000f8fc    ....    BL       st7789_clear ; 0x22c4
        0x000020cc:    9912        ..      LDR      r1,[sp,#0x48]
        0x000020ce:    9b14        ..      LDR      r3,[sp,#0x50]
        0x000020d0:    9a19        ..      LDR      r2,[sp,#0x64]
        0x000020d2:    4606        .F      MOV      r6,r0
        0x000020d4:    9817        ..      LDR      r0,[sp,#0x5c]
        0x000020d6:    7026        &p      STRB     r6,[r4,#0]
        0x000020d8:    9101        ..      STR      r1,[sp,#4]
        0x000020da:    9300        ..      STR      r3,[sp,#0]
        0x000020dc:    4611        .F      MOV      r1,r2
        0x000020de:    f000fb1d    ....    BL       st7789_fill_rect ; 0x271c
        0x000020e2:    9a13        ..      LDR      r2,[sp,#0x4c]
        0x000020e4:    9b14        ..      LDR      r3,[sp,#0x50]
        0x000020e6:    9919        ..      LDR      r1,[sp,#0x64]
        0x000020e8:    4606        .F      MOV      r6,r0
        0x000020ea:    9817        ..      LDR      r0,[sp,#0x5c]
        0x000020ec:    7026        &p      STRB     r6,[r4,#0]
        0x000020ee:    9501        ..      STR      r5,[sp,#4]
        0x000020f0:    25c8        .%      MOVS     r5,#0xc8
        0x000020f2:    9515        ..      STR      r5,[sp,#0x54]
        0x000020f4:    9500        ..      STR      r5,[sp,#0]
        0x000020f6:    f000fb11    ....    BL       st7789_fill_rect ; 0x271c
        0x000020fa:    9b15        ..      LDR      r3,[sp,#0x54]
        0x000020fc:    9919        ..      LDR      r1,[sp,#0x64]
        0x000020fe:    4602        .F      MOV      r2,r0
        0x00002100:    9817        ..      LDR      r0,[sp,#0x5c]
        0x00002102:    7022        "p      STRB     r2,[r4,#0]
        0x00002104:    f64002e0    @...    MOVW     r2,#0x8e0
        0x00002108:    9201        ..      STR      r2,[sp,#4]
        0x0000210a:    f2401236    @.6.    MOVW     r2,#0x136
        0x0000210e:    9200        ..      STR      r2,[sp,#0]
        0x00002110:    f2401218    @...    MOVW     r2,#0x118
        0x00002114:    f000fb02    ....    BL       st7789_fill_rect ; 0x271c
        0x00002118:    9a18        ..      LDR      r2,[sp,#0x60]
        0x0000211a:    4601        .F      MOV      r1,r0
        0x0000211c:    9816        ..      LDR      r0,[sp,#0x58]
        0x0000211e:    7011        .p      STRB     r1,[r2,#0]
        0x00002120:    f000fe97    ....    BL       st7789_interface_delay_ms ; 0x2e52
        0x00002124:    9817        ..      LDR      r0,[sp,#0x5c]
        0x00002126:    f000f8cd    ....    BL       st7789_clear ; 0x22c4
        0x0000212a:    9a18        ..      LDR      r2,[sp,#0x60]
        0x0000212c:    4601        .F      MOV      r1,r0
        0x0000212e:    9819        ..      LDR      r0,[sp,#0x64]
        0x00002130:    7011        .p      STRB     r1,[r2,#0]
        0x00002132:    a986        ..      ADD      r1,sp,#0x218
        0x00002134:    8008        ..      STRH     r0,[r1,#0]
        0x00002136:    e7ff        ..      B        0x2138 ; 0x2138
        0x00002138:    a886        ..      ADD      r0,sp,#0x218
        0x0000213a:    8800        ..      LDRH     r0,[r0,#0]
        0x0000213c:    28ef        .(      CMP      r0,#0xef
        0x0000213e:    dc2b        +.      BGT      0x2198 ; 0x2198
        0x00002140:    e7ff        ..      B        0x2142 ; 0x2142
        0x00002142:    a985        ..      ADD      r1,sp,#0x214
        0x00002144:    2000        .       MOVS     r0,#0
        0x00002146:    8008        ..      STRH     r0,[r1,#0]
        0x00002148:    e7ff        ..      B        0x214a ; 0x214a
        0x0000214a:    a885        ..      ADD      r0,sp,#0x214
        0x0000214c:    8800        ..      LDRH     r0,[r0,#0]
        0x0000214e:    f240113f    @.?.    MOV      r1,#0x13f
        0x00002152:    4288        .B      CMP      r0,r1
        0x00002154:    dc1a        ..      BGT      0x218c ; 0x218c
        0x00002156:    e7ff        ..      B        0x2158 ; 0x2158
        0x00002158:    f7fef83e    ..>.    BL       rand ; 0x1d8
        0x0000215c:    0fc1        ..      LSRS     r1,r0,#31
        0x0000215e:    1841        A.      ADDS     r1,r0,r1
        0x00002160:    2201        ."      MOVS     r2,#1
        0x00002162:    4391        .C      BICS     r1,r1,r2
        0x00002164:    1a40        @.      SUBS     r0,r0,r1
        0x00002166:    b158        X.      CBZ      r0,0x2180 ; 0x2180
        0x00002168:    e7ff        ..      B        0x216a ; 0x216a
        0x0000216a:    a886        ..      ADD      r0,sp,#0x218
        0x0000216c:    8801        ..      LDRH     r1,[r0,#0]
        0x0000216e:    a885        ..      ADD      r0,sp,#0x214
        0x00002170:    8802        ..      LDRH     r2,[r0,#0]
        0x00002172:    4818        .H      LDR      r0,[pc,#96] ; [0x21d4] = 0x20000074
        0x00002174:    4b16        .K      LDR      r3,[pc,#88] ; [0x21d0] = 0xffff
        0x00002176:    f000fa92    ....    BL       st7789_draw_point ; 0x269e
        0x0000217a:    4917        .I      LDR      r1,[pc,#92] ; [0x21d8] = 0x200016b8
        0x0000217c:    7008        .p      STRB     r0,[r1,#0]
        0x0000217e:    e7ff        ..      B        0x2180 ; 0x2180
        0x00002180:    e7ff        ..      B        0x2182 ; 0x2182
        0x00002182:    9885        ..      LDR      r0,[sp,#0x214]
        0x00002184:    1c40        @.      ADDS     r0,r0,#1
        0x00002186:    a985        ..      ADD      r1,sp,#0x214
        0x00002188:    8008        ..      STRH     r0,[r1,#0]
        0x0000218a:    e7de        ..      B        0x214a ; 0x214a
        0x0000218c:    e7ff        ..      B        0x218e ; 0x218e
        0x0000218e:    9886        ..      LDR      r0,[sp,#0x218]
        0x00002190:    1c40        @.      ADDS     r0,r0,#1
        0x00002192:    a986        ..      ADD      r1,sp,#0x218
        0x00002194:    8008        ..      STRH     r0,[r1,#0]
        0x00002196:    e7cf        ..      B        0x2138 ; 0x2138
        0x00002198:    f24030e8    @..0    MOVW     r0,#0x3e8
        0x0000219c:    9005        ..      STR      r0,[sp,#0x14]
        0x0000219e:    f000fe58    ..X.    BL       st7789_interface_delay_ms ; 0x2e52
        0x000021a2:    480c        .H      LDR      r0,[pc,#48] ; [0x21d4] = 0x20000074
        0x000021a4:    9007        ..      STR      r0,[sp,#0x1c]
        0x000021a6:    f000f88d    ....    BL       st7789_clear ; 0x22c4
        0x000021aa:    4601        .F      MOV      r1,r0
        0x000021ac:    9805        ..      LDR      r0,[sp,#0x14]
        0x000021ae:    4a0a        .J      LDR      r2,[pc,#40] ; [0x21d8] = 0x200016b8
        0x000021b0:    9206        ..      STR      r2,[sp,#0x18]
        0x000021b2:    7011        .p      STRB     r1,[r2,#0]
        0x000021b4:    f000fe4d    ..M.    BL       st7789_interface_delay_ms ; 0x2e52
        0x000021b8:    9807        ..      LDR      r0,[sp,#0x1c]
        0x000021ba:    f000f883    ....    BL       st7789_clear ; 0x22c4
        0x000021be:    9a06        ..      LDR      r2,[sp,#0x18]
        0x000021c0:    4601        .F      MOV      r1,r0
        0x000021c2:    9807        ..      LDR      r0,[sp,#0x1c]
        0x000021c4:    7011        .p      STRB     r1,[r2,#0]
        0x000021c6:    f000f9d7    ....    BL       st7789_deinit ; 0x2578
        0x000021ca:    e7ff        ..      B        0x21cc ; 0x21cc
        0x000021cc:    e7fe        ..      B        0x21cc ; 0x21cc
        0x000021ce:    46c0        .F      MOV      r8,r8
    $d.7
    __arm_cp.2_8
        0x000021d0:    0000ffff    ....    DCD    65535
    __arm_cp.2_10
        0x000021d4:    20000074    t..     DCD    536871028
    __arm_cp.2_25
        0x000021d8:    200016b8    ...     DCD    536876728
    $t.2
    shell_init
        0x000021dc:    b580        ..      PUSH     {r7,lr}
        0x000021de:    4803        .H      LDR      r0,[pc,#12] ; [0x21ec] = 0x200010b0
        0x000021e0:    4903        .I      LDR      r1,[pc,#12] ; [0x21f0] = 0x604
        0x000021e2:    f7fef824    ..$.    BL       __aeabi_memclr ; 0x22e
        0x000021e6:    2000        .       MOVS     r0,#0
        0x000021e8:    bd80        ..      POP      {r7,pc}
        0x000021ea:    46c0        .F      MOV      r8,r8
    $d.3
    __arm_cp.1_0
        0x000021ec:    200010b0    ...     DCD    536875184
    __arm_cp.1_1
        0x000021f0:    00000604    ....    DCD    1540
    $t.6
    spi_deinit
        0x000021f4:    b580        ..      PUSH     {r7,lr}
        0x000021f6:    4819        .H      LDR      r0,[pc,#100] ; [0x225c] = 0x40061000
        0x000021f8:    f7fefe4c    ..L.    BL       SPI_Close ; 0xe94
        0x000021fc:    2000        .       MOVS     r0,#0
        0x000021fe:    bd80        ..      POP      {r7,pc}
    spi_init
        0x00002200:    b580        ..      PUSH     {r7,lr}
        0x00002202:    b084        ..      SUB      sp,sp,#0x10
        0x00002204:    9003        ..      STR      r0,[sp,#0xc]
        0x00002206:    f7fff853    ..S.    BL       SYS_UnlockReg ; 0x12b0
        0x0000220a:    480f        .H      LDR      r0,[pc,#60] ; [0x2248] = 0x6640000d
        0x0000220c:    f7fefbe8    ....    BL       CLK_EnableModuleClock ; 0x9e0
        0x00002210:    490e        .I      LDR      r1,[pc,#56] ; [0x224c] = 0x40000030
        0x00002212:    6808        .h      LDR      r0,[r1,#0]
        0x00002214:    4a0e        .J      LDR      r2,[pc,#56] ; [0x2250] = 0xffff0000
        0x00002216:    4010        .@      ANDS     r0,r0,r2
        0x00002218:    6008        .`      STR      r0,[r1,#0]
        0x0000221a:    6808        .h      LDR      r0,[r1,#0]
        0x0000221c:    4a0d        .J      LDR      r2,[pc,#52] ; [0x2254] = 0x4444
        0x0000221e:    4310        .C      ORRS     r0,r0,r2
        0x00002220:    6008        .`      STR      r0,[r1,#0]
        0x00002222:    480d        .H      LDR      r0,[pc,#52] ; [0x2258] = 0xf4240
        0x00002224:    9000        ..      STR      r0,[sp,#0]
        0x00002226:    480d        .H      LDR      r0,[pc,#52] ; [0x225c] = 0x40061000
        0x00002228:    9002        ..      STR      r0,[sp,#8]
        0x0000222a:    2100        .!      MOVS     r1,#0
        0x0000222c:    9101        ..      STR      r1,[sp,#4]
        0x0000222e:    220c        ."      MOVS     r2,#0xc
        0x00002230:    2308        .#      MOVS     r3,#8
        0x00002232:    f7fefe67    ..g.    BL       SPI_Open ; 0xf04
        0x00002236:    9a01        ..      LDR      r2,[sp,#4]
        0x00002238:    9802        ..      LDR      r0,[sp,#8]
        0x0000223a:    2101        .!      MOVS     r1,#1
        0x0000223c:    f7fefe50    ..P.    BL       SPI_EnableAutoSS ; 0xee0
        0x00002240:    f7fff9e2    ....    BL       a_spi_cs_init ; 0x1608
        0x00002244:    b004        ..      ADD      sp,sp,#0x10
        0x00002246:    bd80        ..      POP      {r7,pc}
    $d.1
    __arm_cp.0_0
        0x00002248:    6640000d    ..@f    DCD    1715470349
    __arm_cp.0_1
        0x0000224c:    40000030    0..@    DCD    1073741872
    __arm_cp.0_2
        0x00002250:    ffff0000    ....    DCD    4294901760
    __arm_cp.0_3
        0x00002254:    00004444    DD..    DCD    17476
    __arm_cp.0_4
        0x00002258:    000f4240    @B..    DCD    1000000
    __arm_cp.0_5
        0x0000225c:    40061000    ...@    DCD    1074139136
    $t.8
    spi_write_cmd
        0x00002260:    b084        ..      SUB      sp,sp,#0x10
        0x00002262:    9003        ..      STR      r0,[sp,#0xc]
        0x00002264:    a802        ..      ADD      r0,sp,#8
        0x00002266:    8001        ..      STRH     r1,[r0,#0]
        0x00002268:    4a13        .J      LDR      r2,[pc,#76] ; [0x22b8] = 0x40004870
        0x0000226a:    2100        .!      MOVS     r1,#0
        0x0000226c:    6011        .`      STR      r1,[r2,#0]
        0x0000226e:    8800        ..      LDRH     r0,[r0,#0]
        0x00002270:    2801        .(      CMP      r0,#1
        0x00002272:    db1b        ..      BLT      0x22ac ; spi_write_cmd + 76
        0x00002274:    e7ff        ..      B        0x2276 ; spi_write_cmd + 22
        0x00002276:    2000        .       MOVS     r0,#0
        0x00002278:    9000        ..      STR      r0,[sp,#0]
        0x0000227a:    e7ff        ..      B        0x227c ; spi_write_cmd + 28
        0x0000227c:    9800        ..      LDR      r0,[sp,#0]
        0x0000227e:    a902        ..      ADD      r1,sp,#8
        0x00002280:    8809        ..      LDRH     r1,[r1,#0]
        0x00002282:    4288        .B      CMP      r0,r1
        0x00002284:    d211        ..      BCS      0x22aa ; spi_write_cmd + 74
        0x00002286:    e7ff        ..      B        0x2288 ; spi_write_cmd + 40
        0x00002288:    9803        ..      LDR      r0,[sp,#0xc]
        0x0000228a:    9900        ..      LDR      r1,[sp,#0]
        0x0000228c:    5c40        @\      LDRB     r0,[r0,r1]
        0x0000228e:    490b        .I      LDR      r1,[pc,#44] ; [0x22bc] = 0x40061020
        0x00002290:    6008        .`      STR      r0,[r1,#0]
        0x00002292:    e7ff        ..      B        0x2294 ; spi_write_cmd + 52
        0x00002294:    480a        .H      LDR      r0,[pc,#40] ; [0x22c0] = 0x40061014
        0x00002296:    6800        .h      LDR      r0,[r0,#0]
        0x00002298:    07c0        ..      LSLS     r0,r0,#31
        0x0000229a:    b108        ..      CBZ      r0,0x22a0 ; spi_write_cmd + 64
        0x0000229c:    e7ff        ..      B        0x229e ; spi_write_cmd + 62
        0x0000229e:    e7f9        ..      B        0x2294 ; spi_write_cmd + 52
        0x000022a0:    e7ff        ..      B        0x22a2 ; spi_write_cmd + 66
        0x000022a2:    9800        ..      LDR      r0,[sp,#0]
        0x000022a4:    1c40        @.      ADDS     r0,r0,#1
        0x000022a6:    9000        ..      STR      r0,[sp,#0]
        0x000022a8:    e7e8        ..      B        0x227c ; spi_write_cmd + 28
        0x000022aa:    e7ff        ..      B        0x22ac ; spi_write_cmd + 76
        0x000022ac:    4902        .I      LDR      r1,[pc,#8] ; [0x22b8] = 0x40004870
        0x000022ae:    2001        .       MOVS     r0,#1
        0x000022b0:    6008        .`      STR      r0,[r1,#0]
        0x000022b2:    2000        .       MOVS     r0,#0
        0x000022b4:    b004        ..      ADD      sp,sp,#0x10
        0x000022b6:    4770        pG      BX       lr
    $d.9
    __arm_cp.4_0
        0x000022b8:    40004870    pH.@    DCD    1073760368
    __arm_cp.4_1
        0x000022bc:    40061020     ..@    DCD    1074139168
    __arm_cp.4_2
        0x000022c0:    40061014    ...@    DCD    1074139156
    $t.86
    st7789_clear
        0x000022c4:    b580        ..      PUSH     {r7,lr}
        0x000022c6:    b086        ..      SUB      sp,sp,#0x18
        0x000022c8:    9004        ..      STR      r0,[sp,#0x10]
        0x000022ca:    9804        ..      LDR      r0,[sp,#0x10]
        0x000022cc:    b920         .      CBNZ     r0,0x22d8 ; st7789_clear + 20
        0x000022ce:    e7ff        ..      B        0x22d0 ; st7789_clear + 12
        0x000022d0:    a905        ..      ADD      r1,sp,#0x14
        0x000022d2:    2002        .       MOVS     r0,#2
        0x000022d4:    7008        .p      STRB     r0,[r1,#0]
        0x000022d6:    e148        H.      B        0x256a ; st7789_clear + 678
        0x000022d8:    9804        ..      LDR      r0,[sp,#0x10]
        0x000022da:    212c        ,!      MOVS     r1,#0x2c
        0x000022dc:    5c40        @\      LDRB     r0,[r0,r1]
        0x000022de:    2801        .(      CMP      r0,#1
        0x000022e0:    d004        ..      BEQ      0x22ec ; st7789_clear + 40
        0x000022e2:    e7ff        ..      B        0x22e4 ; st7789_clear + 32
        0x000022e4:    a905        ..      ADD      r1,sp,#0x14
        0x000022e6:    2003        .       MOVS     r0,#3
        0x000022e8:    7008        .p      STRB     r0,[r1,#0]
        0x000022ea:    e13e        >.      B        0x256a ; st7789_clear + 678
        0x000022ec:    9804        ..      LDR      r0,[sp,#0x10]
        0x000022ee:    212a        *!      MOVS     r1,#0x2a
        0x000022f0:    2200        ."      MOVS     r2,#0
        0x000022f2:    f7fffb19    ....    BL       a_st7789_write_byte ; 0x1928
        0x000022f6:    b120         .      CBZ      r0,0x2302 ; st7789_clear + 62
        0x000022f8:    e7ff        ..      B        0x22fa ; st7789_clear + 54
        0x000022fa:    a905        ..      ADD      r1,sp,#0x14
        0x000022fc:    2001        .       MOVS     r0,#1
        0x000022fe:    7008        .p      STRB     r0,[r1,#0]
        0x00002300:    e133        3.      B        0x256a ; st7789_clear + 678
        0x00002302:    a903        ..      ADD      r1,sp,#0xc
        0x00002304:    2000        .       MOVS     r0,#0
        0x00002306:    7008        .p      STRB     r0,[r1,#0]
        0x00002308:    7048        Hp      STRB     r0,[r1,#1]
        0x0000230a:    9804        ..      LDR      r0,[sp,#0x10]
        0x0000230c:    8dc0        ..      LDRH     r0,[r0,#0x2e]
        0x0000230e:    1e40        @.      SUBS     r0,r0,#1
        0x00002310:    0a00        ..      LSRS     r0,r0,#8
        0x00002312:    7088        .p      STRB     r0,[r1,#2]
        0x00002314:    9804        ..      LDR      r0,[sp,#0x10]
        0x00002316:    8dc0        ..      LDRH     r0,[r0,#0x2e]
        0x00002318:    1e40        @.      SUBS     r0,r0,#1
        0x0000231a:    70c8        .p      STRB     r0,[r1,#3]
        0x0000231c:    9804        ..      LDR      r0,[sp,#0x10]
        0x0000231e:    2204        ."      MOVS     r2,#4
        0x00002320:    2301        .#      MOVS     r3,#1
        0x00002322:    f7fffb2d    ..-.    BL       a_st7789_write_bytes ; 0x1980
        0x00002326:    b120         .      CBZ      r0,0x2332 ; st7789_clear + 110
        0x00002328:    e7ff        ..      B        0x232a ; st7789_clear + 102
        0x0000232a:    a905        ..      ADD      r1,sp,#0x14
        0x0000232c:    2001        .       MOVS     r0,#1
        0x0000232e:    7008        .p      STRB     r0,[r1,#0]
        0x00002330:    e11b        ..      B        0x256a ; st7789_clear + 678
        0x00002332:    9804        ..      LDR      r0,[sp,#0x10]
        0x00002334:    212b        +!      MOVS     r1,#0x2b
        0x00002336:    2200        ."      MOVS     r2,#0
        0x00002338:    f7fffaf6    ....    BL       a_st7789_write_byte ; 0x1928
        0x0000233c:    b120         .      CBZ      r0,0x2348 ; st7789_clear + 132
        0x0000233e:    e7ff        ..      B        0x2340 ; st7789_clear + 124
        0x00002340:    a905        ..      ADD      r1,sp,#0x14
        0x00002342:    2001        .       MOVS     r0,#1
        0x00002344:    7008        .p      STRB     r0,[r1,#0]
        0x00002346:    e110        ..      B        0x256a ; st7789_clear + 678
        0x00002348:    a903        ..      ADD      r1,sp,#0xc
        0x0000234a:    2000        .       MOVS     r0,#0
        0x0000234c:    7008        .p      STRB     r0,[r1,#0]
        0x0000234e:    7048        Hp      STRB     r0,[r1,#1]
        0x00002350:    9804        ..      LDR      r0,[sp,#0x10]
        0x00002352:    8e00        ..      LDRH     r0,[r0,#0x30]
        0x00002354:    1e40        @.      SUBS     r0,r0,#1
        0x00002356:    0a00        ..      LSRS     r0,r0,#8
        0x00002358:    7088        .p      STRB     r0,[r1,#2]
        0x0000235a:    9804        ..      LDR      r0,[sp,#0x10]
        0x0000235c:    8e00        ..      LDRH     r0,[r0,#0x30]
        0x0000235e:    1e40        @.      SUBS     r0,r0,#1
        0x00002360:    70c8        .p      STRB     r0,[r1,#3]
        0x00002362:    9804        ..      LDR      r0,[sp,#0x10]
        0x00002364:    2204        ."      MOVS     r2,#4
        0x00002366:    2301        .#      MOVS     r3,#1
        0x00002368:    f7fffb0a    ....    BL       a_st7789_write_bytes ; 0x1980
        0x0000236c:    b120         .      CBZ      r0,0x2378 ; st7789_clear + 180
        0x0000236e:    e7ff        ..      B        0x2370 ; st7789_clear + 172
        0x00002370:    a905        ..      ADD      r1,sp,#0x14
        0x00002372:    2001        .       MOVS     r0,#1
        0x00002374:    7008        .p      STRB     r0,[r1,#0]
        0x00002376:    e0f8        ..      B        0x256a ; st7789_clear + 678
        0x00002378:    9804        ..      LDR      r0,[sp,#0x10]
        0x0000237a:    212c        ,!      MOVS     r1,#0x2c
        0x0000237c:    2200        ."      MOVS     r2,#0
        0x0000237e:    f7fffad3    ....    BL       a_st7789_write_byte ; 0x1928
        0x00002382:    b120         .      CBZ      r0,0x238e ; st7789_clear + 202
        0x00002384:    e7ff        ..      B        0x2386 ; st7789_clear + 194
        0x00002386:    a905        ..      ADD      r1,sp,#0x14
        0x00002388:    2001        .       MOVS     r0,#1
        0x0000238a:    7008        .p      STRB     r0,[r1,#0]
        0x0000238c:    e0ed        ..      B        0x256a ; st7789_clear + 678
        0x0000238e:    9804        ..      LDR      r0,[sp,#0x10]
        0x00002390:    2132        2!      MOVS     r1,#0x32
        0x00002392:    5c40        @\      LDRB     r0,[r0,r1]
        0x00002394:    2103        .!      MOVS     r1,#3
        0x00002396:    4008        .@      ANDS     r0,r0,r1
        0x00002398:    2803        .(      CMP      r0,#3
        0x0000239a:    d145        E.      BNE      0x2428 ; st7789_clear + 356
        0x0000239c:    e7ff        ..      B        0x239e ; st7789_clear + 218
        0x0000239e:    9804        ..      LDR      r0,[sp,#0x10]
        0x000023a0:    3033        30      ADDS     r0,r0,#0x33
        0x000023a2:    f2410100    A...    MOVW     r1,#0x1000
        0x000023a6:    f7fdff42    ..B.    BL       __aeabi_memclr ; 0x22e
        0x000023aa:    9904        ..      LDR      r1,[sp,#0x10]
        0x000023ac:    8e08        ..      LDRH     r0,[r1,#0x30]
        0x000023ae:    8dca        ..      LDRH     r2,[r1,#0x2e]
        0x000023b0:    4342        BC      MULS     r2,r0,r2
        0x000023b2:    2003        .       MOVS     r0,#3
        0x000023b4:    4601        .F      MOV      r1,r0
        0x000023b6:    4351        QC      MULS     r1,r2,r1
        0x000023b8:    0b49        I.      LSRS     r1,r1,#13
        0x000023ba:    9101        ..      STR      r1,[sp,#4]
        0x000023bc:    9904        ..      LDR      r1,[sp,#0x10]
        0x000023be:    8e0a        ..      LDRH     r2,[r1,#0x30]
        0x000023c0:    8dc9        ..      LDRH     r1,[r1,#0x2e]
        0x000023c2:    4351        QC      MULS     r1,r2,r1
        0x000023c4:    04c0        ..      LSLS     r0,r0,#19
        0x000023c6:    4348        HC      MULS     r0,r1,r0
        0x000023c8:    0d00        ..      LSRS     r0,r0,#20
        0x000023ca:    9000        ..      STR      r0,[sp,#0]
        0x000023cc:    2000        .       MOVS     r0,#0
        0x000023ce:    9002        ..      STR      r0,[sp,#8]
        0x000023d0:    e7ff        ..      B        0x23d2 ; st7789_clear + 270
        0x000023d2:    9802        ..      LDR      r0,[sp,#8]
        0x000023d4:    9901        ..      LDR      r1,[sp,#4]
        0x000023d6:    4288        .B      CMP      r0,r1
        0x000023d8:    d213        ..      BCS      0x2402 ; st7789_clear + 318
        0x000023da:    e7ff        ..      B        0x23dc ; st7789_clear + 280
        0x000023dc:    9804        ..      LDR      r0,[sp,#0x10]
        0x000023de:    4601        .F      MOV      r1,r0
        0x000023e0:    3133        31      ADDS     r1,r1,#0x33
        0x000023e2:    f2410200    A...    MOVW     r2,#0x1000
        0x000023e6:    2301        .#      MOVS     r3,#1
        0x000023e8:    f7fffaca    ....    BL       a_st7789_write_bytes ; 0x1980
        0x000023ec:    b120         .      CBZ      r0,0x23f8 ; st7789_clear + 308
        0x000023ee:    e7ff        ..      B        0x23f0 ; st7789_clear + 300
        0x000023f0:    a905        ..      ADD      r1,sp,#0x14
        0x000023f2:    2001        .       MOVS     r0,#1
        0x000023f4:    7008        .p      STRB     r0,[r1,#0]
        0x000023f6:    e0b8        ..      B        0x256a ; st7789_clear + 678
        0x000023f8:    e7ff        ..      B        0x23fa ; st7789_clear + 310
        0x000023fa:    9802        ..      LDR      r0,[sp,#8]
        0x000023fc:    1c40        @.      ADDS     r0,r0,#1
        0x000023fe:    9002        ..      STR      r0,[sp,#8]
        0x00002400:    e7e7        ..      B        0x23d2 ; st7789_clear + 270
        0x00002402:    9800        ..      LDR      r0,[sp,#0]
        0x00002404:    b178        x.      CBZ      r0,0x2426 ; st7789_clear + 354
        0x00002406:    e7ff        ..      B        0x2408 ; st7789_clear + 324
        0x00002408:    9804        ..      LDR      r0,[sp,#0x10]
        0x0000240a:    4601        .F      MOV      r1,r0
        0x0000240c:    3133        31      ADDS     r1,r1,#0x33
        0x0000240e:    466a        jF      MOV      r2,sp
        0x00002410:    8812        ..      LDRH     r2,[r2,#0]
        0x00002412:    2301        .#      MOVS     r3,#1
        0x00002414:    f7fffab4    ....    BL       a_st7789_write_bytes ; 0x1980
        0x00002418:    b120         .      CBZ      r0,0x2424 ; st7789_clear + 352
        0x0000241a:    e7ff        ..      B        0x241c ; st7789_clear + 344
        0x0000241c:    a905        ..      ADD      r1,sp,#0x14
        0x0000241e:    2001        .       MOVS     r0,#1
        0x00002420:    7008        .p      STRB     r0,[r1,#0]
        0x00002422:    e0a2        ..      B        0x256a ; st7789_clear + 678
        0x00002424:    e7ff        ..      B        0x2426 ; st7789_clear + 354
        0x00002426:    e09c        ..      B        0x2562 ; st7789_clear + 670
        0x00002428:    9804        ..      LDR      r0,[sp,#0x10]
        0x0000242a:    2132        2!      MOVS     r1,#0x32
        0x0000242c:    5c40        @\      LDRB     r0,[r0,r1]
        0x0000242e:    2105        .!      MOVS     r1,#5
        0x00002430:    4008        .@      ANDS     r0,r0,r1
        0x00002432:    2805        .(      CMP      r0,#5
        0x00002434:    d142        B.      BNE      0x24bc ; st7789_clear + 504
        0x00002436:    e7ff        ..      B        0x2438 ; st7789_clear + 372
        0x00002438:    9804        ..      LDR      r0,[sp,#0x10]
        0x0000243a:    3033        30      ADDS     r0,r0,#0x33
        0x0000243c:    f2410100    A...    MOVW     r1,#0x1000
        0x00002440:    f7fdfef5    ....    BL       __aeabi_memclr ; 0x22e
        0x00002444:    9804        ..      LDR      r0,[sp,#0x10]
        0x00002446:    8e01        ..      LDRH     r1,[r0,#0x30]
        0x00002448:    8dc0        ..      LDRH     r0,[r0,#0x2e]
        0x0000244a:    4348        HC      MULS     r0,r1,r0
        0x0000244c:    0040        @.      LSLS     r0,r0,#1
        0x0000244e:    0b00        ..      LSRS     r0,r0,#12
        0x00002450:    9001        ..      STR      r0,[sp,#4]
        0x00002452:    9804        ..      LDR      r0,[sp,#0x10]
        0x00002454:    8e01        ..      LDRH     r1,[r0,#0x30]
        0x00002456:    8dc0        ..      LDRH     r0,[r0,#0x2e]
        0x00002458:    4348        HC      MULS     r0,r1,r0
        0x0000245a:    0540        @.      LSLS     r0,r0,#21
        0x0000245c:    0d00        ..      LSRS     r0,r0,#20
        0x0000245e:    9000        ..      STR      r0,[sp,#0]
        0x00002460:    2000        .       MOVS     r0,#0
        0x00002462:    9002        ..      STR      r0,[sp,#8]
        0x00002464:    e7ff        ..      B        0x2466 ; st7789_clear + 418
        0x00002466:    9802        ..      LDR      r0,[sp,#8]
        0x00002468:    9901        ..      LDR      r1,[sp,#4]
        0x0000246a:    4288        .B      CMP      r0,r1
        0x0000246c:    d213        ..      BCS      0x2496 ; st7789_clear + 466
        0x0000246e:    e7ff        ..      B        0x2470 ; st7789_clear + 428
        0x00002470:    9804        ..      LDR      r0,[sp,#0x10]
        0x00002472:    4601        .F      MOV      r1,r0
        0x00002474:    3133        31      ADDS     r1,r1,#0x33
        0x00002476:    f2410200    A...    MOVW     r2,#0x1000
        0x0000247a:    2301        .#      MOVS     r3,#1
        0x0000247c:    f7fffa80    ....    BL       a_st7789_write_bytes ; 0x1980
        0x00002480:    b120         .      CBZ      r0,0x248c ; st7789_clear + 456
        0x00002482:    e7ff        ..      B        0x2484 ; st7789_clear + 448
        0x00002484:    a905        ..      ADD      r1,sp,#0x14
        0x00002486:    2001        .       MOVS     r0,#1
        0x00002488:    7008        .p      STRB     r0,[r1,#0]
        0x0000248a:    e06e        n.      B        0x256a ; st7789_clear + 678
        0x0000248c:    e7ff        ..      B        0x248e ; st7789_clear + 458
        0x0000248e:    9802        ..      LDR      r0,[sp,#8]
        0x00002490:    1c40        @.      ADDS     r0,r0,#1
        0x00002492:    9002        ..      STR      r0,[sp,#8]
        0x00002494:    e7e7        ..      B        0x2466 ; st7789_clear + 418
        0x00002496:    9800        ..      LDR      r0,[sp,#0]
        0x00002498:    b178        x.      CBZ      r0,0x24ba ; st7789_clear + 502
        0x0000249a:    e7ff        ..      B        0x249c ; st7789_clear + 472
        0x0000249c:    9804        ..      LDR      r0,[sp,#0x10]
        0x0000249e:    4601        .F      MOV      r1,r0
        0x000024a0:    3133        31      ADDS     r1,r1,#0x33
        0x000024a2:    466a        jF      MOV      r2,sp
        0x000024a4:    8812        ..      LDRH     r2,[r2,#0]
        0x000024a6:    2301        .#      MOVS     r3,#1
        0x000024a8:    f7fffa6a    ..j.    BL       a_st7789_write_bytes ; 0x1980
        0x000024ac:    b120         .      CBZ      r0,0x24b8 ; st7789_clear + 500
        0x000024ae:    e7ff        ..      B        0x24b0 ; st7789_clear + 492
        0x000024b0:    a905        ..      ADD      r1,sp,#0x14
        0x000024b2:    2001        .       MOVS     r0,#1
        0x000024b4:    7008        .p      STRB     r0,[r1,#0]
        0x000024b6:    e058        X.      B        0x256a ; st7789_clear + 678
        0x000024b8:    e7ff        ..      B        0x24ba ; st7789_clear + 502
        0x000024ba:    e051        Q.      B        0x2560 ; st7789_clear + 668
        0x000024bc:    9804        ..      LDR      r0,[sp,#0x10]
        0x000024be:    2132        2!      MOVS     r1,#0x32
        0x000024c0:    5c40        @\      LDRB     r0,[r0,r1]
        0x000024c2:    2106        .!      MOVS     r1,#6
        0x000024c4:    4008        .@      ANDS     r0,r0,r1
        0x000024c6:    2806        .(      CMP      r0,#6
        0x000024c8:    d145        E.      BNE      0x2556 ; st7789_clear + 658
        0x000024ca:    e7ff        ..      B        0x24cc ; st7789_clear + 520
        0x000024cc:    9804        ..      LDR      r0,[sp,#0x10]
        0x000024ce:    3033        30      ADDS     r0,r0,#0x33
        0x000024d0:    f2410100    A...    MOVW     r1,#0x1000
        0x000024d4:    f7fdfeab    ....    BL       __aeabi_memclr ; 0x22e
        0x000024d8:    9904        ..      LDR      r1,[sp,#0x10]
        0x000024da:    8e08        ..      LDRH     r0,[r1,#0x30]
        0x000024dc:    8dca        ..      LDRH     r2,[r1,#0x2e]
        0x000024de:    4342        BC      MULS     r2,r0,r2
        0x000024e0:    2003        .       MOVS     r0,#3
        0x000024e2:    4601        .F      MOV      r1,r0
        0x000024e4:    4351        QC      MULS     r1,r2,r1
        0x000024e6:    0b09        ..      LSRS     r1,r1,#12
        0x000024e8:    9101        ..      STR      r1,[sp,#4]
        0x000024ea:    9904        ..      LDR      r1,[sp,#0x10]
        0x000024ec:    8e0a        ..      LDRH     r2,[r1,#0x30]
        0x000024ee:    8dc9        ..      LDRH     r1,[r1,#0x2e]
        0x000024f0:    4351        QC      MULS     r1,r2,r1
        0x000024f2:    4348        HC      MULS     r0,r1,r0
        0x000024f4:    491f        .I      LDR      r1,[pc,#124] ; [0x2574] = 0xfff
        0x000024f6:    4008        .@      ANDS     r0,r0,r1
        0x000024f8:    9000        ..      STR      r0,[sp,#0]
        0x000024fa:    2000        .       MOVS     r0,#0
        0x000024fc:    9002        ..      STR      r0,[sp,#8]
        0x000024fe:    e7ff        ..      B        0x2500 ; st7789_clear + 572
        0x00002500:    9802        ..      LDR      r0,[sp,#8]
        0x00002502:    9901        ..      LDR      r1,[sp,#4]
        0x00002504:    4288        .B      CMP      r0,r1
        0x00002506:    d213        ..      BCS      0x2530 ; st7789_clear + 620
        0x00002508:    e7ff        ..      B        0x250a ; st7789_clear + 582
        0x0000250a:    9804        ..      LDR      r0,[sp,#0x10]
        0x0000250c:    4601        .F      MOV      r1,r0
        0x0000250e:    3133        31      ADDS     r1,r1,#0x33
        0x00002510:    f2410200    A...    MOVW     r2,#0x1000
        0x00002514:    2301        .#      MOVS     r3,#1
        0x00002516:    f7fffa33    ..3.    BL       a_st7789_write_bytes ; 0x1980
        0x0000251a:    b120         .      CBZ      r0,0x2526 ; st7789_clear + 610
        0x0000251c:    e7ff        ..      B        0x251e ; st7789_clear + 602
        0x0000251e:    a905        ..      ADD      r1,sp,#0x14
        0x00002520:    2001        .       MOVS     r0,#1
        0x00002522:    7008        .p      STRB     r0,[r1,#0]
        0x00002524:    e021        !.      B        0x256a ; st7789_clear + 678
        0x00002526:    e7ff        ..      B        0x2528 ; st7789_clear + 612
        0x00002528:    9802        ..      LDR      r0,[sp,#8]
        0x0000252a:    1c40        @.      ADDS     r0,r0,#1
        0x0000252c:    9002        ..      STR      r0,[sp,#8]
        0x0000252e:    e7e7        ..      B        0x2500 ; st7789_clear + 572
        0x00002530:    9800        ..      LDR      r0,[sp,#0]
        0x00002532:    b178        x.      CBZ      r0,0x2554 ; st7789_clear + 656
        0x00002534:    e7ff        ..      B        0x2536 ; st7789_clear + 626
        0x00002536:    9804        ..      LDR      r0,[sp,#0x10]
        0x00002538:    4601        .F      MOV      r1,r0
        0x0000253a:    3133        31      ADDS     r1,r1,#0x33
        0x0000253c:    466a        jF      MOV      r2,sp
        0x0000253e:    8812        ..      LDRH     r2,[r2,#0]
        0x00002540:    2301        .#      MOVS     r3,#1
        0x00002542:    f7fffa1d    ....    BL       a_st7789_write_bytes ; 0x1980
        0x00002546:    b120         .      CBZ      r0,0x2552 ; st7789_clear + 654
        0x00002548:    e7ff        ..      B        0x254a ; st7789_clear + 646
        0x0000254a:    a905        ..      ADD      r1,sp,#0x14
        0x0000254c:    2001        .       MOVS     r0,#1
        0x0000254e:    7008        .p      STRB     r0,[r1,#0]
        0x00002550:    e00b        ..      B        0x256a ; st7789_clear + 678
        0x00002552:    e7ff        ..      B        0x2554 ; st7789_clear + 656
        0x00002554:    e003        ..      B        0x255e ; st7789_clear + 666
        0x00002556:    a905        ..      ADD      r1,sp,#0x14
        0x00002558:    2004        .       MOVS     r0,#4
        0x0000255a:    7008        .p      STRB     r0,[r1,#0]
        0x0000255c:    e005        ..      B        0x256a ; st7789_clear + 678
        0x0000255e:    e7ff        ..      B        0x2560 ; st7789_clear + 668
        0x00002560:    e7ff        ..      B        0x2562 ; st7789_clear + 670
        0x00002562:    a905        ..      ADD      r1,sp,#0x14
        0x00002564:    2000        .       MOVS     r0,#0
        0x00002566:    7008        .p      STRB     r0,[r1,#0]
        0x00002568:    e7ff        ..      B        0x256a ; st7789_clear + 678
        0x0000256a:    a805        ..      ADD      r0,sp,#0x14
        0x0000256c:    7800        .x      LDRB     r0,[r0,#0]
        0x0000256e:    b006        ..      ADD      sp,sp,#0x18
        0x00002570:    bd80        ..      POP      {r7,pc}
        0x00002572:    46c0        .F      MOV      r8,r8
    $d.87
    __arm_cp.78_0
        0x00002574:    00000fff    ....    DCD    4095
    $t.83
    st7789_deinit
        0x00002578:    b580        ..      PUSH     {r7,lr}
        0x0000257a:    b082        ..      SUB      sp,sp,#8
        0x0000257c:    9000        ..      STR      r0,[sp,#0]
        0x0000257e:    9800        ..      LDR      r0,[sp,#0]
        0x00002580:    b920         .      CBNZ     r0,0x258c ; st7789_deinit + 20
        0x00002582:    e7ff        ..      B        0x2584 ; st7789_deinit + 12
        0x00002584:    a901        ..      ADD      r1,sp,#4
        0x00002586:    2002        .       MOVS     r0,#2
        0x00002588:    7008        .p      STRB     r0,[r1,#0]
        0x0000258a:    e036        6.      B        0x25fa ; st7789_deinit + 130
        0x0000258c:    9800        ..      LDR      r0,[sp,#0]
        0x0000258e:    212c        ,!      MOVS     r1,#0x2c
        0x00002590:    5c40        @\      LDRB     r0,[r0,r1]
        0x00002592:    2801        .(      CMP      r0,#1
        0x00002594:    d004        ..      BEQ      0x25a0 ; st7789_deinit + 40
        0x00002596:    e7ff        ..      B        0x2598 ; st7789_deinit + 32
        0x00002598:    a901        ..      ADD      r1,sp,#4
        0x0000259a:    2003        .       MOVS     r0,#3
        0x0000259c:    7008        .p      STRB     r0,[r1,#0]
        0x0000259e:    e02c        ,.      B        0x25fa ; st7789_deinit + 130
        0x000025a0:    9800        ..      LDR      r0,[sp,#0]
        0x000025a2:    2110        .!      MOVS     r1,#0x10
        0x000025a4:    2200        ."      MOVS     r2,#0
        0x000025a6:    f7fff9bf    ....    BL       a_st7789_write_byte ; 0x1928
        0x000025aa:    b120         .      CBZ      r0,0x25b6 ; st7789_deinit + 62
        0x000025ac:    e7ff        ..      B        0x25ae ; st7789_deinit + 54
        0x000025ae:    a901        ..      ADD      r1,sp,#4
        0x000025b0:    2001        .       MOVS     r0,#1
        0x000025b2:    7008        .p      STRB     r0,[r1,#0]
        0x000025b4:    e021        !.      B        0x25fa ; st7789_deinit + 130
        0x000025b6:    9800        ..      LDR      r0,[sp,#0]
        0x000025b8:    69c0        .i      LDR      r0,[r0,#0x1c]
        0x000025ba:    4780        .G      BLX      r0
        0x000025bc:    b120         .      CBZ      r0,0x25c8 ; st7789_deinit + 80
        0x000025be:    e7ff        ..      B        0x25c0 ; st7789_deinit + 72
        0x000025c0:    a901        ..      ADD      r1,sp,#4
        0x000025c2:    2005        .       MOVS     r0,#5
        0x000025c4:    7008        .p      STRB     r0,[r1,#0]
        0x000025c6:    e018        ..      B        0x25fa ; st7789_deinit + 130
        0x000025c8:    9800        ..      LDR      r0,[sp,#0]
        0x000025ca:    6900        .i      LDR      r0,[r0,#0x10]
        0x000025cc:    4780        .G      BLX      r0
        0x000025ce:    b120         .      CBZ      r0,0x25da ; st7789_deinit + 98
        0x000025d0:    e7ff        ..      B        0x25d2 ; st7789_deinit + 90
        0x000025d2:    a901        ..      ADD      r1,sp,#4
        0x000025d4:    2006        .       MOVS     r0,#6
        0x000025d6:    7008        .p      STRB     r0,[r1,#0]
        0x000025d8:    e00f        ..      B        0x25fa ; st7789_deinit + 130
        0x000025da:    9800        ..      LDR      r0,[sp,#0]
        0x000025dc:    6840        @h      LDR      r0,[r0,#4]
        0x000025de:    4780        .G      BLX      r0
        0x000025e0:    b120         .      CBZ      r0,0x25ec ; st7789_deinit + 116
        0x000025e2:    e7ff        ..      B        0x25e4 ; st7789_deinit + 108
        0x000025e4:    a901        ..      ADD      r1,sp,#4
        0x000025e6:    2001        .       MOVS     r0,#1
        0x000025e8:    7008        .p      STRB     r0,[r1,#0]
        0x000025ea:    e006        ..      B        0x25fa ; st7789_deinit + 130
        0x000025ec:    9900        ..      LDR      r1,[sp,#0]
        0x000025ee:    222c        ,"      MOVS     r2,#0x2c
        0x000025f0:    2000        .       MOVS     r0,#0
        0x000025f2:    5488        .T      STRB     r0,[r1,r2]
        0x000025f4:    a901        ..      ADD      r1,sp,#4
        0x000025f6:    7008        .p      STRB     r0,[r1,#0]
        0x000025f8:    e7ff        ..      B        0x25fa ; st7789_deinit + 130
        0x000025fa:    a801        ..      ADD      r0,sp,#4
        0x000025fc:    7800        .x      LDRB     r0,[r0,#0]
        0x000025fe:    b002        ..      ADD      sp,sp,#8
        0x00002600:    bd80        ..      POP      {r7,pc}
    st7789_display_inversion_on
        0x00002602:    b580        ..      PUSH     {r7,lr}
        0x00002604:    b082        ..      SUB      sp,sp,#8
        0x00002606:    9000        ..      STR      r0,[sp,#0]
        0x00002608:    9800        ..      LDR      r0,[sp,#0]
        0x0000260a:    b920         .      CBNZ     r0,0x2616 ; st7789_display_inversion_on + 20
        0x0000260c:    e7ff        ..      B        0x260e ; st7789_display_inversion_on + 12
        0x0000260e:    a901        ..      ADD      r1,sp,#4
        0x00002610:    2002        .       MOVS     r0,#2
        0x00002612:    7008        .p      STRB     r0,[r1,#0]
        0x00002614:    e018        ..      B        0x2648 ; st7789_display_inversion_on + 70
        0x00002616:    9800        ..      LDR      r0,[sp,#0]
        0x00002618:    212c        ,!      MOVS     r1,#0x2c
        0x0000261a:    5c40        @\      LDRB     r0,[r0,r1]
        0x0000261c:    2801        .(      CMP      r0,#1
        0x0000261e:    d004        ..      BEQ      0x262a ; st7789_display_inversion_on + 40
        0x00002620:    e7ff        ..      B        0x2622 ; st7789_display_inversion_on + 32
        0x00002622:    a901        ..      ADD      r1,sp,#4
        0x00002624:    2003        .       MOVS     r0,#3
        0x00002626:    7008        .p      STRB     r0,[r1,#0]
        0x00002628:    e00e        ..      B        0x2648 ; st7789_display_inversion_on + 70
        0x0000262a:    9800        ..      LDR      r0,[sp,#0]
        0x0000262c:    2121        !!      MOVS     r1,#0x21
        0x0000262e:    2200        ."      MOVS     r2,#0
        0x00002630:    f7fff97a    ..z.    BL       a_st7789_write_byte ; 0x1928
        0x00002634:    b120         .      CBZ      r0,0x2640 ; st7789_display_inversion_on + 62
        0x00002636:    e7ff        ..      B        0x2638 ; st7789_display_inversion_on + 54
        0x00002638:    a901        ..      ADD      r1,sp,#4
        0x0000263a:    2001        .       MOVS     r0,#1
        0x0000263c:    7008        .p      STRB     r0,[r1,#0]
        0x0000263e:    e003        ..      B        0x2648 ; st7789_display_inversion_on + 70
        0x00002640:    a901        ..      ADD      r1,sp,#4
        0x00002642:    2000        .       MOVS     r0,#0
        0x00002644:    7008        .p      STRB     r0,[r1,#0]
        0x00002646:    e7ff        ..      B        0x2648 ; st7789_display_inversion_on + 70
        0x00002648:    a801        ..      ADD      r0,sp,#4
        0x0000264a:    7800        .x      LDRB     r0,[r0,#0]
        0x0000264c:    b002        ..      ADD      sp,sp,#8
        0x0000264e:    bd80        ..      POP      {r7,pc}
    st7789_display_on
        0x00002650:    b580        ..      PUSH     {r7,lr}
        0x00002652:    b082        ..      SUB      sp,sp,#8
        0x00002654:    9000        ..      STR      r0,[sp,#0]
        0x00002656:    9800        ..      LDR      r0,[sp,#0]
        0x00002658:    b920         .      CBNZ     r0,0x2664 ; st7789_display_on + 20
        0x0000265a:    e7ff        ..      B        0x265c ; st7789_display_on + 12
        0x0000265c:    a901        ..      ADD      r1,sp,#4
        0x0000265e:    2002        .       MOVS     r0,#2
        0x00002660:    7008        .p      STRB     r0,[r1,#0]
        0x00002662:    e018        ..      B        0x2696 ; st7789_display_on + 70
        0x00002664:    9800        ..      LDR      r0,[sp,#0]
        0x00002666:    212c        ,!      MOVS     r1,#0x2c
        0x00002668:    5c40        @\      LDRB     r0,[r0,r1]
        0x0000266a:    2801        .(      CMP      r0,#1
        0x0000266c:    d004        ..      BEQ      0x2678 ; st7789_display_on + 40
        0x0000266e:    e7ff        ..      B        0x2670 ; st7789_display_on + 32
        0x00002670:    a901        ..      ADD      r1,sp,#4
        0x00002672:    2003        .       MOVS     r0,#3
        0x00002674:    7008        .p      STRB     r0,[r1,#0]
        0x00002676:    e00e        ..      B        0x2696 ; st7789_display_on + 70
        0x00002678:    9800        ..      LDR      r0,[sp,#0]
        0x0000267a:    2129        )!      MOVS     r1,#0x29
        0x0000267c:    2200        ."      MOVS     r2,#0
        0x0000267e:    f7fff953    ..S.    BL       a_st7789_write_byte ; 0x1928
        0x00002682:    b120         .      CBZ      r0,0x268e ; st7789_display_on + 62
        0x00002684:    e7ff        ..      B        0x2686 ; st7789_display_on + 54
        0x00002686:    a901        ..      ADD      r1,sp,#4
        0x00002688:    2001        .       MOVS     r0,#1
        0x0000268a:    7008        .p      STRB     r0,[r1,#0]
        0x0000268c:    e003        ..      B        0x2696 ; st7789_display_on + 70
        0x0000268e:    a901        ..      ADD      r1,sp,#4
        0x00002690:    2000        .       MOVS     r0,#0
        0x00002692:    7008        .p      STRB     r0,[r1,#0]
        0x00002694:    e7ff        ..      B        0x2696 ; st7789_display_on + 70
        0x00002696:    a801        ..      ADD      r0,sp,#4
        0x00002698:    7800        .x      LDRB     r0,[r0,#0]
        0x0000269a:    b002        ..      ADD      sp,sp,#8
        0x0000269c:    bd80        ..      POP      {r7,pc}
    st7789_draw_point
        0x0000269e:    b510        ..      PUSH     {r4,lr}
        0x000026a0:    b086        ..      SUB      sp,sp,#0x18
        0x000026a2:    9004        ..      STR      r0,[sp,#0x10]
        0x000026a4:    a803        ..      ADD      r0,sp,#0xc
        0x000026a6:    8001        ..      STRH     r1,[r0,#0]
        0x000026a8:    a802        ..      ADD      r0,sp,#8
        0x000026aa:    8002        ..      STRH     r2,[r0,#0]
        0x000026ac:    9301        ..      STR      r3,[sp,#4]
        0x000026ae:    9804        ..      LDR      r0,[sp,#0x10]
        0x000026b0:    b920         .      CBNZ     r0,0x26bc ; st7789_draw_point + 30
        0x000026b2:    e7ff        ..      B        0x26b4 ; st7789_draw_point + 22
        0x000026b4:    a905        ..      ADD      r1,sp,#0x14
        0x000026b6:    2002        .       MOVS     r0,#2
        0x000026b8:    7008        .p      STRB     r0,[r1,#0]
        0x000026ba:    e02a        *.      B        0x2712 ; st7789_draw_point + 116
        0x000026bc:    9804        ..      LDR      r0,[sp,#0x10]
        0x000026be:    212c        ,!      MOVS     r1,#0x2c
        0x000026c0:    5c40        @\      LDRB     r0,[r0,r1]
        0x000026c2:    2801        .(      CMP      r0,#1
        0x000026c4:    d004        ..      BEQ      0x26d0 ; st7789_draw_point + 50
        0x000026c6:    e7ff        ..      B        0x26c8 ; st7789_draw_point + 42
        0x000026c8:    a905        ..      ADD      r1,sp,#0x14
        0x000026ca:    2003        .       MOVS     r0,#3
        0x000026cc:    7008        .p      STRB     r0,[r1,#0]
        0x000026ce:    e020         .      B        0x2712 ; st7789_draw_point + 116
        0x000026d0:    a803        ..      ADD      r0,sp,#0xc
        0x000026d2:    8800        ..      LDRH     r0,[r0,#0]
        0x000026d4:    9904        ..      LDR      r1,[sp,#0x10]
        0x000026d6:    8dc9        ..      LDRH     r1,[r1,#0x2e]
        0x000026d8:    4288        .B      CMP      r0,r1
        0x000026da:    db04        ..      BLT      0x26e6 ; st7789_draw_point + 72
        0x000026dc:    e7ff        ..      B        0x26de ; st7789_draw_point + 64
        0x000026de:    a905        ..      ADD      r1,sp,#0x14
        0x000026e0:    2004        .       MOVS     r0,#4
        0x000026e2:    7008        .p      STRB     r0,[r1,#0]
        0x000026e4:    e015        ..      B        0x2712 ; st7789_draw_point + 116
        0x000026e6:    a802        ..      ADD      r0,sp,#8
        0x000026e8:    8800        ..      LDRH     r0,[r0,#0]
        0x000026ea:    9904        ..      LDR      r1,[sp,#0x10]
        0x000026ec:    8e09        ..      LDRH     r1,[r1,#0x30]
        0x000026ee:    4288        .B      CMP      r0,r1
        0x000026f0:    db04        ..      BLT      0x26fc ; st7789_draw_point + 94
        0x000026f2:    e7ff        ..      B        0x26f4 ; st7789_draw_point + 86
        0x000026f4:    a905        ..      ADD      r1,sp,#0x14
        0x000026f6:    2005        .       MOVS     r0,#5
        0x000026f8:    7008        .p      STRB     r0,[r1,#0]
        0x000026fa:    e00a        ..      B        0x2712 ; st7789_draw_point + 116
        0x000026fc:    9804        ..      LDR      r0,[sp,#0x10]
        0x000026fe:    a903        ..      ADD      r1,sp,#0xc
        0x00002700:    8809        ..      LDRH     r1,[r1,#0]
        0x00002702:    aa02        ..      ADD      r2,sp,#8
        0x00002704:    8812        ..      LDRH     r2,[r2,#0]
        0x00002706:    9b01        ..      LDR      r3,[sp,#4]
        0x00002708:    f7feff8a    ....    BL       a_st7789_draw_point ; 0x1620
        0x0000270c:    a905        ..      ADD      r1,sp,#0x14
        0x0000270e:    7008        .p      STRB     r0,[r1,#0]
        0x00002710:    e7ff        ..      B        0x2712 ; st7789_draw_point + 116
        0x00002712:    a805        ..      ADD      r0,sp,#0x14
        0x00002714:    7800        .x      LDRB     r0,[r0,#0]
        0x00002716:    b006        ..      ADD      sp,sp,#0x18
        0x00002718:    bd10        ..      POP      {r4,pc}
        0x0000271a:    0000        ..      MOVS     r0,r0
    st7789_fill_rect
        0x0000271c:    b570        p.      PUSH     {r4-r6,lr}
        0x0000271e:    b08a        ..      SUB      sp,sp,#0x28
        0x00002720:    4604        .F      MOV      r4,r0
        0x00002722:    980f        ..      LDR      r0,[sp,#0x3c]
        0x00002724:    980e        ..      LDR      r0,[sp,#0x38]
        0x00002726:    9408        ..      STR      r4,[sp,#0x20]
        0x00002728:    ac07        ..      ADD      r4,sp,#0x1c
        0x0000272a:    8021        !.      STRH     r1,[r4,#0]
        0x0000272c:    a906        ..      ADD      r1,sp,#0x18
        0x0000272e:    800a        ..      STRH     r2,[r1,#0]
        0x00002730:    a905        ..      ADD      r1,sp,#0x14
        0x00002732:    800b        ..      STRH     r3,[r1,#0]
        0x00002734:    a904        ..      ADD      r1,sp,#0x10
        0x00002736:    8008        ..      STRH     r0,[r1,#0]
        0x00002738:    9808        ..      LDR      r0,[sp,#0x20]
        0x0000273a:    b920         .      CBNZ     r0,0x2746 ; st7789_fill_rect + 42
        0x0000273c:    e7ff        ..      B        0x273e ; st7789_fill_rect + 34
        0x0000273e:    a909        ..      ADD      r1,sp,#0x24
        0x00002740:    2002        .       MOVS     r0,#2
        0x00002742:    7008        .p      STRB     r0,[r1,#0]
        0x00002744:    e202        ..      B        0x2b4c ; st7789_fill_rect + 1072
        0x00002746:    9808        ..      LDR      r0,[sp,#0x20]
        0x00002748:    212c        ,!      MOVS     r1,#0x2c
        0x0000274a:    5c40        @\      LDRB     r0,[r0,r1]
        0x0000274c:    2801        .(      CMP      r0,#1
        0x0000274e:    d004        ..      BEQ      0x275a ; st7789_fill_rect + 62
        0x00002750:    e7ff        ..      B        0x2752 ; st7789_fill_rect + 54
        0x00002752:    a909        ..      ADD      r1,sp,#0x24
        0x00002754:    2003        .       MOVS     r0,#3
        0x00002756:    7008        .p      STRB     r0,[r1,#0]
        0x00002758:    e1f8        ..      B        0x2b4c ; st7789_fill_rect + 1072
        0x0000275a:    a807        ..      ADD      r0,sp,#0x1c
        0x0000275c:    8800        ..      LDRH     r0,[r0,#0]
        0x0000275e:    9908        ..      LDR      r1,[sp,#0x20]
        0x00002760:    8dc9        ..      LDRH     r1,[r1,#0x2e]
        0x00002762:    1e49        I.      SUBS     r1,r1,#1
        0x00002764:    4288        .B      CMP      r0,r1
        0x00002766:    dd04        ..      BLE      0x2772 ; st7789_fill_rect + 86
        0x00002768:    e7ff        ..      B        0x276a ; st7789_fill_rect + 78
        0x0000276a:    a909        ..      ADD      r1,sp,#0x24
        0x0000276c:    2004        .       MOVS     r0,#4
        0x0000276e:    7008        .p      STRB     r0,[r1,#0]
        0x00002770:    e1ec        ..      B        0x2b4c ; st7789_fill_rect + 1072
        0x00002772:    a805        ..      ADD      r0,sp,#0x14
        0x00002774:    8800        ..      LDRH     r0,[r0,#0]
        0x00002776:    9908        ..      LDR      r1,[sp,#0x20]
        0x00002778:    8dc9        ..      LDRH     r1,[r1,#0x2e]
        0x0000277a:    1e49        I.      SUBS     r1,r1,#1
        0x0000277c:    4288        .B      CMP      r0,r1
        0x0000277e:    dd04        ..      BLE      0x278a ; st7789_fill_rect + 110
        0x00002780:    e7ff        ..      B        0x2782 ; st7789_fill_rect + 102
        0x00002782:    a909        ..      ADD      r1,sp,#0x24
        0x00002784:    2005        .       MOVS     r0,#5
        0x00002786:    7008        .p      STRB     r0,[r1,#0]
        0x00002788:    e1e0        ..      B        0x2b4c ; st7789_fill_rect + 1072
        0x0000278a:    a807        ..      ADD      r0,sp,#0x1c
        0x0000278c:    8800        ..      LDRH     r0,[r0,#0]
        0x0000278e:    a905        ..      ADD      r1,sp,#0x14
        0x00002790:    8809        ..      LDRH     r1,[r1,#0]
        0x00002792:    4288        .B      CMP      r0,r1
        0x00002794:    db04        ..      BLT      0x27a0 ; st7789_fill_rect + 132
        0x00002796:    e7ff        ..      B        0x2798 ; st7789_fill_rect + 124
        0x00002798:    a909        ..      ADD      r1,sp,#0x24
        0x0000279a:    2006        .       MOVS     r0,#6
        0x0000279c:    7008        .p      STRB     r0,[r1,#0]
        0x0000279e:    e1d5        ..      B        0x2b4c ; st7789_fill_rect + 1072
        0x000027a0:    a806        ..      ADD      r0,sp,#0x18
        0x000027a2:    8800        ..      LDRH     r0,[r0,#0]
        0x000027a4:    9908        ..      LDR      r1,[sp,#0x20]
        0x000027a6:    8e09        ..      LDRH     r1,[r1,#0x30]
        0x000027a8:    1e49        I.      SUBS     r1,r1,#1
        0x000027aa:    4288        .B      CMP      r0,r1
        0x000027ac:    dd04        ..      BLE      0x27b8 ; st7789_fill_rect + 156
        0x000027ae:    e7ff        ..      B        0x27b0 ; st7789_fill_rect + 148
        0x000027b0:    a909        ..      ADD      r1,sp,#0x24
        0x000027b2:    2007        .       MOVS     r0,#7
        0x000027b4:    7008        .p      STRB     r0,[r1,#0]
        0x000027b6:    e1c9        ..      B        0x2b4c ; st7789_fill_rect + 1072
        0x000027b8:    a804        ..      ADD      r0,sp,#0x10
        0x000027ba:    8800        ..      LDRH     r0,[r0,#0]
        0x000027bc:    9908        ..      LDR      r1,[sp,#0x20]
        0x000027be:    8e09        ..      LDRH     r1,[r1,#0x30]
        0x000027c0:    1e49        I.      SUBS     r1,r1,#1
        0x000027c2:    4288        .B      CMP      r0,r1
        0x000027c4:    dd04        ..      BLE      0x27d0 ; st7789_fill_rect + 180
        0x000027c6:    e7ff        ..      B        0x27c8 ; st7789_fill_rect + 172
        0x000027c8:    a909        ..      ADD      r1,sp,#0x24
        0x000027ca:    2008        .       MOVS     r0,#8
        0x000027cc:    7008        .p      STRB     r0,[r1,#0]
        0x000027ce:    e1bd        ..      B        0x2b4c ; st7789_fill_rect + 1072
        0x000027d0:    a806        ..      ADD      r0,sp,#0x18
        0x000027d2:    8800        ..      LDRH     r0,[r0,#0]
        0x000027d4:    a904        ..      ADD      r1,sp,#0x10
        0x000027d6:    8809        ..      LDRH     r1,[r1,#0]
        0x000027d8:    4288        .B      CMP      r0,r1
        0x000027da:    db04        ..      BLT      0x27e6 ; st7789_fill_rect + 202
        0x000027dc:    e7ff        ..      B        0x27de ; st7789_fill_rect + 194
        0x000027de:    a909        ..      ADD      r1,sp,#0x24
        0x000027e0:    2009        .       MOVS     r0,#9
        0x000027e2:    7008        .p      STRB     r0,[r1,#0]
        0x000027e4:    e1b2        ..      B        0x2b4c ; st7789_fill_rect + 1072
        0x000027e6:    9808        ..      LDR      r0,[sp,#0x20]
        0x000027e8:    212a        *!      MOVS     r1,#0x2a
        0x000027ea:    2200        ."      MOVS     r2,#0
        0x000027ec:    f7fff89c    ....    BL       a_st7789_write_byte ; 0x1928
        0x000027f0:    b120         .      CBZ      r0,0x27fc ; st7789_fill_rect + 224
        0x000027f2:    e7ff        ..      B        0x27f4 ; st7789_fill_rect + 216
        0x000027f4:    a909        ..      ADD      r1,sp,#0x24
        0x000027f6:    2001        .       MOVS     r0,#1
        0x000027f8:    7008        .p      STRB     r0,[r1,#0]
        0x000027fa:    e1a7        ..      B        0x2b4c ; st7789_fill_rect + 1072
        0x000027fc:    a807        ..      ADD      r0,sp,#0x1c
        0x000027fe:    7840        @x      LDRB     r0,[r0,#1]
        0x00002800:    a903        ..      ADD      r1,sp,#0xc
        0x00002802:    7008        .p      STRB     r0,[r1,#0]
        0x00002804:    9807        ..      LDR      r0,[sp,#0x1c]
        0x00002806:    7048        Hp      STRB     r0,[r1,#1]
        0x00002808:    a805        ..      ADD      r0,sp,#0x14
        0x0000280a:    7840        @x      LDRB     r0,[r0,#1]
        0x0000280c:    7088        .p      STRB     r0,[r1,#2]
        0x0000280e:    9805        ..      LDR      r0,[sp,#0x14]
        0x00002810:    70c8        .p      STRB     r0,[r1,#3]
        0x00002812:    9808        ..      LDR      r0,[sp,#0x20]
        0x00002814:    2204        ."      MOVS     r2,#4
        0x00002816:    2301        .#      MOVS     r3,#1
        0x00002818:    f7fff8b2    ....    BL       a_st7789_write_bytes ; 0x1980
        0x0000281c:    b120         .      CBZ      r0,0x2828 ; st7789_fill_rect + 268
        0x0000281e:    e7ff        ..      B        0x2820 ; st7789_fill_rect + 260
        0x00002820:    a909        ..      ADD      r1,sp,#0x24
        0x00002822:    2001        .       MOVS     r0,#1
        0x00002824:    7008        .p      STRB     r0,[r1,#0]
        0x00002826:    e191        ..      B        0x2b4c ; st7789_fill_rect + 1072
        0x00002828:    9808        ..      LDR      r0,[sp,#0x20]
        0x0000282a:    212b        +!      MOVS     r1,#0x2b
        0x0000282c:    2200        ."      MOVS     r2,#0
        0x0000282e:    f7fff87b    ..{.    BL       a_st7789_write_byte ; 0x1928
        0x00002832:    b120         .      CBZ      r0,0x283e ; st7789_fill_rect + 290
        0x00002834:    e7ff        ..      B        0x2836 ; st7789_fill_rect + 282
        0x00002836:    a909        ..      ADD      r1,sp,#0x24
        0x00002838:    2001        .       MOVS     r0,#1
        0x0000283a:    7008        .p      STRB     r0,[r1,#0]
        0x0000283c:    e186        ..      B        0x2b4c ; st7789_fill_rect + 1072
        0x0000283e:    a806        ..      ADD      r0,sp,#0x18
        0x00002840:    7840        @x      LDRB     r0,[r0,#1]
        0x00002842:    a903        ..      ADD      r1,sp,#0xc
        0x00002844:    7008        .p      STRB     r0,[r1,#0]
        0x00002846:    9806        ..      LDR      r0,[sp,#0x18]
        0x00002848:    7048        Hp      STRB     r0,[r1,#1]
        0x0000284a:    a804        ..      ADD      r0,sp,#0x10
        0x0000284c:    7840        @x      LDRB     r0,[r0,#1]
        0x0000284e:    7088        .p      STRB     r0,[r1,#2]
        0x00002850:    9804        ..      LDR      r0,[sp,#0x10]
        0x00002852:    70c8        .p      STRB     r0,[r1,#3]
        0x00002854:    9808        ..      LDR      r0,[sp,#0x20]
        0x00002856:    2204        ."      MOVS     r2,#4
        0x00002858:    2301        .#      MOVS     r3,#1
        0x0000285a:    f7fff891    ....    BL       a_st7789_write_bytes ; 0x1980
        0x0000285e:    b120         .      CBZ      r0,0x286a ; st7789_fill_rect + 334
        0x00002860:    e7ff        ..      B        0x2862 ; st7789_fill_rect + 326
        0x00002862:    a909        ..      ADD      r1,sp,#0x24
        0x00002864:    2001        .       MOVS     r0,#1
        0x00002866:    7008        .p      STRB     r0,[r1,#0]
        0x00002868:    e170        p.      B        0x2b4c ; st7789_fill_rect + 1072
        0x0000286a:    9808        ..      LDR      r0,[sp,#0x20]
        0x0000286c:    212c        ,!      MOVS     r1,#0x2c
        0x0000286e:    2200        ."      MOVS     r2,#0
        0x00002870:    f7fff85a    ..Z.    BL       a_st7789_write_byte ; 0x1928
        0x00002874:    b120         .      CBZ      r0,0x2880 ; st7789_fill_rect + 356
        0x00002876:    e7ff        ..      B        0x2878 ; st7789_fill_rect + 348
        0x00002878:    a909        ..      ADD      r1,sp,#0x24
        0x0000287a:    2001        .       MOVS     r0,#1
        0x0000287c:    7008        .p      STRB     r0,[r1,#0]
        0x0000287e:    e165        e.      B        0x2b4c ; st7789_fill_rect + 1072
        0x00002880:    9808        ..      LDR      r0,[sp,#0x20]
        0x00002882:    2132        2!      MOVS     r1,#0x32
        0x00002884:    5c40        @\      LDRB     r0,[r0,r1]
        0x00002886:    2103        .!      MOVS     r1,#3
        0x00002888:    4008        .@      ANDS     r0,r0,r1
        0x0000288a:    2803        .(      CMP      r0,#3
        0x0000288c:    d170        p.      BNE      0x2970 ; st7789_fill_rect + 596
        0x0000288e:    e7ff        ..      B        0x2890 ; st7789_fill_rect + 372
        0x00002890:    2000        .       MOVS     r0,#0
        0x00002892:    9002        ..      STR      r0,[sp,#8]
        0x00002894:    e7ff        ..      B        0x2896 ; st7789_fill_rect + 378
        0x00002896:    9802        ..      LDR      r0,[sp,#8]
        0x00002898:    0b00        ..      LSRS     r0,r0,#12
        0x0000289a:    b9e0        ..      CBNZ     r0,0x28d6 ; st7789_fill_rect + 442
        0x0000289c:    e7ff        ..      B        0x289e ; st7789_fill_rect + 386
        0x0000289e:    980f        ..      LDR      r0,[sp,#0x3c]
        0x000028a0:    0900        ..      LSRS     r0,r0,#4
        0x000028a2:    9908        ..      LDR      r1,[sp,#0x20]
        0x000028a4:    9a02        ..      LDR      r2,[sp,#8]
        0x000028a6:    1889        ..      ADDS     r1,r1,r2
        0x000028a8:    2233        3"      MOVS     r2,#0x33
        0x000028aa:    5488        .T      STRB     r0,[r1,r2]
        0x000028ac:    990f        ..      LDR      r1,[sp,#0x3c]
        0x000028ae:    0108        ..      LSLS     r0,r1,#4
        0x000028b0:    0509        ..      LSLS     r1,r1,#20
        0x000028b2:    0f09        ..      LSRS     r1,r1,#28
        0x000028b4:    1840        @.      ADDS     r0,r0,r1
        0x000028b6:    9a08        ..      LDR      r2,[sp,#0x20]
        0x000028b8:    9902        ..      LDR      r1,[sp,#8]
        0x000028ba:    1889        ..      ADDS     r1,r1,r2
        0x000028bc:    2234        4"      MOVS     r2,#0x34
        0x000028be:    5488        .T      STRB     r0,[r1,r2]
        0x000028c0:    980f        ..      LDR      r0,[sp,#0x3c]
        0x000028c2:    9a08        ..      LDR      r2,[sp,#0x20]
        0x000028c4:    9902        ..      LDR      r1,[sp,#8]
        0x000028c6:    1889        ..      ADDS     r1,r1,r2
        0x000028c8:    2235        5"      MOVS     r2,#0x35
        0x000028ca:    5488        .T      STRB     r0,[r1,r2]
        0x000028cc:    e7ff        ..      B        0x28ce ; st7789_fill_rect + 434
        0x000028ce:    9802        ..      LDR      r0,[sp,#8]
        0x000028d0:    1cc0        ..      ADDS     r0,r0,#3
        0x000028d2:    9002        ..      STR      r0,[sp,#8]
        0x000028d4:    e7df        ..      B        0x2896 ; st7789_fill_rect + 378
        0x000028d6:    aa05        ..      ADD      r2,sp,#0x14
        0x000028d8:    8810        ..      LDRH     r0,[r2,#0]
        0x000028da:    ac07        ..      ADD      r4,sp,#0x1c
        0x000028dc:    8821        !.      LDRH     r1,[r4,#0]
        0x000028de:    1a40        @.      SUBS     r0,r0,r1
        0x000028e0:    1c40        @.      ADDS     r0,r0,#1
        0x000028e2:    a904        ..      ADD      r1,sp,#0x10
        0x000028e4:    880d        ..      LDRH     r5,[r1,#0]
        0x000028e6:    ab06        ..      ADD      r3,sp,#0x18
        0x000028e8:    881e        ..      LDRH     r6,[r3,#0]
        0x000028ea:    1bad        ..      SUBS     r5,r5,r6
        0x000028ec:    1c6e        n.      ADDS     r6,r5,#1
        0x000028ee:    4346        FC      MULS     r6,r0,r6
        0x000028f0:    2003        .       MOVS     r0,#3
        0x000028f2:    4605        .F      MOV      r5,r0
        0x000028f4:    4375        uC      MULS     r5,r6,r5
        0x000028f6:    0b6d        m.      LSRS     r5,r5,#13
        0x000028f8:    9501        ..      STR      r5,[sp,#4]
        0x000028fa:    8812        ..      LDRH     r2,[r2,#0]
        0x000028fc:    8824        $.      LDRH     r4,[r4,#0]
        0x000028fe:    1b12        ..      SUBS     r2,r2,r4
        0x00002900:    1c52        R.      ADDS     r2,r2,#1
        0x00002902:    8809        ..      LDRH     r1,[r1,#0]
        0x00002904:    881b        ..      LDRH     r3,[r3,#0]
        0x00002906:    1ac9        ..      SUBS     r1,r1,r3
        0x00002908:    1c49        I.      ADDS     r1,r1,#1
        0x0000290a:    4351        QC      MULS     r1,r2,r1
        0x0000290c:    04c0        ..      LSLS     r0,r0,#19
        0x0000290e:    4348        HC      MULS     r0,r1,r0
        0x00002910:    0d00        ..      LSRS     r0,r0,#20
        0x00002912:    9000        ..      STR      r0,[sp,#0]
        0x00002914:    2000        .       MOVS     r0,#0
        0x00002916:    9002        ..      STR      r0,[sp,#8]
        0x00002918:    e7ff        ..      B        0x291a ; st7789_fill_rect + 510
        0x0000291a:    9802        ..      LDR      r0,[sp,#8]
        0x0000291c:    9901        ..      LDR      r1,[sp,#4]
        0x0000291e:    4288        .B      CMP      r0,r1
        0x00002920:    d213        ..      BCS      0x294a ; st7789_fill_rect + 558
        0x00002922:    e7ff        ..      B        0x2924 ; st7789_fill_rect + 520
        0x00002924:    9808        ..      LDR      r0,[sp,#0x20]
        0x00002926:    4601        .F      MOV      r1,r0
        0x00002928:    3133        31      ADDS     r1,r1,#0x33
        0x0000292a:    f2410200    A...    MOVW     r2,#0x1000
        0x0000292e:    2301        .#      MOVS     r3,#1
        0x00002930:    f7fff826    ..&.    BL       a_st7789_write_bytes ; 0x1980
        0x00002934:    b120         .      CBZ      r0,0x2940 ; st7789_fill_rect + 548
        0x00002936:    e7ff        ..      B        0x2938 ; st7789_fill_rect + 540
        0x00002938:    a909        ..      ADD      r1,sp,#0x24
        0x0000293a:    2001        .       MOVS     r0,#1
        0x0000293c:    7008        .p      STRB     r0,[r1,#0]
        0x0000293e:    e105        ..      B        0x2b4c ; st7789_fill_rect + 1072
        0x00002940:    e7ff        ..      B        0x2942 ; st7789_fill_rect + 550
        0x00002942:    9802        ..      LDR      r0,[sp,#8]
        0x00002944:    1c40        @.      ADDS     r0,r0,#1
        0x00002946:    9002        ..      STR      r0,[sp,#8]
        0x00002948:    e7e7        ..      B        0x291a ; st7789_fill_rect + 510
        0x0000294a:    9800        ..      LDR      r0,[sp,#0]
        0x0000294c:    b178        x.      CBZ      r0,0x296e ; st7789_fill_rect + 594
        0x0000294e:    e7ff        ..      B        0x2950 ; st7789_fill_rect + 564
        0x00002950:    9808        ..      LDR      r0,[sp,#0x20]
        0x00002952:    4601        .F      MOV      r1,r0
        0x00002954:    3133        31      ADDS     r1,r1,#0x33
        0x00002956:    466a        jF      MOV      r2,sp
        0x00002958:    8812        ..      LDRH     r2,[r2,#0]
        0x0000295a:    2301        .#      MOVS     r3,#1
        0x0000295c:    f7fff810    ....    BL       a_st7789_write_bytes ; 0x1980
        0x00002960:    b120         .      CBZ      r0,0x296c ; st7789_fill_rect + 592
        0x00002962:    e7ff        ..      B        0x2964 ; st7789_fill_rect + 584
        0x00002964:    a909        ..      ADD      r1,sp,#0x24
        0x00002966:    2001        .       MOVS     r0,#1
        0x00002968:    7008        .p      STRB     r0,[r1,#0]
        0x0000296a:    e0ef        ..      B        0x2b4c ; st7789_fill_rect + 1072
        0x0000296c:    e7ff        ..      B        0x296e ; st7789_fill_rect + 594
        0x0000296e:    e0e9        ..      B        0x2b44 ; st7789_fill_rect + 1064
        0x00002970:    9808        ..      LDR      r0,[sp,#0x20]
        0x00002972:    2132        2!      MOVS     r1,#0x32
        0x00002974:    5c40        @\      LDRB     r0,[r0,r1]
        0x00002976:    2105        .!      MOVS     r1,#5
        0x00002978:    4008        .@      ANDS     r0,r0,r1
        0x0000297a:    2805        .(      CMP      r0,#5
        0x0000297c:    d163        c.      BNE      0x2a46 ; st7789_fill_rect + 810
        0x0000297e:    e7ff        ..      B        0x2980 ; st7789_fill_rect + 612
        0x00002980:    2000        .       MOVS     r0,#0
        0x00002982:    9002        ..      STR      r0,[sp,#8]
        0x00002984:    e7ff        ..      B        0x2986 ; st7789_fill_rect + 618
        0x00002986:    9802        ..      LDR      r0,[sp,#8]
        0x00002988:    0b00        ..      LSRS     r0,r0,#12
        0x0000298a:    b990        ..      CBNZ     r0,0x29b2 ; st7789_fill_rect + 662
        0x0000298c:    e7ff        ..      B        0x298e ; st7789_fill_rect + 626
        0x0000298e:    980f        ..      LDR      r0,[sp,#0x3c]
        0x00002990:    0a00        ..      LSRS     r0,r0,#8
        0x00002992:    9908        ..      LDR      r1,[sp,#0x20]
        0x00002994:    9a02        ..      LDR      r2,[sp,#8]
        0x00002996:    1889        ..      ADDS     r1,r1,r2
        0x00002998:    2233        3"      MOVS     r2,#0x33
        0x0000299a:    5488        .T      STRB     r0,[r1,r2]
        0x0000299c:    980f        ..      LDR      r0,[sp,#0x3c]
        0x0000299e:    9a08        ..      LDR      r2,[sp,#0x20]
        0x000029a0:    9902        ..      LDR      r1,[sp,#8]
        0x000029a2:    1889        ..      ADDS     r1,r1,r2
        0x000029a4:    2234        4"      MOVS     r2,#0x34
        0x000029a6:    5488        .T      STRB     r0,[r1,r2]
        0x000029a8:    e7ff        ..      B        0x29aa ; st7789_fill_rect + 654
        0x000029aa:    9802        ..      LDR      r0,[sp,#8]
        0x000029ac:    1c80        ..      ADDS     r0,r0,#2
        0x000029ae:    9002        ..      STR      r0,[sp,#8]
        0x000029b0:    e7e9        ..      B        0x2986 ; st7789_fill_rect + 618
        0x000029b2:    a805        ..      ADD      r0,sp,#0x14
        0x000029b4:    8800        ..      LDRH     r0,[r0,#0]
        0x000029b6:    a907        ..      ADD      r1,sp,#0x1c
        0x000029b8:    8809        ..      LDRH     r1,[r1,#0]
        0x000029ba:    1a40        @.      SUBS     r0,r0,r1
        0x000029bc:    1c41        A.      ADDS     r1,r0,#1
        0x000029be:    a804        ..      ADD      r0,sp,#0x10
        0x000029c0:    8800        ..      LDRH     r0,[r0,#0]
        0x000029c2:    aa06        ..      ADD      r2,sp,#0x18
        0x000029c4:    8812        ..      LDRH     r2,[r2,#0]
        0x000029c6:    1a80        ..      SUBS     r0,r0,r2
        0x000029c8:    1c40        @.      ADDS     r0,r0,#1
        0x000029ca:    4348        HC      MULS     r0,r1,r0
        0x000029cc:    0040        @.      LSLS     r0,r0,#1
        0x000029ce:    0b00        ..      LSRS     r0,r0,#12
        0x000029d0:    9001        ..      STR      r0,[sp,#4]
        0x000029d2:    9805        ..      LDR      r0,[sp,#0x14]
        0x000029d4:    9907        ..      LDR      r1,[sp,#0x1c]
        0x000029d6:    1a40        @.      SUBS     r0,r0,r1
        0x000029d8:    1c41        A.      ADDS     r1,r0,#1
        0x000029da:    9804        ..      LDR      r0,[sp,#0x10]
        0x000029dc:    9a06        ..      LDR      r2,[sp,#0x18]
        0x000029de:    1a80        ..      SUBS     r0,r0,r2
        0x000029e0:    1c40        @.      ADDS     r0,r0,#1
        0x000029e2:    4348        HC      MULS     r0,r1,r0
        0x000029e4:    0540        @.      LSLS     r0,r0,#21
        0x000029e6:    0d00        ..      LSRS     r0,r0,#20
        0x000029e8:    9000        ..      STR      r0,[sp,#0]
        0x000029ea:    2000        .       MOVS     r0,#0
        0x000029ec:    9002        ..      STR      r0,[sp,#8]
        0x000029ee:    e7ff        ..      B        0x29f0 ; st7789_fill_rect + 724
        0x000029f0:    9802        ..      LDR      r0,[sp,#8]
        0x000029f2:    9901        ..      LDR      r1,[sp,#4]
        0x000029f4:    4288        .B      CMP      r0,r1
        0x000029f6:    d213        ..      BCS      0x2a20 ; st7789_fill_rect + 772
        0x000029f8:    e7ff        ..      B        0x29fa ; st7789_fill_rect + 734
        0x000029fa:    9808        ..      LDR      r0,[sp,#0x20]
        0x000029fc:    4601        .F      MOV      r1,r0
        0x000029fe:    3133        31      ADDS     r1,r1,#0x33
        0x00002a00:    f2410200    A...    MOVW     r2,#0x1000
        0x00002a04:    2301        .#      MOVS     r3,#1
        0x00002a06:    f7feffbb    ....    BL       a_st7789_write_bytes ; 0x1980
        0x00002a0a:    b120         .      CBZ      r0,0x2a16 ; st7789_fill_rect + 762
        0x00002a0c:    e7ff        ..      B        0x2a0e ; st7789_fill_rect + 754
        0x00002a0e:    a909        ..      ADD      r1,sp,#0x24
        0x00002a10:    2001        .       MOVS     r0,#1
        0x00002a12:    7008        .p      STRB     r0,[r1,#0]
        0x00002a14:    e09a        ..      B        0x2b4c ; st7789_fill_rect + 1072
        0x00002a16:    e7ff        ..      B        0x2a18 ; st7789_fill_rect + 764
        0x00002a18:    9802        ..      LDR      r0,[sp,#8]
        0x00002a1a:    1c40        @.      ADDS     r0,r0,#1
        0x00002a1c:    9002        ..      STR      r0,[sp,#8]
        0x00002a1e:    e7e7        ..      B        0x29f0 ; st7789_fill_rect + 724
        0x00002a20:    9800        ..      LDR      r0,[sp,#0]
        0x00002a22:    b178        x.      CBZ      r0,0x2a44 ; st7789_fill_rect + 808
        0x00002a24:    e7ff        ..      B        0x2a26 ; st7789_fill_rect + 778
        0x00002a26:    9808        ..      LDR      r0,[sp,#0x20]
        0x00002a28:    4601        .F      MOV      r1,r0
        0x00002a2a:    3133        31      ADDS     r1,r1,#0x33
        0x00002a2c:    466a        jF      MOV      r2,sp
        0x00002a2e:    8812        ..      LDRH     r2,[r2,#0]
        0x00002a30:    2301        .#      MOVS     r3,#1
        0x00002a32:    f7feffa5    ....    BL       a_st7789_write_bytes ; 0x1980
        0x00002a36:    b120         .      CBZ      r0,0x2a42 ; st7789_fill_rect + 806
        0x00002a38:    e7ff        ..      B        0x2a3a ; st7789_fill_rect + 798
        0x00002a3a:    a909        ..      ADD      r1,sp,#0x24
        0x00002a3c:    2001        .       MOVS     r0,#1
        0x00002a3e:    7008        .p      STRB     r0,[r1,#0]
        0x00002a40:    e084        ..      B        0x2b4c ; st7789_fill_rect + 1072
        0x00002a42:    e7ff        ..      B        0x2a44 ; st7789_fill_rect + 808
        0x00002a44:    e07d        }.      B        0x2b42 ; st7789_fill_rect + 1062
        0x00002a46:    9808        ..      LDR      r0,[sp,#0x20]
        0x00002a48:    2132        2!      MOVS     r1,#0x32
        0x00002a4a:    5c40        @\      LDRB     r0,[r0,r1]
        0x00002a4c:    2106        .!      MOVS     r1,#6
        0x00002a4e:    4008        .@      ANDS     r0,r0,r1
        0x00002a50:    2806        .(      CMP      r0,#6
        0x00002a52:    d171        q.      BNE      0x2b38 ; st7789_fill_rect + 1052
        0x00002a54:    e7ff        ..      B        0x2a56 ; st7789_fill_rect + 826
        0x00002a56:    2000        .       MOVS     r0,#0
        0x00002a58:    9002        ..      STR      r0,[sp,#8]
        0x00002a5a:    e7ff        ..      B        0x2a5c ; st7789_fill_rect + 832
        0x00002a5c:    9802        ..      LDR      r0,[sp,#8]
        0x00002a5e:    0b00        ..      LSRS     r0,r0,#12
        0x00002a60:    b9e8        ..      CBNZ     r0,0x2a9e ; st7789_fill_rect + 898
        0x00002a62:    e7ff        ..      B        0x2a64 ; st7789_fill_rect + 840
        0x00002a64:    980f        ..      LDR      r0,[sp,#0x3c]
        0x00002a66:    0a80        ..      LSRS     r0,r0,#10
        0x00002a68:    21fc        .!      MOVS     r1,#0xfc
        0x00002a6a:    4008        .@      ANDS     r0,r0,r1
        0x00002a6c:    9a08        ..      LDR      r2,[sp,#0x20]
        0x00002a6e:    9b02        ..      LDR      r3,[sp,#8]
        0x00002a70:    18d2        ..      ADDS     r2,r2,r3
        0x00002a72:    2333        3#      MOVS     r3,#0x33
        0x00002a74:    54d0        .T      STRB     r0,[r2,r3]
        0x00002a76:    980f        ..      LDR      r0,[sp,#0x3c]
        0x00002a78:    0900        ..      LSRS     r0,r0,#4
        0x00002a7a:    4008        .@      ANDS     r0,r0,r1
        0x00002a7c:    9a08        ..      LDR      r2,[sp,#0x20]
        0x00002a7e:    9902        ..      LDR      r1,[sp,#8]
        0x00002a80:    1889        ..      ADDS     r1,r1,r2
        0x00002a82:    2234        4"      MOVS     r2,#0x34
        0x00002a84:    5488        .T      STRB     r0,[r1,r2]
        0x00002a86:    980f        ..      LDR      r0,[sp,#0x3c]
        0x00002a88:    0080        ..      LSLS     r0,r0,#2
        0x00002a8a:    9a08        ..      LDR      r2,[sp,#0x20]
        0x00002a8c:    9902        ..      LDR      r1,[sp,#8]
        0x00002a8e:    1889        ..      ADDS     r1,r1,r2
        0x00002a90:    2235        5"      MOVS     r2,#0x35
        0x00002a92:    5488        .T      STRB     r0,[r1,r2]
        0x00002a94:    e7ff        ..      B        0x2a96 ; st7789_fill_rect + 890
        0x00002a96:    9802        ..      LDR      r0,[sp,#8]
        0x00002a98:    1cc0        ..      ADDS     r0,r0,#3
        0x00002a9a:    9002        ..      STR      r0,[sp,#8]
        0x00002a9c:    e7de        ..      B        0x2a5c ; st7789_fill_rect + 832
        0x00002a9e:    a805        ..      ADD      r0,sp,#0x14
        0x00002aa0:    8800        ..      LDRH     r0,[r0,#0]
        0x00002aa2:    a907        ..      ADD      r1,sp,#0x1c
        0x00002aa4:    8809        ..      LDRH     r1,[r1,#0]
        0x00002aa6:    1a40        @.      SUBS     r0,r0,r1
        0x00002aa8:    1c40        @.      ADDS     r0,r0,#1
        0x00002aaa:    a904        ..      ADD      r1,sp,#0x10
        0x00002aac:    8809        ..      LDRH     r1,[r1,#0]
        0x00002aae:    aa06        ..      ADD      r2,sp,#0x18
        0x00002ab0:    8812        ..      LDRH     r2,[r2,#0]
        0x00002ab2:    1a89        ..      SUBS     r1,r1,r2
        0x00002ab4:    1c4a        J.      ADDS     r2,r1,#1
        0x00002ab6:    4342        BC      MULS     r2,r0,r2
        0x00002ab8:    2003        .       MOVS     r0,#3
        0x00002aba:    4601        .F      MOV      r1,r0
        0x00002abc:    4351        QC      MULS     r1,r2,r1
        0x00002abe:    0b09        ..      LSRS     r1,r1,#12
        0x00002ac0:    9101        ..      STR      r1,[sp,#4]
        0x00002ac2:    9905        ..      LDR      r1,[sp,#0x14]
        0x00002ac4:    9a07        ..      LDR      r2,[sp,#0x1c]
        0x00002ac6:    1a89        ..      SUBS     r1,r1,r2
        0x00002ac8:    1c4a        J.      ADDS     r2,r1,#1
        0x00002aca:    9904        ..      LDR      r1,[sp,#0x10]
        0x00002acc:    9b06        ..      LDR      r3,[sp,#0x18]
        0x00002ace:    1ac9        ..      SUBS     r1,r1,r3
        0x00002ad0:    1c49        I.      ADDS     r1,r1,#1
        0x00002ad2:    4351        QC      MULS     r1,r2,r1
        0x00002ad4:    4348        HC      MULS     r0,r1,r0
        0x00002ad6:    491f        .I      LDR      r1,[pc,#124] ; [0x2b54] = 0xfff
        0x00002ad8:    4008        .@      ANDS     r0,r0,r1
        0x00002ada:    9000        ..      STR      r0,[sp,#0]
        0x00002adc:    2000        .       MOVS     r0,#0
        0x00002ade:    9002        ..      STR      r0,[sp,#8]
        0x00002ae0:    e7ff        ..      B        0x2ae2 ; st7789_fill_rect + 966
        0x00002ae2:    9802        ..      LDR      r0,[sp,#8]
        0x00002ae4:    9901        ..      LDR      r1,[sp,#4]
        0x00002ae6:    4288        .B      CMP      r0,r1
        0x00002ae8:    d213        ..      BCS      0x2b12 ; st7789_fill_rect + 1014
        0x00002aea:    e7ff        ..      B        0x2aec ; st7789_fill_rect + 976
        0x00002aec:    9808        ..      LDR      r0,[sp,#0x20]
        0x00002aee:    4601        .F      MOV      r1,r0
        0x00002af0:    3133        31      ADDS     r1,r1,#0x33
        0x00002af2:    f2410200    A...    MOVW     r2,#0x1000
        0x00002af6:    2301        .#      MOVS     r3,#1
        0x00002af8:    f7feff42    ..B.    BL       a_st7789_write_bytes ; 0x1980
        0x00002afc:    b120         .      CBZ      r0,0x2b08 ; st7789_fill_rect + 1004
        0x00002afe:    e7ff        ..      B        0x2b00 ; st7789_fill_rect + 996
        0x00002b00:    a909        ..      ADD      r1,sp,#0x24
        0x00002b02:    2001        .       MOVS     r0,#1
        0x00002b04:    7008        .p      STRB     r0,[r1,#0]
        0x00002b06:    e021        !.      B        0x2b4c ; st7789_fill_rect + 1072
        0x00002b08:    e7ff        ..      B        0x2b0a ; st7789_fill_rect + 1006
        0x00002b0a:    9802        ..      LDR      r0,[sp,#8]
        0x00002b0c:    1c40        @.      ADDS     r0,r0,#1
        0x00002b0e:    9002        ..      STR      r0,[sp,#8]
        0x00002b10:    e7e7        ..      B        0x2ae2 ; st7789_fill_rect + 966
        0x00002b12:    9800        ..      LDR      r0,[sp,#0]
        0x00002b14:    b178        x.      CBZ      r0,0x2b36 ; st7789_fill_rect + 1050
        0x00002b16:    e7ff        ..      B        0x2b18 ; st7789_fill_rect + 1020
        0x00002b18:    9808        ..      LDR      r0,[sp,#0x20]
        0x00002b1a:    4601        .F      MOV      r1,r0
        0x00002b1c:    3133        31      ADDS     r1,r1,#0x33
        0x00002b1e:    466a        jF      MOV      r2,sp
        0x00002b20:    8812        ..      LDRH     r2,[r2,#0]
        0x00002b22:    2301        .#      MOVS     r3,#1
        0x00002b24:    f7feff2c    ..,.    BL       a_st7789_write_bytes ; 0x1980
        0x00002b28:    b120         .      CBZ      r0,0x2b34 ; st7789_fill_rect + 1048
        0x00002b2a:    e7ff        ..      B        0x2b2c ; st7789_fill_rect + 1040
        0x00002b2c:    a909        ..      ADD      r1,sp,#0x24
        0x00002b2e:    2001        .       MOVS     r0,#1
        0x00002b30:    7008        .p      STRB     r0,[r1,#0]
        0x00002b32:    e00b        ..      B        0x2b4c ; st7789_fill_rect + 1072
        0x00002b34:    e7ff        ..      B        0x2b36 ; st7789_fill_rect + 1050
        0x00002b36:    e003        ..      B        0x2b40 ; st7789_fill_rect + 1060
        0x00002b38:    a909        ..      ADD      r1,sp,#0x24
        0x00002b3a:    2004        .       MOVS     r0,#4
        0x00002b3c:    7008        .p      STRB     r0,[r1,#0]
        0x00002b3e:    e005        ..      B        0x2b4c ; st7789_fill_rect + 1072
        0x00002b40:    e7ff        ..      B        0x2b42 ; st7789_fill_rect + 1062
        0x00002b42:    e7ff        ..      B        0x2b44 ; st7789_fill_rect + 1064
        0x00002b44:    a909        ..      ADD      r1,sp,#0x24
        0x00002b46:    2000        .       MOVS     r0,#0
        0x00002b48:    7008        .p      STRB     r0,[r1,#0]
        0x00002b4a:    e7ff        ..      B        0x2b4c ; st7789_fill_rect + 1072
        0x00002b4c:    a809        ..      ADD      r0,sp,#0x24
        0x00002b4e:    7800        .x      LDRB     r0,[r0,#0]
        0x00002b50:    b00a        ..      ADD      sp,sp,#0x28
        0x00002b52:    bd70        p.      POP      {r4-r6,pc}
    $d.89
    __arm_cp.79_0
        0x00002b54:    00000fff    ....    DCD    4095
    $t.73
    st7789_gate_line_convert_to_register
        0x00002b58:    b084        ..      SUB      sp,sp,#0x10
        0x00002b5a:    9002        ..      STR      r0,[sp,#8]
        0x00002b5c:    a801        ..      ADD      r0,sp,#4
        0x00002b5e:    8001        ..      STRH     r1,[r0,#0]
        0x00002b60:    9200        ..      STR      r2,[sp,#0]
        0x00002b62:    9802        ..      LDR      r0,[sp,#8]
        0x00002b64:    b920         .      CBNZ     r0,0x2b70 ; st7789_gate_line_convert_to_register + 24
        0x00002b66:    e7ff        ..      B        0x2b68 ; st7789_gate_line_convert_to_register + 16
        0x00002b68:    a903        ..      ADD      r1,sp,#0xc
        0x00002b6a:    2002        .       MOVS     r0,#2
        0x00002b6c:    7008        .p      STRB     r0,[r1,#0]
        0x00002b6e:    e013        ..      B        0x2b98 ; st7789_gate_line_convert_to_register + 64
        0x00002b70:    9802        ..      LDR      r0,[sp,#8]
        0x00002b72:    212c        ,!      MOVS     r1,#0x2c
        0x00002b74:    5c40        @\      LDRB     r0,[r0,r1]
        0x00002b76:    2801        .(      CMP      r0,#1
        0x00002b78:    d004        ..      BEQ      0x2b84 ; st7789_gate_line_convert_to_register + 44
        0x00002b7a:    e7ff        ..      B        0x2b7c ; st7789_gate_line_convert_to_register + 36
        0x00002b7c:    a903        ..      ADD      r1,sp,#0xc
        0x00002b7e:    2003        .       MOVS     r0,#3
        0x00002b80:    7008        .p      STRB     r0,[r1,#0]
        0x00002b82:    e009        ..      B        0x2b98 ; st7789_gate_line_convert_to_register + 64
        0x00002b84:    a801        ..      ADD      r0,sp,#4
        0x00002b86:    8800        ..      LDRH     r0,[r0,#0]
        0x00002b88:    08c0        ..      LSRS     r0,r0,#3
        0x00002b8a:    1e40        @.      SUBS     r0,r0,#1
        0x00002b8c:    9900        ..      LDR      r1,[sp,#0]
        0x00002b8e:    7008        .p      STRB     r0,[r1,#0]
        0x00002b90:    a903        ..      ADD      r1,sp,#0xc
        0x00002b92:    2000        .       MOVS     r0,#0
        0x00002b94:    7008        .p      STRB     r0,[r1,#0]
        0x00002b96:    e7ff        ..      B        0x2b98 ; st7789_gate_line_convert_to_register + 64
        0x00002b98:    a803        ..      ADD      r0,sp,#0xc
        0x00002b9a:    7800        .x      LDRB     r0,[r0,#0]
        0x00002b9c:    b004        ..      ADD      sp,sp,#0x10
        0x00002b9e:    4770        pG      BX       lr
    st7789_idle_mode_off
        0x00002ba0:    b580        ..      PUSH     {r7,lr}
        0x00002ba2:    b082        ..      SUB      sp,sp,#8
        0x00002ba4:    9000        ..      STR      r0,[sp,#0]
        0x00002ba6:    9800        ..      LDR      r0,[sp,#0]
        0x00002ba8:    b920         .      CBNZ     r0,0x2bb4 ; st7789_idle_mode_off + 20
        0x00002baa:    e7ff        ..      B        0x2bac ; st7789_idle_mode_off + 12
        0x00002bac:    a901        ..      ADD      r1,sp,#4
        0x00002bae:    2002        .       MOVS     r0,#2
        0x00002bb0:    7008        .p      STRB     r0,[r1,#0]
        0x00002bb2:    e018        ..      B        0x2be6 ; st7789_idle_mode_off + 70
        0x00002bb4:    9800        ..      LDR      r0,[sp,#0]
        0x00002bb6:    212c        ,!      MOVS     r1,#0x2c
        0x00002bb8:    5c40        @\      LDRB     r0,[r0,r1]
        0x00002bba:    2801        .(      CMP      r0,#1
        0x00002bbc:    d004        ..      BEQ      0x2bc8 ; st7789_idle_mode_off + 40
        0x00002bbe:    e7ff        ..      B        0x2bc0 ; st7789_idle_mode_off + 32
        0x00002bc0:    a901        ..      ADD      r1,sp,#4
        0x00002bc2:    2003        .       MOVS     r0,#3
        0x00002bc4:    7008        .p      STRB     r0,[r1,#0]
        0x00002bc6:    e00e        ..      B        0x2be6 ; st7789_idle_mode_off + 70
        0x00002bc8:    9800        ..      LDR      r0,[sp,#0]
        0x00002bca:    2138        8!      MOVS     r1,#0x38
        0x00002bcc:    2200        ."      MOVS     r2,#0
        0x00002bce:    f7fefeab    ....    BL       a_st7789_write_byte ; 0x1928
        0x00002bd2:    b120         .      CBZ      r0,0x2bde ; st7789_idle_mode_off + 62
        0x00002bd4:    e7ff        ..      B        0x2bd6 ; st7789_idle_mode_off + 54
        0x00002bd6:    a901        ..      ADD      r1,sp,#4
        0x00002bd8:    2001        .       MOVS     r0,#1
        0x00002bda:    7008        .p      STRB     r0,[r1,#0]
        0x00002bdc:    e003        ..      B        0x2be6 ; st7789_idle_mode_off + 70
        0x00002bde:    a901        ..      ADD      r1,sp,#4
        0x00002be0:    2000        .       MOVS     r0,#0
        0x00002be2:    7008        .p      STRB     r0,[r1,#0]
        0x00002be4:    e7ff        ..      B        0x2be6 ; st7789_idle_mode_off + 70
        0x00002be6:    a801        ..      ADD      r0,sp,#4
        0x00002be8:    7800        .x      LDRB     r0,[r0,#0]
        0x00002bea:    b002        ..      ADD      sp,sp,#8
        0x00002bec:    bd80        ..      POP      {r7,pc}
        0x00002bee:    0000        ..      MOVS     r0,r0
    st7789_info
        0x00002bf0:    b580        ..      PUSH     {r7,lr}
        0x00002bf2:    b084        ..      SUB      sp,sp,#0x10
        0x00002bf4:    9002        ..      STR      r0,[sp,#8]
        0x00002bf6:    9802        ..      LDR      r0,[sp,#8]
        0x00002bf8:    b920         .      CBNZ     r0,0x2c04 ; st7789_info + 20
        0x00002bfa:    e7ff        ..      B        0x2bfc ; st7789_info + 12
        0x00002bfc:    a903        ..      ADD      r1,sp,#0xc
        0x00002bfe:    2002        .       MOVS     r0,#2
        0x00002c00:    7008        .p      STRB     r0,[r1,#0]
        0x00002c02:    e02c        ,.      B        0x2c5e ; st7789_info + 110
        0x00002c04:    9802        ..      LDR      r0,[sp,#8]
        0x00002c06:    2160        `!      MOVS     r1,#0x60
        0x00002c08:    f7fdfb11    ....    BL       __aeabi_memclr ; 0x22e
        0x00002c0c:    9802        ..      LDR      r0,[sp,#8]
        0x00002c0e:    4916        .I      LDR      r1,[pc,#88] ; [0x2c68] = 0x6890
        0x00002c10:    2220         "      MOVS     r2,#0x20
        0x00002c12:    9201        ..      STR      r2,[sp,#4]
        0x00002c14:    f7fdfb16    ....    BL       strncpy ; 0x244
        0x00002c18:    9a01        ..      LDR      r2,[sp,#4]
        0x00002c1a:    9802        ..      LDR      r0,[sp,#8]
        0x00002c1c:    3020         0      ADDS     r0,r0,#0x20
        0x00002c1e:    4913        .I      LDR      r1,[pc,#76] ; [0x2c6c] = 0x68a4
        0x00002c20:    f7fdfb10    ....    BL       strncpy ; 0x244
        0x00002c24:    9802        ..      LDR      r0,[sp,#8]
        0x00002c26:    3040        @0      ADDS     r0,r0,#0x40
        0x00002c28:    4911        .I      LDR      r1,[pc,#68] ; [0x2c70] = 0x68a0
        0x00002c2a:    2208        ."      MOVS     r2,#8
        0x00002c2c:    f7fdfb0a    ....    BL       strncpy ; 0x244
        0x00002c30:    9902        ..      LDR      r1,[sp,#8]
        0x00002c32:    4810        .H      LDR      r0,[pc,#64] ; [0x2c74] = 0x4019999a
        0x00002c34:    6488        .d      STR      r0,[r1,#0x48]
        0x00002c36:    9902        ..      LDR      r1,[sp,#8]
        0x00002c38:    480f        .H      LDR      r0,[pc,#60] ; [0x2c78] = 0x40533333
        0x00002c3a:    64c8        .d      STR      r0,[r1,#0x4c]
        0x00002c3c:    9902        ..      LDR      r1,[sp,#8]
        0x00002c3e:    480f        .H      LDR      r0,[pc,#60] ; [0x2c7c] = 0x40f00000
        0x00002c40:    6508        .e      STR      r0,[r1,#0x50]
        0x00002c42:    9902        ..      LDR      r1,[sp,#8]
        0x00002c44:    480e        .H      LDR      r0,[pc,#56] ; [0x2c80] = 0x42aa0000
        0x00002c46:    6588        .e      STR      r0,[r1,#0x58]
        0x00002c48:    9902        ..      LDR      r1,[sp,#8]
        0x00002c4a:    480e        .H      LDR      r0,[pc,#56] ; [0x2c84] = 0xc1f00000
        0x00002c4c:    6548        He      STR      r0,[r1,#0x54]
        0x00002c4e:    9902        ..      LDR      r1,[sp,#8]
        0x00002c50:    f24030e8    @..0    MOVW     r0,#0x3e8
        0x00002c54:    65c8        .e      STR      r0,[r1,#0x5c]
        0x00002c56:    a903        ..      ADD      r1,sp,#0xc
        0x00002c58:    2000        .       MOVS     r0,#0
        0x00002c5a:    7008        .p      STRB     r0,[r1,#0]
        0x00002c5c:    e7ff        ..      B        0x2c5e ; st7789_info + 110
        0x00002c5e:    a803        ..      ADD      r0,sp,#0xc
        0x00002c60:    7800        .x      LDRB     r0,[r0,#0]
        0x00002c62:    b004        ..      ADD      sp,sp,#0x10
        0x00002c64:    bd80        ..      POP      {r7,pc}
        0x00002c66:    46c0        .F      MOV      r8,r8
    $d.102
    __arm_cp.89_0
        0x00002c68:    00006890    .h..    DCD    26768
    __arm_cp.89_1
        0x00002c6c:    000068a4    .h..    DCD    26788
    __arm_cp.89_2
        0x00002c70:    000068a0    .h..    DCD    26784
    __arm_cp.89_3
        0x00002c74:    4019999a    ...@    DCD    1075419546
    __arm_cp.89_4
        0x00002c78:    40533333    33S@    DCD    1079194419
    __arm_cp.89_5
        0x00002c7c:    40f00000    ...@    DCD    1089470464
    __arm_cp.89_6
        0x00002c80:    42aa0000    ...B    DCD    1118437376
    __arm_cp.89_7
        0x00002c84:    c1f00000    ....    DCD    3253731328
    $t.82
    st7789_init
        0x00002c88:    b580        ..      PUSH     {r7,lr}
        0x00002c8a:    b082        ..      SUB      sp,sp,#8
        0x00002c8c:    9000        ..      STR      r0,[sp,#0]
        0x00002c8e:    9800        ..      LDR      r0,[sp,#0]
        0x00002c90:    b920         .      CBNZ     r0,0x2c9c ; st7789_init + 20
        0x00002c92:    e7ff        ..      B        0x2c94 ; st7789_init + 12
        0x00002c94:    a901        ..      ADD      r1,sp,#4
        0x00002c96:    2002        .       MOVS     r0,#2
        0x00002c98:    7008        .p      STRB     r0,[r1,#0]
        0x00002c9a:    e09f        ..      B        0x2ddc ; st7789_init + 340
        0x00002c9c:    9800        ..      LDR      r0,[sp,#0]
        0x00002c9e:    6800        .h      LDR      r0,[r0,#0]
        0x00002ca0:    b920         .      CBNZ     r0,0x2cac ; st7789_init + 36
        0x00002ca2:    e7ff        ..      B        0x2ca4 ; st7789_init + 28
        0x00002ca4:    a901        ..      ADD      r1,sp,#4
        0x00002ca6:    2003        .       MOVS     r0,#3
        0x00002ca8:    7008        .p      STRB     r0,[r1,#0]
        0x00002caa:    e097        ..      B        0x2ddc ; st7789_init + 340
        0x00002cac:    9800        ..      LDR      r0,[sp,#0]
        0x00002cae:    6840        @h      LDR      r0,[r0,#4]
        0x00002cb0:    b920         .      CBNZ     r0,0x2cbc ; st7789_init + 52
        0x00002cb2:    e7ff        ..      B        0x2cb4 ; st7789_init + 44
        0x00002cb4:    a901        ..      ADD      r1,sp,#4
        0x00002cb6:    2003        .       MOVS     r0,#3
        0x00002cb8:    7008        .p      STRB     r0,[r1,#0]
        0x00002cba:    e08f        ..      B        0x2ddc ; st7789_init + 340
        0x00002cbc:    9800        ..      LDR      r0,[sp,#0]
        0x00002cbe:    6880        .h      LDR      r0,[r0,#8]
        0x00002cc0:    b920         .      CBNZ     r0,0x2ccc ; st7789_init + 68
        0x00002cc2:    e7ff        ..      B        0x2cc4 ; st7789_init + 60
        0x00002cc4:    a901        ..      ADD      r1,sp,#4
        0x00002cc6:    2003        .       MOVS     r0,#3
        0x00002cc8:    7008        .p      STRB     r0,[r1,#0]
        0x00002cca:    e087        ..      B        0x2ddc ; st7789_init + 340
        0x00002ccc:    9800        ..      LDR      r0,[sp,#0]
        0x00002cce:    68c0        .h      LDR      r0,[r0,#0xc]
        0x00002cd0:    b920         .      CBNZ     r0,0x2cdc ; st7789_init + 84
        0x00002cd2:    e7ff        ..      B        0x2cd4 ; st7789_init + 76
        0x00002cd4:    a901        ..      ADD      r1,sp,#4
        0x00002cd6:    2003        .       MOVS     r0,#3
        0x00002cd8:    7008        .p      STRB     r0,[r1,#0]
        0x00002cda:    e07f        ..      B        0x2ddc ; st7789_init + 340
        0x00002cdc:    9800        ..      LDR      r0,[sp,#0]
        0x00002cde:    6900        .i      LDR      r0,[r0,#0x10]
        0x00002ce0:    b920         .      CBNZ     r0,0x2cec ; st7789_init + 100
        0x00002ce2:    e7ff        ..      B        0x2ce4 ; st7789_init + 92
        0x00002ce4:    a901        ..      ADD      r1,sp,#4
        0x00002ce6:    2003        .       MOVS     r0,#3
        0x00002ce8:    7008        .p      STRB     r0,[r1,#0]
        0x00002cea:    e077        w.      B        0x2ddc ; st7789_init + 340
        0x00002cec:    9800        ..      LDR      r0,[sp,#0]
        0x00002cee:    6940        @i      LDR      r0,[r0,#0x14]
        0x00002cf0:    b920         .      CBNZ     r0,0x2cfc ; st7789_init + 116
        0x00002cf2:    e7ff        ..      B        0x2cf4 ; st7789_init + 108
        0x00002cf4:    a901        ..      ADD      r1,sp,#4
        0x00002cf6:    2003        .       MOVS     r0,#3
        0x00002cf8:    7008        .p      STRB     r0,[r1,#0]
        0x00002cfa:    e06f        o.      B        0x2ddc ; st7789_init + 340
        0x00002cfc:    9800        ..      LDR      r0,[sp,#0]
        0x00002cfe:    6980        .i      LDR      r0,[r0,#0x18]
        0x00002d00:    b920         .      CBNZ     r0,0x2d0c ; st7789_init + 132
        0x00002d02:    e7ff        ..      B        0x2d04 ; st7789_init + 124
        0x00002d04:    a901        ..      ADD      r1,sp,#4
        0x00002d06:    2003        .       MOVS     r0,#3
        0x00002d08:    7008        .p      STRB     r0,[r1,#0]
        0x00002d0a:    e067        g.      B        0x2ddc ; st7789_init + 340
        0x00002d0c:    9800        ..      LDR      r0,[sp,#0]
        0x00002d0e:    69c0        .i      LDR      r0,[r0,#0x1c]
        0x00002d10:    b920         .      CBNZ     r0,0x2d1c ; st7789_init + 148
        0x00002d12:    e7ff        ..      B        0x2d14 ; st7789_init + 140
        0x00002d14:    a901        ..      ADD      r1,sp,#4
        0x00002d16:    2003        .       MOVS     r0,#3
        0x00002d18:    7008        .p      STRB     r0,[r1,#0]
        0x00002d1a:    e05f        _.      B        0x2ddc ; st7789_init + 340
        0x00002d1c:    9800        ..      LDR      r0,[sp,#0]
        0x00002d1e:    6a00        .j      LDR      r0,[r0,#0x20]
        0x00002d20:    b920         .      CBNZ     r0,0x2d2c ; st7789_init + 164
        0x00002d22:    e7ff        ..      B        0x2d24 ; st7789_init + 156
        0x00002d24:    a901        ..      ADD      r1,sp,#4
        0x00002d26:    2003        .       MOVS     r0,#3
        0x00002d28:    7008        .p      STRB     r0,[r1,#0]
        0x00002d2a:    e057        W.      B        0x2ddc ; st7789_init + 340
        0x00002d2c:    9800        ..      LDR      r0,[sp,#0]
        0x00002d2e:    6a80        .j      LDR      r0,[r0,#0x28]
        0x00002d30:    b920         .      CBNZ     r0,0x2d3c ; st7789_init + 180
        0x00002d32:    e7ff        ..      B        0x2d34 ; st7789_init + 172
        0x00002d34:    a901        ..      ADD      r1,sp,#4
        0x00002d36:    2003        .       MOVS     r0,#3
        0x00002d38:    7008        .p      STRB     r0,[r1,#0]
        0x00002d3a:    e04f        O.      B        0x2ddc ; st7789_init + 340
        0x00002d3c:    9800        ..      LDR      r0,[sp,#0]
        0x00002d3e:    68c0        .h      LDR      r0,[r0,#0xc]
        0x00002d40:    4780        .G      BLX      r0
        0x00002d42:    b120         .      CBZ      r0,0x2d4e ; st7789_init + 198
        0x00002d44:    e7ff        ..      B        0x2d46 ; st7789_init + 190
        0x00002d46:    a901        ..      ADD      r1,sp,#4
        0x00002d48:    2005        .       MOVS     r0,#5
        0x00002d4a:    7008        .p      STRB     r0,[r1,#0]
        0x00002d4c:    e046        F.      B        0x2ddc ; st7789_init + 340
        0x00002d4e:    9800        ..      LDR      r0,[sp,#0]
        0x00002d50:    6980        .i      LDR      r0,[r0,#0x18]
        0x00002d52:    4780        .G      BLX      r0
        0x00002d54:    b138        8.      CBZ      r0,0x2d66 ; st7789_init + 222
        0x00002d56:    e7ff        ..      B        0x2d58 ; st7789_init + 208
        0x00002d58:    9800        ..      LDR      r0,[sp,#0]
        0x00002d5a:    6900        .i      LDR      r0,[r0,#0x10]
        0x00002d5c:    4780        .G      BLX      r0
        0x00002d5e:    a901        ..      ADD      r1,sp,#4
        0x00002d60:    2004        .       MOVS     r0,#4
        0x00002d62:    7008        .p      STRB     r0,[r1,#0]
        0x00002d64:    e03a        :.      B        0x2ddc ; st7789_init + 340
        0x00002d66:    9800        ..      LDR      r0,[sp,#0]
        0x00002d68:    6a01        .j      LDR      r1,[r0,#0x20]
        0x00002d6a:    2000        .       MOVS     r0,#0
        0x00002d6c:    4788        .G      BLX      r1
        0x00002d6e:    b150        P.      CBZ      r0,0x2d86 ; st7789_init + 254
        0x00002d70:    e7ff        ..      B        0x2d72 ; st7789_init + 234
        0x00002d72:    9800        ..      LDR      r0,[sp,#0]
        0x00002d74:    6900        .i      LDR      r0,[r0,#0x10]
        0x00002d76:    4780        .G      BLX      r0
        0x00002d78:    9800        ..      LDR      r0,[sp,#0]
        0x00002d7a:    69c0        .i      LDR      r0,[r0,#0x1c]
        0x00002d7c:    4780        .G      BLX      r0
        0x00002d7e:    a901        ..      ADD      r1,sp,#4
        0x00002d80:    2004        .       MOVS     r0,#4
        0x00002d82:    7008        .p      STRB     r0,[r1,#0]
        0x00002d84:    e02a        *.      B        0x2ddc ; st7789_init + 340
        0x00002d86:    9800        ..      LDR      r0,[sp,#0]
        0x00002d88:    6a81        .j      LDR      r1,[r0,#0x28]
        0x00002d8a:    2064        d       MOVS     r0,#0x64
        0x00002d8c:    4788        .G      BLX      r1
        0x00002d8e:    9800        ..      LDR      r0,[sp,#0]
        0x00002d90:    6a01        .j      LDR      r1,[r0,#0x20]
        0x00002d92:    2001        .       MOVS     r0,#1
        0x00002d94:    4788        .G      BLX      r1
        0x00002d96:    b150        P.      CBZ      r0,0x2dae ; st7789_init + 294
        0x00002d98:    e7ff        ..      B        0x2d9a ; st7789_init + 274
        0x00002d9a:    9800        ..      LDR      r0,[sp,#0]
        0x00002d9c:    6900        .i      LDR      r0,[r0,#0x10]
        0x00002d9e:    4780        .G      BLX      r0
        0x00002da0:    9800        ..      LDR      r0,[sp,#0]
        0x00002da2:    69c0        .i      LDR      r0,[r0,#0x1c]
        0x00002da4:    4780        .G      BLX      r0
        0x00002da6:    a901        ..      ADD      r1,sp,#4
        0x00002da8:    2004        .       MOVS     r0,#4
        0x00002daa:    7008        .p      STRB     r0,[r1,#0]
        0x00002dac:    e016        ..      B        0x2ddc ; st7789_init + 340
        0x00002dae:    9800        ..      LDR      r0,[sp,#0]
        0x00002db0:    6800        .h      LDR      r0,[r0,#0]
        0x00002db2:    4780        .G      BLX      r0
        0x00002db4:    b150        P.      CBZ      r0,0x2dcc ; st7789_init + 324
        0x00002db6:    e7ff        ..      B        0x2db8 ; st7789_init + 304
        0x00002db8:    9800        ..      LDR      r0,[sp,#0]
        0x00002dba:    6900        .i      LDR      r0,[r0,#0x10]
        0x00002dbc:    4780        .G      BLX      r0
        0x00002dbe:    9800        ..      LDR      r0,[sp,#0]
        0x00002dc0:    69c0        .i      LDR      r0,[r0,#0x1c]
        0x00002dc2:    4780        .G      BLX      r0
        0x00002dc4:    a901        ..      ADD      r1,sp,#4
        0x00002dc6:    2001        .       MOVS     r0,#1
        0x00002dc8:    7008        .p      STRB     r0,[r1,#0]
        0x00002dca:    e007        ..      B        0x2ddc ; st7789_init + 340
        0x00002dcc:    9900        ..      LDR      r1,[sp,#0]
        0x00002dce:    222c        ,"      MOVS     r2,#0x2c
        0x00002dd0:    2001        .       MOVS     r0,#1
        0x00002dd2:    5488        .T      STRB     r0,[r1,r2]
        0x00002dd4:    a901        ..      ADD      r1,sp,#4
        0x00002dd6:    2000        .       MOVS     r0,#0
        0x00002dd8:    7008        .p      STRB     r0,[r1,#0]
        0x00002dda:    e7ff        ..      B        0x2ddc ; st7789_init + 340
        0x00002ddc:    a801        ..      ADD      r0,sp,#4
        0x00002dde:    7800        .x      LDRB     r0,[r0,#0]
        0x00002de0:    b002        ..      ADD      sp,sp,#8
        0x00002de2:    bd80        ..      POP      {r7,pc}
    st7789_interface_cmd_data_gpio_deinit
        0x00002de4:    b580        ..      PUSH     {r7,lr}
        0x00002de6:    f001fc13    ....    BL       wire_deinit ; 0x4610
        0x00002dea:    bd80        ..      POP      {r7,pc}
    st7789_interface_cmd_data_gpio_init
        0x00002dec:    b580        ..      PUSH     {r7,lr}
        0x00002dee:    f001fc1b    ....    BL       wire_init ; 0x4628
        0x00002df2:    bd80        ..      POP      {r7,pc}
    st7789_interface_cmd_data_gpio_write
        0x00002df4:    b580        ..      PUSH     {r7,lr}
        0x00002df6:    b082        ..      SUB      sp,sp,#8
        0x00002df8:    4601        .F      MOV      r1,r0
        0x00002dfa:    a801        ..      ADD      r0,sp,#4
        0x00002dfc:    7001        .p      STRB     r1,[r0,#0]
        0x00002dfe:    7800        .x      LDRB     r0,[r0,#0]
        0x00002e00:    f001fc34    ..4.    BL       wire_write ; 0x466c
        0x00002e04:    b002        ..      ADD      sp,sp,#8
        0x00002e06:    bd80        ..      POP      {r7,pc}
    st7789_interface_debug_print
        0x00002e08:    b083        ..      SUB      sp,sp,#0xc
        0x00002e0a:    b580        ..      PUSH     {r7,lr}
        0x00002e0c:    b0c5        ..      SUB      sp,sp,#0x114
        0x00002e0e:    9349        I.      STR      r3,[sp,#0x124]
        0x00002e10:    9248        H.      STR      r2,[sp,#0x120]
        0x00002e12:    9147        G.      STR      r1,[sp,#0x11c]
        0x00002e14:    9044        D.      STR      r0,[sp,#0x110]
        0x00002e16:    a804        ..      ADD      r0,sp,#0x10
        0x00002e18:    9001        ..      STR      r0,[sp,#4]
        0x00002e1a:    f2401100    @...    MOVW     r1,#0x100
        0x00002e1e:    f7fdfa06    ....    BL       __aeabi_memclr ; 0x22e
        0x00002e22:    9801        ..      LDR      r0,[sp,#4]
        0x00002e24:    a947        G.      ADD      r1,sp,#0x11c
        0x00002e26:    9102        ..      STR      r1,[sp,#8]
        0x00002e28:    9a44        D.      LDR      r2,[sp,#0x110]
        0x00002e2a:    9b02        ..      LDR      r3,[sp,#8]
        0x00002e2c:    21ff        .!      MOVS     r1,#0xff
        0x00002e2e:    f001fc5f    .._.    BL       __0vsnprintf ; 0x46f0
        0x00002e32:    9801        ..      LDR      r0,[sp,#4]
        0x00002e34:    f7fdfa13    ....    BL       strlen ; 0x25e
        0x00002e38:    4602        .F      MOV      r2,r0
        0x00002e3a:    9801        ..      LDR      r0,[sp,#4]
        0x00002e3c:    a903        ..      ADD      r1,sp,#0xc
        0x00002e3e:    800a        ..      STRH     r2,[r1,#0]
        0x00002e40:    8809        ..      LDRH     r1,[r1,#0]
        0x00002e42:    f001fb81    ....    BL       uart_write ; 0x4548
        0x00002e46:    b045        E.      ADD      sp,sp,#0x114
        0x00002e48:    bc80        ..      POP      {r7}
        0x00002e4a:    bc01        ..      POP      {r0}
        0x00002e4c:    b003        ..      ADD      sp,sp,#0xc
        0x00002e4e:    4686        .F      MOV      lr,r0
        0x00002e50:    4770        pG      BX       lr
    st7789_interface_delay_ms
        0x00002e52:    b580        ..      PUSH     {r7,lr}
        0x00002e54:    b082        ..      SUB      sp,sp,#8
        0x00002e56:    9001        ..      STR      r0,[sp,#4]
        0x00002e58:    9801        ..      LDR      r0,[sp,#4]
        0x00002e5a:    f7fefdbf    ....    BL       delay_ms ; 0x19dc
        0x00002e5e:    b002        ..      ADD      sp,sp,#8
        0x00002e60:    bd80        ..      POP      {r7,pc}
    st7789_interface_reset_gpio_deinit
        0x00002e62:    b580        ..      PUSH     {r7,lr}
        0x00002e64:    f001fbae    ....    BL       wire_clock_deinit ; 0x45c4
        0x00002e68:    bd80        ..      POP      {r7,pc}
    st7789_interface_reset_gpio_init
        0x00002e6a:    b580        ..      PUSH     {r7,lr}
        0x00002e6c:    f001fbac    ....    BL       wire_clock_init ; 0x45c8
        0x00002e70:    bd80        ..      POP      {r7,pc}
    st7789_interface_reset_gpio_write
        0x00002e72:    b580        ..      PUSH     {r7,lr}
        0x00002e74:    b082        ..      SUB      sp,sp,#8
        0x00002e76:    4601        .F      MOV      r1,r0
        0x00002e78:    a801        ..      ADD      r0,sp,#4
        0x00002e7a:    7001        .p      STRB     r1,[r0,#0]
        0x00002e7c:    7800        .x      LDRB     r0,[r0,#0]
        0x00002e7e:    f001fbb3    ....    BL       wire_clock_write ; 0x45e8
        0x00002e82:    b002        ..      ADD      sp,sp,#8
        0x00002e84:    bd80        ..      POP      {r7,pc}
    st7789_interface_spi_deinit
        0x00002e86:    b580        ..      PUSH     {r7,lr}
        0x00002e88:    f7fff9b4    ....    BL       spi_deinit ; 0x21f4
        0x00002e8c:    bd80        ..      POP      {r7,pc}
    st7789_interface_spi_init
        0x00002e8e:    b580        ..      PUSH     {r7,lr}
        0x00002e90:    200c        .       MOVS     r0,#0xc
        0x00002e92:    f7fff9b5    ....    BL       spi_init ; 0x2200
        0x00002e96:    bd80        ..      POP      {r7,pc}
    st7789_interface_spi_write_cmd
        0x00002e98:    b580        ..      PUSH     {r7,lr}
        0x00002e9a:    b084        ..      SUB      sp,sp,#0x10
        0x00002e9c:    9101        ..      STR      r1,[sp,#4]
        0x00002e9e:    4601        .F      MOV      r1,r0
        0x00002ea0:    9801        ..      LDR      r0,[sp,#4]
        0x00002ea2:    9103        ..      STR      r1,[sp,#0xc]
        0x00002ea4:    a902        ..      ADD      r1,sp,#8
        0x00002ea6:    8008        ..      STRH     r0,[r1,#0]
        0x00002ea8:    9803        ..      LDR      r0,[sp,#0xc]
        0x00002eaa:    8809        ..      LDRH     r1,[r1,#0]
        0x00002eac:    f7fff9d8    ....    BL       spi_write_cmd ; 0x2260
        0x00002eb0:    b004        ..      ADD      sp,sp,#0x10
        0x00002eb2:    bd80        ..      POP      {r7,pc}
    st7789_normal_display_mode_on
        0x00002eb4:    b580        ..      PUSH     {r7,lr}
        0x00002eb6:    b082        ..      SUB      sp,sp,#8
        0x00002eb8:    9000        ..      STR      r0,[sp,#0]
        0x00002eba:    9800        ..      LDR      r0,[sp,#0]
        0x00002ebc:    b920         .      CBNZ     r0,0x2ec8 ; st7789_normal_display_mode_on + 20
        0x00002ebe:    e7ff        ..      B        0x2ec0 ; st7789_normal_display_mode_on + 12
        0x00002ec0:    a901        ..      ADD      r1,sp,#4
        0x00002ec2:    2002        .       MOVS     r0,#2
        0x00002ec4:    7008        .p      STRB     r0,[r1,#0]
        0x00002ec6:    e018        ..      B        0x2efa ; st7789_normal_display_mode_on + 70
        0x00002ec8:    9800        ..      LDR      r0,[sp,#0]
        0x00002eca:    212c        ,!      MOVS     r1,#0x2c
        0x00002ecc:    5c40        @\      LDRB     r0,[r0,r1]
        0x00002ece:    2801        .(      CMP      r0,#1
        0x00002ed0:    d004        ..      BEQ      0x2edc ; st7789_normal_display_mode_on + 40
        0x00002ed2:    e7ff        ..      B        0x2ed4 ; st7789_normal_display_mode_on + 32
        0x00002ed4:    a901        ..      ADD      r1,sp,#4
        0x00002ed6:    2003        .       MOVS     r0,#3
        0x00002ed8:    7008        .p      STRB     r0,[r1,#0]
        0x00002eda:    e00e        ..      B        0x2efa ; st7789_normal_display_mode_on + 70
        0x00002edc:    9800        ..      LDR      r0,[sp,#0]
        0x00002ede:    2113        .!      MOVS     r1,#0x13
        0x00002ee0:    2200        ."      MOVS     r2,#0
        0x00002ee2:    f7fefd21    ..!.    BL       a_st7789_write_byte ; 0x1928
        0x00002ee6:    b120         .      CBZ      r0,0x2ef2 ; st7789_normal_display_mode_on + 62
        0x00002ee8:    e7ff        ..      B        0x2eea ; st7789_normal_display_mode_on + 54
        0x00002eea:    a901        ..      ADD      r1,sp,#4
        0x00002eec:    2001        .       MOVS     r0,#1
        0x00002eee:    7008        .p      STRB     r0,[r1,#0]
        0x00002ef0:    e003        ..      B        0x2efa ; st7789_normal_display_mode_on + 70
        0x00002ef2:    a901        ..      ADD      r1,sp,#4
        0x00002ef4:    2000        .       MOVS     r0,#0
        0x00002ef6:    7008        .p      STRB     r0,[r1,#0]
        0x00002ef8:    e7ff        ..      B        0x2efa ; st7789_normal_display_mode_on + 70
        0x00002efa:    a801        ..      ADD      r0,sp,#4
        0x00002efc:    7800        .x      LDRB     r0,[r0,#0]
        0x00002efe:    b002        ..      ADD      sp,sp,#8
        0x00002f00:    bd80        ..      POP      {r7,pc}
    st7789_set_brightness_control_and_color_enhancement
        0x00002f02:    b580        ..      PUSH     {r7,lr}
        0x00002f04:    b086        ..      SUB      sp,sp,#0x18
        0x00002f06:    9004        ..      STR      r0,[sp,#0x10]
        0x00002f08:    9103        ..      STR      r1,[sp,#0xc]
        0x00002f0a:    9202        ..      STR      r2,[sp,#8]
        0x00002f0c:    9301        ..      STR      r3,[sp,#4]
        0x00002f0e:    9804        ..      LDR      r0,[sp,#0x10]
        0x00002f10:    b920         .      CBNZ     r0,0x2f1c ; st7789_set_brightness_control_and_color_enhancement + 26
        0x00002f12:    e7ff        ..      B        0x2f14 ; st7789_set_brightness_control_and_color_enhancement + 18
        0x00002f14:    a905        ..      ADD      r1,sp,#0x14
        0x00002f16:    2002        .       MOVS     r0,#2
        0x00002f18:    7008        .p      STRB     r0,[r1,#0]
        0x00002f1a:    e02c        ,.      B        0x2f76 ; st7789_set_brightness_control_and_color_enhancement + 116
        0x00002f1c:    9804        ..      LDR      r0,[sp,#0x10]
        0x00002f1e:    212c        ,!      MOVS     r1,#0x2c
        0x00002f20:    5c40        @\      LDRB     r0,[r0,r1]
        0x00002f22:    2801        .(      CMP      r0,#1
        0x00002f24:    d004        ..      BEQ      0x2f30 ; st7789_set_brightness_control_and_color_enhancement + 46
        0x00002f26:    e7ff        ..      B        0x2f28 ; st7789_set_brightness_control_and_color_enhancement + 38
        0x00002f28:    a905        ..      ADD      r1,sp,#0x14
        0x00002f2a:    2003        .       MOVS     r0,#3
        0x00002f2c:    7008        .p      STRB     r0,[r1,#0]
        0x00002f2e:    e022        ".      B        0x2f76 ; st7789_set_brightness_control_and_color_enhancement + 116
        0x00002f30:    9804        ..      LDR      r0,[sp,#0x10]
        0x00002f32:    2155        U!      MOVS     r1,#0x55
        0x00002f34:    2200        ."      MOVS     r2,#0
        0x00002f36:    f7fefcf7    ....    BL       a_st7789_write_byte ; 0x1928
        0x00002f3a:    b120         .      CBZ      r0,0x2f46 ; st7789_set_brightness_control_and_color_enhancement + 68
        0x00002f3c:    e7ff        ..      B        0x2f3e ; st7789_set_brightness_control_and_color_enhancement + 60
        0x00002f3e:    a905        ..      ADD      r1,sp,#0x14
        0x00002f40:    2001        .       MOVS     r0,#1
        0x00002f42:    7008        .p      STRB     r0,[r1,#0]
        0x00002f44:    e017        ..      B        0x2f76 ; st7789_set_brightness_control_and_color_enhancement + 116
        0x00002f46:    9803        ..      LDR      r0,[sp,#0xc]
        0x00002f48:    01c0        ..      LSLS     r0,r0,#7
        0x00002f4a:    9901        ..      LDR      r1,[sp,#4]
        0x00002f4c:    0109        ..      LSLS     r1,r1,#4
        0x00002f4e:    4308        .C      ORRS     r0,r0,r1
        0x00002f50:    9902        ..      LDR      r1,[sp,#8]
        0x00002f52:    4308        .C      ORRS     r0,r0,r1
        0x00002f54:    4669        iF      MOV      r1,sp
        0x00002f56:    7008        .p      STRB     r0,[r1,#0]
        0x00002f58:    9804        ..      LDR      r0,[sp,#0x10]
        0x00002f5a:    7809        .x      LDRB     r1,[r1,#0]
        0x00002f5c:    2201        ."      MOVS     r2,#1
        0x00002f5e:    f7fefce3    ....    BL       a_st7789_write_byte ; 0x1928
        0x00002f62:    b120         .      CBZ      r0,0x2f6e ; st7789_set_brightness_control_and_color_enhancement + 108
        0x00002f64:    e7ff        ..      B        0x2f66 ; st7789_set_brightness_control_and_color_enhancement + 100
        0x00002f66:    a905        ..      ADD      r1,sp,#0x14
        0x00002f68:    2001        .       MOVS     r0,#1
        0x00002f6a:    7008        .p      STRB     r0,[r1,#0]
        0x00002f6c:    e003        ..      B        0x2f76 ; st7789_set_brightness_control_and_color_enhancement + 116
        0x00002f6e:    a905        ..      ADD      r1,sp,#0x14
        0x00002f70:    2000        .       MOVS     r0,#0
        0x00002f72:    7008        .p      STRB     r0,[r1,#0]
        0x00002f74:    e7ff        ..      B        0x2f76 ; st7789_set_brightness_control_and_color_enhancement + 116
        0x00002f76:    a805        ..      ADD      r0,sp,#0x14
        0x00002f78:    7800        .x      LDRB     r0,[r0,#0]
        0x00002f7a:    b006        ..      ADD      sp,sp,#0x18
        0x00002f7c:    bd80        ..      POP      {r7,pc}
    st7789_set_cabc_control
        0x00002f7e:    b510        ..      PUSH     {r4,lr}
        0x00002f80:    b086        ..      SUB      sp,sp,#0x18
        0x00002f82:    9c08        ..      LDR      r4,[sp,#0x20]
        0x00002f84:    9004        ..      STR      r0,[sp,#0x10]
        0x00002f86:    9103        ..      STR      r1,[sp,#0xc]
        0x00002f88:    9202        ..      STR      r2,[sp,#8]
        0x00002f8a:    9301        ..      STR      r3,[sp,#4]
        0x00002f8c:    9804        ..      LDR      r0,[sp,#0x10]
        0x00002f8e:    b920         .      CBNZ     r0,0x2f9a ; st7789_set_cabc_control + 28
        0x00002f90:    e7ff        ..      B        0x2f92 ; st7789_set_cabc_control + 20
        0x00002f92:    a905        ..      ADD      r1,sp,#0x14
        0x00002f94:    2002        .       MOVS     r0,#2
        0x00002f96:    7008        .p      STRB     r0,[r1,#0]
        0x00002f98:    e02f        /.      B        0x2ffa ; st7789_set_cabc_control + 124
        0x00002f9a:    9804        ..      LDR      r0,[sp,#0x10]
        0x00002f9c:    212c        ,!      MOVS     r1,#0x2c
        0x00002f9e:    5c40        @\      LDRB     r0,[r0,r1]
        0x00002fa0:    2801        .(      CMP      r0,#1
        0x00002fa2:    d004        ..      BEQ      0x2fae ; st7789_set_cabc_control + 48
        0x00002fa4:    e7ff        ..      B        0x2fa6 ; st7789_set_cabc_control + 40
        0x00002fa6:    a905        ..      ADD      r1,sp,#0x14
        0x00002fa8:    2003        .       MOVS     r0,#3
        0x00002faa:    7008        .p      STRB     r0,[r1,#0]
        0x00002fac:    e025        %.      B        0x2ffa ; st7789_set_cabc_control + 124
        0x00002fae:    9804        ..      LDR      r0,[sp,#0x10]
        0x00002fb0:    21c7        .!      MOVS     r1,#0xc7
        0x00002fb2:    2200        ."      MOVS     r2,#0
        0x00002fb4:    f7fefcb8    ....    BL       a_st7789_write_byte ; 0x1928
        0x00002fb8:    b120         .      CBZ      r0,0x2fc4 ; st7789_set_cabc_control + 70
        0x00002fba:    e7ff        ..      B        0x2fbc ; st7789_set_cabc_control + 62
        0x00002fbc:    a905        ..      ADD      r1,sp,#0x14
        0x00002fbe:    2001        .       MOVS     r0,#1
        0x00002fc0:    7008        .p      STRB     r0,[r1,#0]
        0x00002fc2:    e01a        ..      B        0x2ffa ; st7789_set_cabc_control + 124
        0x00002fc4:    9803        ..      LDR      r0,[sp,#0xc]
        0x00002fc6:    00c0        ..      LSLS     r0,r0,#3
        0x00002fc8:    9902        ..      LDR      r1,[sp,#8]
        0x00002fca:    0089        ..      LSLS     r1,r1,#2
        0x00002fcc:    4308        .C      ORRS     r0,r0,r1
        0x00002fce:    9901        ..      LDR      r1,[sp,#4]
        0x00002fd0:    0049        I.      LSLS     r1,r1,#1
        0x00002fd2:    4308        .C      ORRS     r0,r0,r1
        0x00002fd4:    9908        ..      LDR      r1,[sp,#0x20]
        0x00002fd6:    4308        .C      ORRS     r0,r0,r1
        0x00002fd8:    4669        iF      MOV      r1,sp
        0x00002fda:    7008        .p      STRB     r0,[r1,#0]
        0x00002fdc:    9804        ..      LDR      r0,[sp,#0x10]
        0x00002fde:    7809        .x      LDRB     r1,[r1,#0]
        0x00002fe0:    2201        ."      MOVS     r2,#1
        0x00002fe2:    f7fefca1    ....    BL       a_st7789_write_byte ; 0x1928
        0x00002fe6:    b120         .      CBZ      r0,0x2ff2 ; st7789_set_cabc_control + 116
        0x00002fe8:    e7ff        ..      B        0x2fea ; st7789_set_cabc_control + 108
        0x00002fea:    a905        ..      ADD      r1,sp,#0x14
        0x00002fec:    2001        .       MOVS     r0,#1
        0x00002fee:    7008        .p      STRB     r0,[r1,#0]
        0x00002ff0:    e003        ..      B        0x2ffa ; st7789_set_cabc_control + 124
        0x00002ff2:    a905        ..      ADD      r1,sp,#0x14
        0x00002ff4:    2000        .       MOVS     r0,#0
        0x00002ff6:    7008        .p      STRB     r0,[r1,#0]
        0x00002ff8:    e7ff        ..      B        0x2ffa ; st7789_set_cabc_control + 124
        0x00002ffa:    a805        ..      ADD      r0,sp,#0x14
        0x00002ffc:    7800        .x      LDRB     r0,[r0,#0]
        0x00002ffe:    b006        ..      ADD      sp,sp,#0x18
        0x00003000:    bd10        ..      POP      {r4,pc}
    st7789_set_cabc_minimum_brightness
        0x00003002:    b580        ..      PUSH     {r7,lr}
        0x00003004:    b084        ..      SUB      sp,sp,#0x10
        0x00003006:    9002        ..      STR      r0,[sp,#8]
        0x00003008:    a801        ..      ADD      r0,sp,#4
        0x0000300a:    7001        .p      STRB     r1,[r0,#0]
        0x0000300c:    9802        ..      LDR      r0,[sp,#8]
        0x0000300e:    b920         .      CBNZ     r0,0x301a ; st7789_set_cabc_minimum_brightness + 24
        0x00003010:    e7ff        ..      B        0x3012 ; st7789_set_cabc_minimum_brightness + 16
        0x00003012:    a903        ..      ADD      r1,sp,#0xc
        0x00003014:    2002        .       MOVS     r0,#2
        0x00003016:    7008        .p      STRB     r0,[r1,#0]
        0x00003018:    e024        $.      B        0x3064 ; st7789_set_cabc_minimum_brightness + 98
        0x0000301a:    9802        ..      LDR      r0,[sp,#8]
        0x0000301c:    212c        ,!      MOVS     r1,#0x2c
        0x0000301e:    5c40        @\      LDRB     r0,[r0,r1]
        0x00003020:    2801        .(      CMP      r0,#1
        0x00003022:    d004        ..      BEQ      0x302e ; st7789_set_cabc_minimum_brightness + 44
        0x00003024:    e7ff        ..      B        0x3026 ; st7789_set_cabc_minimum_brightness + 36
        0x00003026:    a903        ..      ADD      r1,sp,#0xc
        0x00003028:    2003        .       MOVS     r0,#3
        0x0000302a:    7008        .p      STRB     r0,[r1,#0]
        0x0000302c:    e01a        ..      B        0x3064 ; st7789_set_cabc_minimum_brightness + 98
        0x0000302e:    9802        ..      LDR      r0,[sp,#8]
        0x00003030:    215e        ^!      MOVS     r1,#0x5e
        0x00003032:    2200        ."      MOVS     r2,#0
        0x00003034:    f7fefc78    ..x.    BL       a_st7789_write_byte ; 0x1928
        0x00003038:    b120         .      CBZ      r0,0x3044 ; st7789_set_cabc_minimum_brightness + 66
        0x0000303a:    e7ff        ..      B        0x303c ; st7789_set_cabc_minimum_brightness + 58
        0x0000303c:    a903        ..      ADD      r1,sp,#0xc
        0x0000303e:    2001        .       MOVS     r0,#1
        0x00003040:    7008        .p      STRB     r0,[r1,#0]
        0x00003042:    e00f        ..      B        0x3064 ; st7789_set_cabc_minimum_brightness + 98
        0x00003044:    9802        ..      LDR      r0,[sp,#8]
        0x00003046:    a901        ..      ADD      r1,sp,#4
        0x00003048:    7809        .x      LDRB     r1,[r1,#0]
        0x0000304a:    2201        ."      MOVS     r2,#1
        0x0000304c:    f7fefc6c    ..l.    BL       a_st7789_write_byte ; 0x1928
        0x00003050:    b120         .      CBZ      r0,0x305c ; st7789_set_cabc_minimum_brightness + 90
        0x00003052:    e7ff        ..      B        0x3054 ; st7789_set_cabc_minimum_brightness + 82
        0x00003054:    a903        ..      ADD      r1,sp,#0xc
        0x00003056:    2001        .       MOVS     r0,#1
        0x00003058:    7008        .p      STRB     r0,[r1,#0]
        0x0000305a:    e003        ..      B        0x3064 ; st7789_set_cabc_minimum_brightness + 98
        0x0000305c:    a903        ..      ADD      r1,sp,#0xc
        0x0000305e:    2000        .       MOVS     r0,#0
        0x00003060:    7008        .p      STRB     r0,[r1,#0]
        0x00003062:    e7ff        ..      B        0x3064 ; st7789_set_cabc_minimum_brightness + 98
        0x00003064:    a803        ..      ADD      r0,sp,#0xc
        0x00003066:    7800        .x      LDRB     r0,[r0,#0]
        0x00003068:    b004        ..      ADD      sp,sp,#0x10
        0x0000306a:    bd80        ..      POP      {r7,pc}
    st7789_set_column
        0x0000306c:    b083        ..      SUB      sp,sp,#0xc
        0x0000306e:    9001        ..      STR      r0,[sp,#4]
        0x00003070:    4668        hF      MOV      r0,sp
        0x00003072:    8001        ..      STRH     r1,[r0,#0]
        0x00003074:    9801        ..      LDR      r0,[sp,#4]
        0x00003076:    b920         .      CBNZ     r0,0x3082 ; st7789_set_column + 22
        0x00003078:    e7ff        ..      B        0x307a ; st7789_set_column + 14
        0x0000307a:    a902        ..      ADD      r1,sp,#8
        0x0000307c:    2002        .       MOVS     r0,#2
        0x0000307e:    7008        .p      STRB     r0,[r1,#0]
        0x00003080:    e019        ..      B        0x30b6 ; st7789_set_column + 74
        0x00003082:    9801        ..      LDR      r0,[sp,#4]
        0x00003084:    212c        ,!      MOVS     r1,#0x2c
        0x00003086:    5c40        @\      LDRB     r0,[r0,r1]
        0x00003088:    2801        .(      CMP      r0,#1
        0x0000308a:    d004        ..      BEQ      0x3096 ; st7789_set_column + 42
        0x0000308c:    e7ff        ..      B        0x308e ; st7789_set_column + 34
        0x0000308e:    a902        ..      ADD      r1,sp,#8
        0x00003090:    2003        .       MOVS     r0,#3
        0x00003092:    7008        .p      STRB     r0,[r1,#0]
        0x00003094:    e00f        ..      B        0x30b6 ; st7789_set_column + 74
        0x00003096:    4668        hF      MOV      r0,sp
        0x00003098:    8800        ..      LDRH     r0,[r0,#0]
        0x0000309a:    28f1        .(      CMP      r0,#0xf1
        0x0000309c:    db04        ..      BLT      0x30a8 ; st7789_set_column + 60
        0x0000309e:    e7ff        ..      B        0x30a0 ; st7789_set_column + 52
        0x000030a0:    a902        ..      ADD      r1,sp,#8
        0x000030a2:    2004        .       MOVS     r0,#4
        0x000030a4:    7008        .p      STRB     r0,[r1,#0]
        0x000030a6:    e006        ..      B        0x30b6 ; st7789_set_column + 74
        0x000030a8:    9800        ..      LDR      r0,[sp,#0]
        0x000030aa:    9901        ..      LDR      r1,[sp,#4]
        0x000030ac:    85c8        ..      STRH     r0,[r1,#0x2e]
        0x000030ae:    a902        ..      ADD      r1,sp,#8
        0x000030b0:    2000        .       MOVS     r0,#0
        0x000030b2:    7008        .p      STRB     r0,[r1,#0]
        0x000030b4:    e7ff        ..      B        0x30b6 ; st7789_set_column + 74
        0x000030b6:    a802        ..      ADD      r0,sp,#8
        0x000030b8:    7800        .x      LDRB     r0,[r0,#0]
        0x000030ba:    b003        ..      ADD      sp,sp,#0xc
        0x000030bc:    4770        pG      BX       lr
    st7789_set_command_2_enable
        0x000030be:    b580        ..      PUSH     {r7,lr}
        0x000030c0:    b084        ..      SUB      sp,sp,#0x10
        0x000030c2:    9002        ..      STR      r0,[sp,#8]
        0x000030c4:    9101        ..      STR      r1,[sp,#4]
        0x000030c6:    9802        ..      LDR      r0,[sp,#8]
        0x000030c8:    b920         .      CBNZ     r0,0x30d4 ; st7789_set_command_2_enable + 22
        0x000030ca:    e7ff        ..      B        0x30cc ; st7789_set_command_2_enable + 14
        0x000030cc:    a903        ..      ADD      r1,sp,#0xc
        0x000030ce:    2002        .       MOVS     r0,#2
        0x000030d0:    7008        .p      STRB     r0,[r1,#0]
        0x000030d2:    e02c        ,.      B        0x312e ; st7789_set_command_2_enable + 112
        0x000030d4:    9802        ..      LDR      r0,[sp,#8]
        0x000030d6:    212c        ,!      MOVS     r1,#0x2c
        0x000030d8:    5c40        @\      LDRB     r0,[r0,r1]
        0x000030da:    2801        .(      CMP      r0,#1
        0x000030dc:    d004        ..      BEQ      0x30e8 ; st7789_set_command_2_enable + 42
        0x000030de:    e7ff        ..      B        0x30e0 ; st7789_set_command_2_enable + 34
        0x000030e0:    a903        ..      ADD      r1,sp,#0xc
        0x000030e2:    2003        .       MOVS     r0,#3
        0x000030e4:    7008        .p      STRB     r0,[r1,#0]
        0x000030e6:    e022        ".      B        0x312e ; st7789_set_command_2_enable + 112
        0x000030e8:    9802        ..      LDR      r0,[sp,#8]
        0x000030ea:    21df        .!      MOVS     r1,#0xdf
        0x000030ec:    2200        ."      MOVS     r2,#0
        0x000030ee:    f7fefc1b    ....    BL       a_st7789_write_byte ; 0x1928
        0x000030f2:    b120         .      CBZ      r0,0x30fe ; st7789_set_command_2_enable + 64
        0x000030f4:    e7ff        ..      B        0x30f6 ; st7789_set_command_2_enable + 56
        0x000030f6:    a903        ..      ADD      r1,sp,#0xc
        0x000030f8:    2001        .       MOVS     r0,#1
        0x000030fa:    7008        .p      STRB     r0,[r1,#0]
        0x000030fc:    e017        ..      B        0x312e ; st7789_set_command_2_enable + 112
        0x000030fe:    4669        iF      MOV      r1,sp
        0x00003100:    205a        Z       MOVS     r0,#0x5a
        0x00003102:    7008        .p      STRB     r0,[r1,#0]
        0x00003104:    2069        i       MOVS     r0,#0x69
        0x00003106:    7048        Hp      STRB     r0,[r1,#1]
        0x00003108:    2002        .       MOVS     r0,#2
        0x0000310a:    7088        .p      STRB     r0,[r1,#2]
        0x0000310c:    9801        ..      LDR      r0,[sp,#4]
        0x0000310e:    70c8        .p      STRB     r0,[r1,#3]
        0x00003110:    9802        ..      LDR      r0,[sp,#8]
        0x00003112:    2204        ."      MOVS     r2,#4
        0x00003114:    2301        .#      MOVS     r3,#1
        0x00003116:    f7fefc33    ..3.    BL       a_st7789_write_bytes ; 0x1980
        0x0000311a:    b120         .      CBZ      r0,0x3126 ; st7789_set_command_2_enable + 104
        0x0000311c:    e7ff        ..      B        0x311e ; st7789_set_command_2_enable + 96
        0x0000311e:    a903        ..      ADD      r1,sp,#0xc
        0x00003120:    2001        .       MOVS     r0,#1
        0x00003122:    7008        .p      STRB     r0,[r1,#0]
        0x00003124:    e003        ..      B        0x312e ; st7789_set_command_2_enable + 112
        0x00003126:    a903        ..      ADD      r1,sp,#0xc
        0x00003128:    2000        .       MOVS     r0,#0
        0x0000312a:    7008        .p      STRB     r0,[r1,#0]
        0x0000312c:    e7ff        ..      B        0x312e ; st7789_set_command_2_enable + 112
        0x0000312e:    a803        ..      ADD      r0,sp,#0xc
        0x00003130:    7800        .x      LDRB     r0,[r0,#0]
        0x00003132:    b004        ..      ADD      sp,sp,#0x10
        0x00003134:    bd80        ..      POP      {r7,pc}
    st7789_set_digital_gamma
        0x00003136:    b580        ..      PUSH     {r7,lr}
        0x00003138:    b084        ..      SUB      sp,sp,#0x10
        0x0000313a:    9002        ..      STR      r0,[sp,#8]
        0x0000313c:    9101        ..      STR      r1,[sp,#4]
        0x0000313e:    9802        ..      LDR      r0,[sp,#8]
        0x00003140:    b920         .      CBNZ     r0,0x314c ; st7789_set_digital_gamma + 22
        0x00003142:    e7ff        ..      B        0x3144 ; st7789_set_digital_gamma + 14
        0x00003144:    a903        ..      ADD      r1,sp,#0xc
        0x00003146:    2002        .       MOVS     r0,#2
        0x00003148:    7008        .p      STRB     r0,[r1,#0]
        0x0000314a:    e027        '.      B        0x319c ; st7789_set_digital_gamma + 102
        0x0000314c:    9802        ..      LDR      r0,[sp,#8]
        0x0000314e:    212c        ,!      MOVS     r1,#0x2c
        0x00003150:    5c40        @\      LDRB     r0,[r0,r1]
        0x00003152:    2801        .(      CMP      r0,#1
        0x00003154:    d004        ..      BEQ      0x3160 ; st7789_set_digital_gamma + 42
        0x00003156:    e7ff        ..      B        0x3158 ; st7789_set_digital_gamma + 34
        0x00003158:    a903        ..      ADD      r1,sp,#0xc
        0x0000315a:    2003        .       MOVS     r0,#3
        0x0000315c:    7008        .p      STRB     r0,[r1,#0]
        0x0000315e:    e01d        ..      B        0x319c ; st7789_set_digital_gamma + 102
        0x00003160:    9802        ..      LDR      r0,[sp,#8]
        0x00003162:    21ba        .!      MOVS     r1,#0xba
        0x00003164:    2200        ."      MOVS     r2,#0
        0x00003166:    f7fefbdf    ....    BL       a_st7789_write_byte ; 0x1928
        0x0000316a:    b120         .      CBZ      r0,0x3176 ; st7789_set_digital_gamma + 64
        0x0000316c:    e7ff        ..      B        0x316e ; st7789_set_digital_gamma + 56
        0x0000316e:    a903        ..      ADD      r1,sp,#0xc
        0x00003170:    2001        .       MOVS     r0,#1
        0x00003172:    7008        .p      STRB     r0,[r1,#0]
        0x00003174:    e012        ..      B        0x319c ; st7789_set_digital_gamma + 102
        0x00003176:    9801        ..      LDR      r0,[sp,#4]
        0x00003178:    0080        ..      LSLS     r0,r0,#2
        0x0000317a:    4669        iF      MOV      r1,sp
        0x0000317c:    7008        .p      STRB     r0,[r1,#0]
        0x0000317e:    9802        ..      LDR      r0,[sp,#8]
        0x00003180:    7809        .x      LDRB     r1,[r1,#0]
        0x00003182:    2201        ."      MOVS     r2,#1
        0x00003184:    f7fefbd0    ....    BL       a_st7789_write_byte ; 0x1928
        0x00003188:    b120         .      CBZ      r0,0x3194 ; st7789_set_digital_gamma + 94
        0x0000318a:    e7ff        ..      B        0x318c ; st7789_set_digital_gamma + 86
        0x0000318c:    a903        ..      ADD      r1,sp,#0xc
        0x0000318e:    2001        .       MOVS     r0,#1
        0x00003190:    7008        .p      STRB     r0,[r1,#0]
        0x00003192:    e003        ..      B        0x319c ; st7789_set_digital_gamma + 102
        0x00003194:    a903        ..      ADD      r1,sp,#0xc
        0x00003196:    2000        .       MOVS     r0,#0
        0x00003198:    7008        .p      STRB     r0,[r1,#0]
        0x0000319a:    e7ff        ..      B        0x319c ; st7789_set_digital_gamma + 102
        0x0000319c:    a803        ..      ADD      r0,sp,#0xc
        0x0000319e:    7800        .x      LDRB     r0,[r0,#0]
        0x000031a0:    b004        ..      ADD      sp,sp,#0x10
        0x000031a2:    bd80        ..      POP      {r7,pc}
    st7789_set_digital_gamma_look_up_table_blue
        0x000031a4:    b580        ..      PUSH     {r7,lr}
        0x000031a6:    b084        ..      SUB      sp,sp,#0x10
        0x000031a8:    9002        ..      STR      r0,[sp,#8]
        0x000031aa:    9101        ..      STR      r1,[sp,#4]
        0x000031ac:    9802        ..      LDR      r0,[sp,#8]
        0x000031ae:    b920         .      CBNZ     r0,0x31ba ; st7789_set_digital_gamma_look_up_table_blue + 22
        0x000031b0:    e7ff        ..      B        0x31b2 ; st7789_set_digital_gamma_look_up_table_blue + 14
        0x000031b2:    a903        ..      ADD      r1,sp,#0xc
        0x000031b4:    2002        .       MOVS     r0,#2
        0x000031b6:    7008        .p      STRB     r0,[r1,#0]
        0x000031b8:    e024        $.      B        0x3204 ; st7789_set_digital_gamma_look_up_table_blue + 96
        0x000031ba:    9802        ..      LDR      r0,[sp,#8]
        0x000031bc:    212c        ,!      MOVS     r1,#0x2c
        0x000031be:    5c40        @\      LDRB     r0,[r0,r1]
        0x000031c0:    2801        .(      CMP      r0,#1
        0x000031c2:    d004        ..      BEQ      0x31ce ; st7789_set_digital_gamma_look_up_table_blue + 42
        0x000031c4:    e7ff        ..      B        0x31c6 ; st7789_set_digital_gamma_look_up_table_blue + 34
        0x000031c6:    a903        ..      ADD      r1,sp,#0xc
        0x000031c8:    2003        .       MOVS     r0,#3
        0x000031ca:    7008        .p      STRB     r0,[r1,#0]
        0x000031cc:    e01a        ..      B        0x3204 ; st7789_set_digital_gamma_look_up_table_blue + 96
        0x000031ce:    9802        ..      LDR      r0,[sp,#8]
        0x000031d0:    21e3        .!      MOVS     r1,#0xe3
        0x000031d2:    2200        ."      MOVS     r2,#0
        0x000031d4:    f7fefba8    ....    BL       a_st7789_write_byte ; 0x1928
        0x000031d8:    b120         .      CBZ      r0,0x31e4 ; st7789_set_digital_gamma_look_up_table_blue + 64
        0x000031da:    e7ff        ..      B        0x31dc ; st7789_set_digital_gamma_look_up_table_blue + 56
        0x000031dc:    a903        ..      ADD      r1,sp,#0xc
        0x000031de:    2001        .       MOVS     r0,#1
        0x000031e0:    7008        .p      STRB     r0,[r1,#0]
        0x000031e2:    e00f        ..      B        0x3204 ; st7789_set_digital_gamma_look_up_table_blue + 96
        0x000031e4:    9802        ..      LDR      r0,[sp,#8]
        0x000031e6:    9901        ..      LDR      r1,[sp,#4]
        0x000031e8:    2240        @"      MOVS     r2,#0x40
        0x000031ea:    2301        .#      MOVS     r3,#1
        0x000031ec:    f7fefbc8    ....    BL       a_st7789_write_bytes ; 0x1980
        0x000031f0:    b120         .      CBZ      r0,0x31fc ; st7789_set_digital_gamma_look_up_table_blue + 88
        0x000031f2:    e7ff        ..      B        0x31f4 ; st7789_set_digital_gamma_look_up_table_blue + 80
        0x000031f4:    a903        ..      ADD      r1,sp,#0xc
        0x000031f6:    2001        .       MOVS     r0,#1
        0x000031f8:    7008        .p      STRB     r0,[r1,#0]
        0x000031fa:    e003        ..      B        0x3204 ; st7789_set_digital_gamma_look_up_table_blue + 96
        0x000031fc:    a903        ..      ADD      r1,sp,#0xc
        0x000031fe:    2000        .       MOVS     r0,#0
        0x00003200:    7008        .p      STRB     r0,[r1,#0]
        0x00003202:    e7ff        ..      B        0x3204 ; st7789_set_digital_gamma_look_up_table_blue + 96
        0x00003204:    a803        ..      ADD      r0,sp,#0xc
        0x00003206:    7800        .x      LDRB     r0,[r0,#0]
        0x00003208:    b004        ..      ADD      sp,sp,#0x10
        0x0000320a:    bd80        ..      POP      {r7,pc}
    st7789_set_digital_gamma_look_up_table_red
        0x0000320c:    b580        ..      PUSH     {r7,lr}
        0x0000320e:    b084        ..      SUB      sp,sp,#0x10
        0x00003210:    9002        ..      STR      r0,[sp,#8]
        0x00003212:    9101        ..      STR      r1,[sp,#4]
        0x00003214:    9802        ..      LDR      r0,[sp,#8]
        0x00003216:    b920         .      CBNZ     r0,0x3222 ; st7789_set_digital_gamma_look_up_table_red + 22
        0x00003218:    e7ff        ..      B        0x321a ; st7789_set_digital_gamma_look_up_table_red + 14
        0x0000321a:    a903        ..      ADD      r1,sp,#0xc
        0x0000321c:    2002        .       MOVS     r0,#2
        0x0000321e:    7008        .p      STRB     r0,[r1,#0]
        0x00003220:    e024        $.      B        0x326c ; st7789_set_digital_gamma_look_up_table_red + 96
        0x00003222:    9802        ..      LDR      r0,[sp,#8]
        0x00003224:    212c        ,!      MOVS     r1,#0x2c
        0x00003226:    5c40        @\      LDRB     r0,[r0,r1]
        0x00003228:    2801        .(      CMP      r0,#1
        0x0000322a:    d004        ..      BEQ      0x3236 ; st7789_set_digital_gamma_look_up_table_red + 42
        0x0000322c:    e7ff        ..      B        0x322e ; st7789_set_digital_gamma_look_up_table_red + 34
        0x0000322e:    a903        ..      ADD      r1,sp,#0xc
        0x00003230:    2003        .       MOVS     r0,#3
        0x00003232:    7008        .p      STRB     r0,[r1,#0]
        0x00003234:    e01a        ..      B        0x326c ; st7789_set_digital_gamma_look_up_table_red + 96
        0x00003236:    9802        ..      LDR      r0,[sp,#8]
        0x00003238:    21e2        .!      MOVS     r1,#0xe2
        0x0000323a:    2200        ."      MOVS     r2,#0
        0x0000323c:    f7fefb74    ..t.    BL       a_st7789_write_byte ; 0x1928
        0x00003240:    b120         .      CBZ      r0,0x324c ; st7789_set_digital_gamma_look_up_table_red + 64
        0x00003242:    e7ff        ..      B        0x3244 ; st7789_set_digital_gamma_look_up_table_red + 56
        0x00003244:    a903        ..      ADD      r1,sp,#0xc
        0x00003246:    2001        .       MOVS     r0,#1
        0x00003248:    7008        .p      STRB     r0,[r1,#0]
        0x0000324a:    e00f        ..      B        0x326c ; st7789_set_digital_gamma_look_up_table_red + 96
        0x0000324c:    9802        ..      LDR      r0,[sp,#8]
        0x0000324e:    9901        ..      LDR      r1,[sp,#4]
        0x00003250:    2240        @"      MOVS     r2,#0x40
        0x00003252:    2301        .#      MOVS     r3,#1
        0x00003254:    f7fefb94    ....    BL       a_st7789_write_bytes ; 0x1980
        0x00003258:    b120         .      CBZ      r0,0x3264 ; st7789_set_digital_gamma_look_up_table_red + 88
        0x0000325a:    e7ff        ..      B        0x325c ; st7789_set_digital_gamma_look_up_table_red + 80
        0x0000325c:    a903        ..      ADD      r1,sp,#0xc
        0x0000325e:    2001        .       MOVS     r0,#1
        0x00003260:    7008        .p      STRB     r0,[r1,#0]
        0x00003262:    e003        ..      B        0x326c ; st7789_set_digital_gamma_look_up_table_red + 96
        0x00003264:    a903        ..      ADD      r1,sp,#0xc
        0x00003266:    2000        .       MOVS     r0,#0
        0x00003268:    7008        .p      STRB     r0,[r1,#0]
        0x0000326a:    e7ff        ..      B        0x326c ; st7789_set_digital_gamma_look_up_table_red + 96
        0x0000326c:    a803        ..      ADD      r0,sp,#0xc
        0x0000326e:    7800        .x      LDRB     r0,[r0,#0]
        0x00003270:    b004        ..      ADD      sp,sp,#0x10
        0x00003272:    bd80        ..      POP      {r7,pc}
    st7789_set_display_brightness
        0x00003274:    b580        ..      PUSH     {r7,lr}
        0x00003276:    b084        ..      SUB      sp,sp,#0x10
        0x00003278:    9002        ..      STR      r0,[sp,#8]
        0x0000327a:    a801        ..      ADD      r0,sp,#4
        0x0000327c:    7001        .p      STRB     r1,[r0,#0]
        0x0000327e:    9802        ..      LDR      r0,[sp,#8]
        0x00003280:    b920         .      CBNZ     r0,0x328c ; st7789_set_display_brightness + 24
        0x00003282:    e7ff        ..      B        0x3284 ; st7789_set_display_brightness + 16
        0x00003284:    a903        ..      ADD      r1,sp,#0xc
        0x00003286:    2002        .       MOVS     r0,#2
        0x00003288:    7008        .p      STRB     r0,[r1,#0]
        0x0000328a:    e024        $.      B        0x32d6 ; st7789_set_display_brightness + 98
        0x0000328c:    9802        ..      LDR      r0,[sp,#8]
        0x0000328e:    212c        ,!      MOVS     r1,#0x2c
        0x00003290:    5c40        @\      LDRB     r0,[r0,r1]
        0x00003292:    2801        .(      CMP      r0,#1
        0x00003294:    d004        ..      BEQ      0x32a0 ; st7789_set_display_brightness + 44
        0x00003296:    e7ff        ..      B        0x3298 ; st7789_set_display_brightness + 36
        0x00003298:    a903        ..      ADD      r1,sp,#0xc
        0x0000329a:    2003        .       MOVS     r0,#3
        0x0000329c:    7008        .p      STRB     r0,[r1,#0]
        0x0000329e:    e01a        ..      B        0x32d6 ; st7789_set_display_brightness + 98
        0x000032a0:    9802        ..      LDR      r0,[sp,#8]
        0x000032a2:    2151        Q!      MOVS     r1,#0x51
        0x000032a4:    2200        ."      MOVS     r2,#0
        0x000032a6:    f7fefb3f    ..?.    BL       a_st7789_write_byte ; 0x1928
        0x000032aa:    b120         .      CBZ      r0,0x32b6 ; st7789_set_display_brightness + 66
        0x000032ac:    e7ff        ..      B        0x32ae ; st7789_set_display_brightness + 58
        0x000032ae:    a903        ..      ADD      r1,sp,#0xc
        0x000032b0:    2001        .       MOVS     r0,#1
        0x000032b2:    7008        .p      STRB     r0,[r1,#0]
        0x000032b4:    e00f        ..      B        0x32d6 ; st7789_set_display_brightness + 98
        0x000032b6:    9802        ..      LDR      r0,[sp,#8]
        0x000032b8:    a901        ..      ADD      r1,sp,#4
        0x000032ba:    7809        .x      LDRB     r1,[r1,#0]
        0x000032bc:    2201        ."      MOVS     r2,#1
        0x000032be:    f7fefb33    ..3.    BL       a_st7789_write_byte ; 0x1928
        0x000032c2:    b120         .      CBZ      r0,0x32ce ; st7789_set_display_brightness + 90
        0x000032c4:    e7ff        ..      B        0x32c6 ; st7789_set_display_brightness + 82
        0x000032c6:    a903        ..      ADD      r1,sp,#0xc
        0x000032c8:    2001        .       MOVS     r0,#1
        0x000032ca:    7008        .p      STRB     r0,[r1,#0]
        0x000032cc:    e003        ..      B        0x32d6 ; st7789_set_display_brightness + 98
        0x000032ce:    a903        ..      ADD      r1,sp,#0xc
        0x000032d0:    2000        .       MOVS     r0,#0
        0x000032d2:    7008        .p      STRB     r0,[r1,#0]
        0x000032d4:    e7ff        ..      B        0x32d6 ; st7789_set_display_brightness + 98
        0x000032d6:    a803        ..      ADD      r0,sp,#0xc
        0x000032d8:    7800        .x      LDRB     r0,[r0,#0]
        0x000032da:    b004        ..      ADD      sp,sp,#0x10
        0x000032dc:    bd80        ..      POP      {r7,pc}
    st7789_set_display_control
        0x000032de:    b580        ..      PUSH     {r7,lr}
        0x000032e0:    b086        ..      SUB      sp,sp,#0x18
        0x000032e2:    9004        ..      STR      r0,[sp,#0x10]
        0x000032e4:    9103        ..      STR      r1,[sp,#0xc]
        0x000032e6:    9202        ..      STR      r2,[sp,#8]
        0x000032e8:    9301        ..      STR      r3,[sp,#4]
        0x000032ea:    9804        ..      LDR      r0,[sp,#0x10]
        0x000032ec:    b920         .      CBNZ     r0,0x32f8 ; st7789_set_display_control + 26
        0x000032ee:    e7ff        ..      B        0x32f0 ; st7789_set_display_control + 18
        0x000032f0:    a905        ..      ADD      r1,sp,#0x14
        0x000032f2:    2002        .       MOVS     r0,#2
        0x000032f4:    7008        .p      STRB     r0,[r1,#0]
        0x000032f6:    e02d        -.      B        0x3354 ; st7789_set_display_control + 118
        0x000032f8:    9804        ..      LDR      r0,[sp,#0x10]
        0x000032fa:    212c        ,!      MOVS     r1,#0x2c
        0x000032fc:    5c40        @\      LDRB     r0,[r0,r1]
        0x000032fe:    2801        .(      CMP      r0,#1
        0x00003300:    d004        ..      BEQ      0x330c ; st7789_set_display_control + 46
        0x00003302:    e7ff        ..      B        0x3304 ; st7789_set_display_control + 38
        0x00003304:    a905        ..      ADD      r1,sp,#0x14
        0x00003306:    2003        .       MOVS     r0,#3
        0x00003308:    7008        .p      STRB     r0,[r1,#0]
        0x0000330a:    e023        #.      B        0x3354 ; st7789_set_display_control + 118
        0x0000330c:    9804        ..      LDR      r0,[sp,#0x10]
        0x0000330e:    2153        S!      MOVS     r1,#0x53
        0x00003310:    2200        ."      MOVS     r2,#0
        0x00003312:    f7fefb09    ....    BL       a_st7789_write_byte ; 0x1928
        0x00003316:    b120         .      CBZ      r0,0x3322 ; st7789_set_display_control + 68
        0x00003318:    e7ff        ..      B        0x331a ; st7789_set_display_control + 60
        0x0000331a:    a905        ..      ADD      r1,sp,#0x14
        0x0000331c:    2001        .       MOVS     r0,#1
        0x0000331e:    7008        .p      STRB     r0,[r1,#0]
        0x00003320:    e018        ..      B        0x3354 ; st7789_set_display_control + 118
        0x00003322:    9803        ..      LDR      r0,[sp,#0xc]
        0x00003324:    0140        @.      LSLS     r0,r0,#5
        0x00003326:    9902        ..      LDR      r1,[sp,#8]
        0x00003328:    00c9        ..      LSLS     r1,r1,#3
        0x0000332a:    4308        .C      ORRS     r0,r0,r1
        0x0000332c:    9901        ..      LDR      r1,[sp,#4]
        0x0000332e:    0089        ..      LSLS     r1,r1,#2
        0x00003330:    4308        .C      ORRS     r0,r0,r1
        0x00003332:    4669        iF      MOV      r1,sp
        0x00003334:    7008        .p      STRB     r0,[r1,#0]
        0x00003336:    9804        ..      LDR      r0,[sp,#0x10]
        0x00003338:    7809        .x      LDRB     r1,[r1,#0]
        0x0000333a:    2201        ."      MOVS     r2,#1
        0x0000333c:    f7fefaf4    ....    BL       a_st7789_write_byte ; 0x1928
        0x00003340:    b120         .      CBZ      r0,0x334c ; st7789_set_display_control + 110
        0x00003342:    e7ff        ..      B        0x3344 ; st7789_set_display_control + 102
        0x00003344:    a905        ..      ADD      r1,sp,#0x14
        0x00003346:    2001        .       MOVS     r0,#1
        0x00003348:    7008        .p      STRB     r0,[r1,#0]
        0x0000334a:    e003        ..      B        0x3354 ; st7789_set_display_control + 118
        0x0000334c:    a905        ..      ADD      r1,sp,#0x14
        0x0000334e:    2000        .       MOVS     r0,#0
        0x00003350:    7008        .p      STRB     r0,[r1,#0]
        0x00003352:    e7ff        ..      B        0x3354 ; st7789_set_display_control + 118
        0x00003354:    a805        ..      ADD      r0,sp,#0x14
        0x00003356:    7800        .x      LDRB     r0,[r0,#0]
        0x00003358:    b006        ..      ADD      sp,sp,#0x18
        0x0000335a:    bd80        ..      POP      {r7,pc}
    st7789_set_equalize_time_control
        0x0000335c:    b510        ..      PUSH     {r4,lr}
        0x0000335e:    b086        ..      SUB      sp,sp,#0x18
        0x00003360:    9004        ..      STR      r0,[sp,#0x10]
        0x00003362:    a803        ..      ADD      r0,sp,#0xc
        0x00003364:    7001        .p      STRB     r1,[r0,#0]
        0x00003366:    a802        ..      ADD      r0,sp,#8
        0x00003368:    7002        .p      STRB     r2,[r0,#0]
        0x0000336a:    a801        ..      ADD      r0,sp,#4
        0x0000336c:    7003        .p      STRB     r3,[r0,#0]
        0x0000336e:    9804        ..      LDR      r0,[sp,#0x10]
        0x00003370:    b920         .      CBNZ     r0,0x337c ; st7789_set_equalize_time_control + 32
        0x00003372:    e7ff        ..      B        0x3374 ; st7789_set_equalize_time_control + 24
        0x00003374:    a905        ..      ADD      r1,sp,#0x14
        0x00003376:    2002        .       MOVS     r0,#2
        0x00003378:    7008        .p      STRB     r0,[r1,#0]
        0x0000337a:    e045        E.      B        0x3408 ; st7789_set_equalize_time_control + 172
        0x0000337c:    9804        ..      LDR      r0,[sp,#0x10]
        0x0000337e:    212c        ,!      MOVS     r1,#0x2c
        0x00003380:    5c40        @\      LDRB     r0,[r0,r1]
        0x00003382:    2801        .(      CMP      r0,#1
        0x00003384:    d004        ..      BEQ      0x3390 ; st7789_set_equalize_time_control + 52
        0x00003386:    e7ff        ..      B        0x3388 ; st7789_set_equalize_time_control + 44
        0x00003388:    a905        ..      ADD      r1,sp,#0x14
        0x0000338a:    2003        .       MOVS     r0,#3
        0x0000338c:    7008        .p      STRB     r0,[r1,#0]
        0x0000338e:    e03b        ;.      B        0x3408 ; st7789_set_equalize_time_control + 172
        0x00003390:    a803        ..      ADD      r0,sp,#0xc
        0x00003392:    7800        .x      LDRB     r0,[r0,#0]
        0x00003394:    2820         (      CMP      r0,#0x20
        0x00003396:    db04        ..      BLT      0x33a2 ; st7789_set_equalize_time_control + 70
        0x00003398:    e7ff        ..      B        0x339a ; st7789_set_equalize_time_control + 62
        0x0000339a:    a905        ..      ADD      r1,sp,#0x14
        0x0000339c:    2004        .       MOVS     r0,#4
        0x0000339e:    7008        .p      STRB     r0,[r1,#0]
        0x000033a0:    e032        2.      B        0x3408 ; st7789_set_equalize_time_control + 172
        0x000033a2:    a802        ..      ADD      r0,sp,#8
        0x000033a4:    7800        .x      LDRB     r0,[r0,#0]
        0x000033a6:    2820         (      CMP      r0,#0x20
        0x000033a8:    db04        ..      BLT      0x33b4 ; st7789_set_equalize_time_control + 88
        0x000033aa:    e7ff        ..      B        0x33ac ; st7789_set_equalize_time_control + 80
        0x000033ac:    a905        ..      ADD      r1,sp,#0x14
        0x000033ae:    2005        .       MOVS     r0,#5
        0x000033b0:    7008        .p      STRB     r0,[r1,#0]
        0x000033b2:    e029        ).      B        0x3408 ; st7789_set_equalize_time_control + 172
        0x000033b4:    a801        ..      ADD      r0,sp,#4
        0x000033b6:    7800        .x      LDRB     r0,[r0,#0]
        0x000033b8:    2810        .(      CMP      r0,#0x10
        0x000033ba:    db04        ..      BLT      0x33c6 ; st7789_set_equalize_time_control + 106
        0x000033bc:    e7ff        ..      B        0x33be ; st7789_set_equalize_time_control + 98
        0x000033be:    a905        ..      ADD      r1,sp,#0x14
        0x000033c0:    2006        .       MOVS     r0,#6
        0x000033c2:    7008        .p      STRB     r0,[r1,#0]
        0x000033c4:    e020         .      B        0x3408 ; st7789_set_equalize_time_control + 172
        0x000033c6:    9804        ..      LDR      r0,[sp,#0x10]
        0x000033c8:    21e9        .!      MOVS     r1,#0xe9
        0x000033ca:    2200        ."      MOVS     r2,#0
        0x000033cc:    f7fefaac    ....    BL       a_st7789_write_byte ; 0x1928
        0x000033d0:    b120         .      CBZ      r0,0x33dc ; st7789_set_equalize_time_control + 128
        0x000033d2:    e7ff        ..      B        0x33d4 ; st7789_set_equalize_time_control + 120
        0x000033d4:    a905        ..      ADD      r1,sp,#0x14
        0x000033d6:    2001        .       MOVS     r0,#1
        0x000033d8:    7008        .p      STRB     r0,[r1,#0]
        0x000033da:    e015        ..      B        0x3408 ; st7789_set_equalize_time_control + 172
        0x000033dc:    9803        ..      LDR      r0,[sp,#0xc]
        0x000033de:    4669        iF      MOV      r1,sp
        0x000033e0:    7008        .p      STRB     r0,[r1,#0]
        0x000033e2:    9802        ..      LDR      r0,[sp,#8]
        0x000033e4:    7048        Hp      STRB     r0,[r1,#1]
        0x000033e6:    9801        ..      LDR      r0,[sp,#4]
        0x000033e8:    7088        .p      STRB     r0,[r1,#2]
        0x000033ea:    9804        ..      LDR      r0,[sp,#0x10]
        0x000033ec:    2203        ."      MOVS     r2,#3
        0x000033ee:    2301        .#      MOVS     r3,#1
        0x000033f0:    f7fefac6    ....    BL       a_st7789_write_bytes ; 0x1980
        0x000033f4:    b120         .      CBZ      r0,0x3400 ; st7789_set_equalize_time_control + 164
        0x000033f6:    e7ff        ..      B        0x33f8 ; st7789_set_equalize_time_control + 156
        0x000033f8:    a905        ..      ADD      r1,sp,#0x14
        0x000033fa:    2001        .       MOVS     r0,#1
        0x000033fc:    7008        .p      STRB     r0,[r1,#0]
        0x000033fe:    e003        ..      B        0x3408 ; st7789_set_equalize_time_control + 172
        0x00003400:    a905        ..      ADD      r1,sp,#0x14
        0x00003402:    2000        .       MOVS     r0,#0
        0x00003404:    7008        .p      STRB     r0,[r1,#0]
        0x00003406:    e7ff        ..      B        0x3408 ; st7789_set_equalize_time_control + 172
        0x00003408:    a805        ..      ADD      r0,sp,#0x14
        0x0000340a:    7800        .x      LDRB     r0,[r0,#0]
        0x0000340c:    b006        ..      ADD      sp,sp,#0x18
        0x0000340e:    bd10        ..      POP      {r4,pc}
    st7789_set_frame_rate
        0x00003410:    b580        ..      PUSH     {r7,lr}
        0x00003412:    b086        ..      SUB      sp,sp,#0x18
        0x00003414:    9004        ..      STR      r0,[sp,#0x10]
        0x00003416:    9103        ..      STR      r1,[sp,#0xc]
        0x00003418:    9202        ..      STR      r2,[sp,#8]
        0x0000341a:    9804        ..      LDR      r0,[sp,#0x10]
        0x0000341c:    b920         .      CBNZ     r0,0x3428 ; st7789_set_frame_rate + 24
        0x0000341e:    e7ff        ..      B        0x3420 ; st7789_set_frame_rate + 16
        0x00003420:    a905        ..      ADD      r1,sp,#0x14
        0x00003422:    2002        .       MOVS     r0,#2
        0x00003424:    7008        .p      STRB     r0,[r1,#0]
        0x00003426:    e029        ).      B        0x347c ; st7789_set_frame_rate + 108
        0x00003428:    9804        ..      LDR      r0,[sp,#0x10]
        0x0000342a:    212c        ,!      MOVS     r1,#0x2c
        0x0000342c:    5c40        @\      LDRB     r0,[r0,r1]
        0x0000342e:    2801        .(      CMP      r0,#1
        0x00003430:    d004        ..      BEQ      0x343c ; st7789_set_frame_rate + 44
        0x00003432:    e7ff        ..      B        0x3434 ; st7789_set_frame_rate + 36
        0x00003434:    a905        ..      ADD      r1,sp,#0x14
        0x00003436:    2003        .       MOVS     r0,#3
        0x00003438:    7008        .p      STRB     r0,[r1,#0]
        0x0000343a:    e01f        ..      B        0x347c ; st7789_set_frame_rate + 108
        0x0000343c:    9804        ..      LDR      r0,[sp,#0x10]
        0x0000343e:    21c6        .!      MOVS     r1,#0xc6
        0x00003440:    2200        ."      MOVS     r2,#0
        0x00003442:    f7fefa71    ..q.    BL       a_st7789_write_byte ; 0x1928
        0x00003446:    b120         .      CBZ      r0,0x3452 ; st7789_set_frame_rate + 66
        0x00003448:    e7ff        ..      B        0x344a ; st7789_set_frame_rate + 58
        0x0000344a:    a905        ..      ADD      r1,sp,#0x14
        0x0000344c:    2001        .       MOVS     r0,#1
        0x0000344e:    7008        .p      STRB     r0,[r1,#0]
        0x00003450:    e014        ..      B        0x347c ; st7789_set_frame_rate + 108
        0x00003452:    9803        ..      LDR      r0,[sp,#0xc]
        0x00003454:    0140        @.      LSLS     r0,r0,#5
        0x00003456:    9902        ..      LDR      r1,[sp,#8]
        0x00003458:    4308        .C      ORRS     r0,r0,r1
        0x0000345a:    a901        ..      ADD      r1,sp,#4
        0x0000345c:    7008        .p      STRB     r0,[r1,#0]
        0x0000345e:    9804        ..      LDR      r0,[sp,#0x10]
        0x00003460:    7809        .x      LDRB     r1,[r1,#0]
        0x00003462:    2201        ."      MOVS     r2,#1
        0x00003464:    f7fefa60    ..`.    BL       a_st7789_write_byte ; 0x1928
        0x00003468:    b120         .      CBZ      r0,0x3474 ; st7789_set_frame_rate + 100
        0x0000346a:    e7ff        ..      B        0x346c ; st7789_set_frame_rate + 92
        0x0000346c:    a905        ..      ADD      r1,sp,#0x14
        0x0000346e:    2001        .       MOVS     r0,#1
        0x00003470:    7008        .p      STRB     r0,[r1,#0]
        0x00003472:    e003        ..      B        0x347c ; st7789_set_frame_rate + 108
        0x00003474:    a905        ..      ADD      r1,sp,#0x14
        0x00003476:    2000        .       MOVS     r0,#0
        0x00003478:    7008        .p      STRB     r0,[r1,#0]
        0x0000347a:    e7ff        ..      B        0x347c ; st7789_set_frame_rate + 108
        0x0000347c:    a805        ..      ADD      r0,sp,#0x14
        0x0000347e:    7800        .x      LDRB     r0,[r0,#0]
        0x00003480:    b006        ..      ADD      sp,sp,#0x18
        0x00003482:    bd80        ..      POP      {r7,pc}
    st7789_set_frame_rate_control
        0x00003484:    b5b0        ..      PUSH     {r4,r5,r7,lr}
        0x00003486:    b088        ..      SUB      sp,sp,#0x20
        0x00003488:    460c        .F      MOV      r4,r1
        0x0000348a:    4605        .F      MOV      r5,r0
        0x0000348c:    980e        ..      LDR      r0,[sp,#0x38]
        0x0000348e:    990d        ..      LDR      r1,[sp,#0x34]
        0x00003490:    990c        ..      LDR      r1,[sp,#0x30]
        0x00003492:    9506        ..      STR      r5,[sp,#0x18]
        0x00003494:    9405        ..      STR      r4,[sp,#0x14]
        0x00003496:    9204        ..      STR      r2,[sp,#0x10]
        0x00003498:    9303        ..      STR      r3,[sp,#0xc]
        0x0000349a:    aa02        ..      ADD      r2,sp,#8
        0x0000349c:    7011        .p      STRB     r1,[r2,#0]
        0x0000349e:    a901        ..      ADD      r1,sp,#4
        0x000034a0:    7008        .p      STRB     r0,[r1,#0]
        0x000034a2:    9806        ..      LDR      r0,[sp,#0x18]
        0x000034a4:    b920         .      CBNZ     r0,0x34b0 ; st7789_set_frame_rate_control + 44
        0x000034a6:    e7ff        ..      B        0x34a8 ; st7789_set_frame_rate_control + 36
        0x000034a8:    a907        ..      ADD      r1,sp,#0x1c
        0x000034aa:    2002        .       MOVS     r0,#2
        0x000034ac:    7008        .p      STRB     r0,[r1,#0]
        0x000034ae:    e04a        J.      B        0x3546 ; st7789_set_frame_rate_control + 194
        0x000034b0:    9806        ..      LDR      r0,[sp,#0x18]
        0x000034b2:    212c        ,!      MOVS     r1,#0x2c
        0x000034b4:    5c40        @\      LDRB     r0,[r0,r1]
        0x000034b6:    2801        .(      CMP      r0,#1
        0x000034b8:    d004        ..      BEQ      0x34c4 ; st7789_set_frame_rate_control + 64
        0x000034ba:    e7ff        ..      B        0x34bc ; st7789_set_frame_rate_control + 56
        0x000034bc:    a907        ..      ADD      r1,sp,#0x1c
        0x000034be:    2003        .       MOVS     r0,#3
        0x000034c0:    7008        .p      STRB     r0,[r1,#0]
        0x000034c2:    e040        @.      B        0x3546 ; st7789_set_frame_rate_control + 194
        0x000034c4:    a802        ..      ADD      r0,sp,#8
        0x000034c6:    7800        .x      LDRB     r0,[r0,#0]
        0x000034c8:    2820         (      CMP      r0,#0x20
        0x000034ca:    db04        ..      BLT      0x34d6 ; st7789_set_frame_rate_control + 82
        0x000034cc:    e7ff        ..      B        0x34ce ; st7789_set_frame_rate_control + 74
        0x000034ce:    a907        ..      ADD      r1,sp,#0x1c
        0x000034d0:    2004        .       MOVS     r0,#4
        0x000034d2:    7008        .p      STRB     r0,[r1,#0]
        0x000034d4:    e037        7.      B        0x3546 ; st7789_set_frame_rate_control + 194
        0x000034d6:    a801        ..      ADD      r0,sp,#4
        0x000034d8:    7800        .x      LDRB     r0,[r0,#0]
        0x000034da:    2820         (      CMP      r0,#0x20
        0x000034dc:    db04        ..      BLT      0x34e8 ; st7789_set_frame_rate_control + 100
        0x000034de:    e7ff        ..      B        0x34e0 ; st7789_set_frame_rate_control + 92
        0x000034e0:    a907        ..      ADD      r1,sp,#0x1c
        0x000034e2:    2005        .       MOVS     r0,#5
        0x000034e4:    7008        .p      STRB     r0,[r1,#0]
        0x000034e6:    e02e        ..      B        0x3546 ; st7789_set_frame_rate_control + 194
        0x000034e8:    9806        ..      LDR      r0,[sp,#0x18]
        0x000034ea:    21b3        .!      MOVS     r1,#0xb3
        0x000034ec:    2200        ."      MOVS     r2,#0
        0x000034ee:    f7fefa1b    ....    BL       a_st7789_write_byte ; 0x1928
        0x000034f2:    b120         .      CBZ      r0,0x34fe ; st7789_set_frame_rate_control + 122
        0x000034f4:    e7ff        ..      B        0x34f6 ; st7789_set_frame_rate_control + 114
        0x000034f6:    a907        ..      ADD      r1,sp,#0x1c
        0x000034f8:    2001        .       MOVS     r0,#1
        0x000034fa:    7008        .p      STRB     r0,[r1,#0]
        0x000034fc:    e023        #.      B        0x3546 ; st7789_set_frame_rate_control + 194
        0x000034fe:    9805        ..      LDR      r0,[sp,#0x14]
        0x00003500:    0100        ..      LSLS     r0,r0,#4
        0x00003502:    9904        ..      LDR      r1,[sp,#0x10]
        0x00003504:    4308        .C      ORRS     r0,r0,r1
        0x00003506:    4669        iF      MOV      r1,sp
        0x00003508:    7008        .p      STRB     r0,[r1,#0]
        0x0000350a:    9803        ..      LDR      r0,[sp,#0xc]
        0x0000350c:    0140        @.      LSLS     r0,r0,#5
        0x0000350e:    aa02        ..      ADD      r2,sp,#8
        0x00003510:    7812        .x      LDRB     r2,[r2,#0]
        0x00003512:    231f        .#      MOVS     r3,#0x1f
        0x00003514:    401a        .@      ANDS     r2,r2,r3
        0x00003516:    1880        ..      ADDS     r0,r0,r2
        0x00003518:    7048        Hp      STRB     r0,[r1,#1]
        0x0000351a:    980d        ..      LDR      r0,[sp,#0x34]
        0x0000351c:    0140        @.      LSLS     r0,r0,#5
        0x0000351e:    aa01        ..      ADD      r2,sp,#4
        0x00003520:    7812        .x      LDRB     r2,[r2,#0]
        0x00003522:    401a        .@      ANDS     r2,r2,r3
        0x00003524:    1880        ..      ADDS     r0,r0,r2
        0x00003526:    7088        .p      STRB     r0,[r1,#2]
        0x00003528:    9806        ..      LDR      r0,[sp,#0x18]
        0x0000352a:    2203        ."      MOVS     r2,#3
        0x0000352c:    2301        .#      MOVS     r3,#1
        0x0000352e:    f7fefa27    ..'.    BL       a_st7789_write_bytes ; 0x1980
        0x00003532:    b120         .      CBZ      r0,0x353e ; st7789_set_frame_rate_control + 186
        0x00003534:    e7ff        ..      B        0x3536 ; st7789_set_frame_rate_control + 178
        0x00003536:    a907        ..      ADD      r1,sp,#0x1c
        0x00003538:    2001        .       MOVS     r0,#1
        0x0000353a:    7008        .p      STRB     r0,[r1,#0]
        0x0000353c:    e003        ..      B        0x3546 ; st7789_set_frame_rate_control + 194
        0x0000353e:    a907        ..      ADD      r1,sp,#0x1c
        0x00003540:    2000        .       MOVS     r0,#0
        0x00003542:    7008        .p      STRB     r0,[r1,#0]
        0x00003544:    e7ff        ..      B        0x3546 ; st7789_set_frame_rate_control + 194
        0x00003546:    a807        ..      ADD      r0,sp,#0x1c
        0x00003548:    7800        .x      LDRB     r0,[r0,#0]
        0x0000354a:    b008        ..      ADD      sp,sp,#0x20
        0x0000354c:    bdb0        ..      POP      {r4,r5,r7,pc}
    st7789_set_gamma
        0x0000354e:    b580        ..      PUSH     {r7,lr}
        0x00003550:    b084        ..      SUB      sp,sp,#0x10
        0x00003552:    9002        ..      STR      r0,[sp,#8]
        0x00003554:    a801        ..      ADD      r0,sp,#4
        0x00003556:    7001        .p      STRB     r1,[r0,#0]
        0x00003558:    9802        ..      LDR      r0,[sp,#8]
        0x0000355a:    b920         .      CBNZ     r0,0x3566 ; st7789_set_gamma + 24
        0x0000355c:    e7ff        ..      B        0x355e ; st7789_set_gamma + 16
        0x0000355e:    a903        ..      ADD      r1,sp,#0xc
        0x00003560:    2002        .       MOVS     r0,#2
        0x00003562:    7008        .p      STRB     r0,[r1,#0]
        0x00003564:    e026        &.      B        0x35b4 ; st7789_set_gamma + 102
        0x00003566:    9802        ..      LDR      r0,[sp,#8]
        0x00003568:    212c        ,!      MOVS     r1,#0x2c
        0x0000356a:    5c40        @\      LDRB     r0,[r0,r1]
        0x0000356c:    2801        .(      CMP      r0,#1
        0x0000356e:    d004        ..      BEQ      0x357a ; st7789_set_gamma + 44
        0x00003570:    e7ff        ..      B        0x3572 ; st7789_set_gamma + 36
        0x00003572:    a903        ..      ADD      r1,sp,#0xc
        0x00003574:    2003        .       MOVS     r0,#3
        0x00003576:    7008        .p      STRB     r0,[r1,#0]
        0x00003578:    e01c        ..      B        0x35b4 ; st7789_set_gamma + 102
        0x0000357a:    9802        ..      LDR      r0,[sp,#8]
        0x0000357c:    2126        &!      MOVS     r1,#0x26
        0x0000357e:    2200        ."      MOVS     r2,#0
        0x00003580:    f7fef9d2    ....    BL       a_st7789_write_byte ; 0x1928
        0x00003584:    b120         .      CBZ      r0,0x3590 ; st7789_set_gamma + 66
        0x00003586:    e7ff        ..      B        0x3588 ; st7789_set_gamma + 58
        0x00003588:    a903        ..      ADD      r1,sp,#0xc
        0x0000358a:    2001        .       MOVS     r0,#1
        0x0000358c:    7008        .p      STRB     r0,[r1,#0]
        0x0000358e:    e011        ..      B        0x35b4 ; st7789_set_gamma + 102
        0x00003590:    9802        ..      LDR      r0,[sp,#8]
        0x00003592:    a901        ..      ADD      r1,sp,#4
        0x00003594:    7809        .x      LDRB     r1,[r1,#0]
        0x00003596:    220f        ."      MOVS     r2,#0xf
        0x00003598:    4011        .@      ANDS     r1,r1,r2
        0x0000359a:    2201        ."      MOVS     r2,#1
        0x0000359c:    f7fef9c4    ....    BL       a_st7789_write_byte ; 0x1928
        0x000035a0:    b120         .      CBZ      r0,0x35ac ; st7789_set_gamma + 94
        0x000035a2:    e7ff        ..      B        0x35a4 ; st7789_set_gamma + 86
        0x000035a4:    a903        ..      ADD      r1,sp,#0xc
        0x000035a6:    2001        .       MOVS     r0,#1
        0x000035a8:    7008        .p      STRB     r0,[r1,#0]
        0x000035aa:    e003        ..      B        0x35b4 ; st7789_set_gamma + 102
        0x000035ac:    a903        ..      ADD      r1,sp,#0xc
        0x000035ae:    2000        .       MOVS     r0,#0
        0x000035b0:    7008        .p      STRB     r0,[r1,#0]
        0x000035b2:    e7ff        ..      B        0x35b4 ; st7789_set_gamma + 102
        0x000035b4:    a803        ..      ADD      r0,sp,#0xc
        0x000035b6:    7800        .x      LDRB     r0,[r0,#0]
        0x000035b8:    b004        ..      ADD      sp,sp,#0x10
        0x000035ba:    bd80        ..      POP      {r7,pc}
    st7789_set_gate
        0x000035bc:    b510        ..      PUSH     {r4,lr}
        0x000035be:    b086        ..      SUB      sp,sp,#0x18
        0x000035c0:    9c08        ..      LDR      r4,[sp,#0x20]
        0x000035c2:    9004        ..      STR      r0,[sp,#0x10]
        0x000035c4:    a803        ..      ADD      r0,sp,#0xc
        0x000035c6:    7001        .p      STRB     r1,[r0,#0]
        0x000035c8:    a802        ..      ADD      r0,sp,#8
        0x000035ca:    7002        .p      STRB     r2,[r0,#0]
        0x000035cc:    9301        ..      STR      r3,[sp,#4]
        0x000035ce:    9804        ..      LDR      r0,[sp,#0x10]
        0x000035d0:    b920         .      CBNZ     r0,0x35dc ; st7789_set_gate + 32
        0x000035d2:    e7ff        ..      B        0x35d4 ; st7789_set_gate + 24
        0x000035d4:    a905        ..      ADD      r1,sp,#0x14
        0x000035d6:    2002        .       MOVS     r0,#2
        0x000035d8:    7008        .p      STRB     r0,[r1,#0]
        0x000035da:    e041        A.      B        0x3660 ; st7789_set_gate + 164
        0x000035dc:    9804        ..      LDR      r0,[sp,#0x10]
        0x000035de:    212c        ,!      MOVS     r1,#0x2c
        0x000035e0:    5c40        @\      LDRB     r0,[r0,r1]
        0x000035e2:    2801        .(      CMP      r0,#1
        0x000035e4:    d004        ..      BEQ      0x35f0 ; st7789_set_gate + 52
        0x000035e6:    e7ff        ..      B        0x35e8 ; st7789_set_gate + 44
        0x000035e8:    a905        ..      ADD      r1,sp,#0x14
        0x000035ea:    2003        .       MOVS     r0,#3
        0x000035ec:    7008        .p      STRB     r0,[r1,#0]
        0x000035ee:    e037        7.      B        0x3660 ; st7789_set_gate + 164
        0x000035f0:    a803        ..      ADD      r0,sp,#0xc
        0x000035f2:    7800        .x      LDRB     r0,[r0,#0]
        0x000035f4:    2840        @(      CMP      r0,#0x40
        0x000035f6:    db04        ..      BLT      0x3602 ; st7789_set_gate + 70
        0x000035f8:    e7ff        ..      B        0x35fa ; st7789_set_gate + 62
        0x000035fa:    a905        ..      ADD      r1,sp,#0x14
        0x000035fc:    2004        .       MOVS     r0,#4
        0x000035fe:    7008        .p      STRB     r0,[r1,#0]
        0x00003600:    e02e        ..      B        0x3660 ; st7789_set_gate + 164
        0x00003602:    a802        ..      ADD      r0,sp,#8
        0x00003604:    7800        .x      LDRB     r0,[r0,#0]
        0x00003606:    2840        @(      CMP      r0,#0x40
        0x00003608:    db04        ..      BLT      0x3614 ; st7789_set_gate + 88
        0x0000360a:    e7ff        ..      B        0x360c ; st7789_set_gate + 80
        0x0000360c:    a905        ..      ADD      r1,sp,#0x14
        0x0000360e:    2005        .       MOVS     r0,#5
        0x00003610:    7008        .p      STRB     r0,[r1,#0]
        0x00003612:    e025        %.      B        0x3660 ; st7789_set_gate + 164
        0x00003614:    9804        ..      LDR      r0,[sp,#0x10]
        0x00003616:    21e4        .!      MOVS     r1,#0xe4
        0x00003618:    2200        ."      MOVS     r2,#0
        0x0000361a:    f7fef985    ....    BL       a_st7789_write_byte ; 0x1928
        0x0000361e:    b120         .      CBZ      r0,0x362a ; st7789_set_gate + 110
        0x00003620:    e7ff        ..      B        0x3622 ; st7789_set_gate + 102
        0x00003622:    a905        ..      ADD      r1,sp,#0x14
        0x00003624:    2001        .       MOVS     r0,#1
        0x00003626:    7008        .p      STRB     r0,[r1,#0]
        0x00003628:    e01a        ..      B        0x3660 ; st7789_set_gate + 164
        0x0000362a:    9803        ..      LDR      r0,[sp,#0xc]
        0x0000362c:    4669        iF      MOV      r1,sp
        0x0000362e:    7008        .p      STRB     r0,[r1,#0]
        0x00003630:    9802        ..      LDR      r0,[sp,#8]
        0x00003632:    7048        Hp      STRB     r0,[r1,#1]
        0x00003634:    9801        ..      LDR      r0,[sp,#4]
        0x00003636:    0080        ..      LSLS     r0,r0,#2
        0x00003638:    9a08        ..      LDR      r2,[sp,#0x20]
        0x0000363a:    4310        .C      ORRS     r0,r0,r2
        0x0000363c:    2210        ."      MOVS     r2,#0x10
        0x0000363e:    4310        .C      ORRS     r0,r0,r2
        0x00003640:    7088        .p      STRB     r0,[r1,#2]
        0x00003642:    9804        ..      LDR      r0,[sp,#0x10]
        0x00003644:    2203        ."      MOVS     r2,#3
        0x00003646:    2301        .#      MOVS     r3,#1
        0x00003648:    f7fef99a    ....    BL       a_st7789_write_bytes ; 0x1980
        0x0000364c:    b120         .      CBZ      r0,0x3658 ; st7789_set_gate + 156
        0x0000364e:    e7ff        ..      B        0x3650 ; st7789_set_gate + 148
        0x00003650:    a905        ..      ADD      r1,sp,#0x14
        0x00003652:    2001        .       MOVS     r0,#1
        0x00003654:    7008        .p      STRB     r0,[r1,#0]
        0x00003656:    e003        ..      B        0x3660 ; st7789_set_gate + 164
        0x00003658:    a905        ..      ADD      r1,sp,#0x14
        0x0000365a:    2000        .       MOVS     r0,#0
        0x0000365c:    7008        .p      STRB     r0,[r1,#0]
        0x0000365e:    e7ff        ..      B        0x3660 ; st7789_set_gate + 164
        0x00003660:    a805        ..      ADD      r0,sp,#0x14
        0x00003662:    7800        .x      LDRB     r0,[r0,#0]
        0x00003664:    b006        ..      ADD      sp,sp,#0x18
        0x00003666:    bd10        ..      POP      {r4,pc}
    st7789_set_gate_control
        0x00003668:    b580        ..      PUSH     {r7,lr}
        0x0000366a:    b086        ..      SUB      sp,sp,#0x18
        0x0000366c:    9004        ..      STR      r0,[sp,#0x10]
        0x0000366e:    9103        ..      STR      r1,[sp,#0xc]
        0x00003670:    9202        ..      STR      r2,[sp,#8]
        0x00003672:    9804        ..      LDR      r0,[sp,#0x10]
        0x00003674:    b920         .      CBNZ     r0,0x3680 ; st7789_set_gate_control + 24
        0x00003676:    e7ff        ..      B        0x3678 ; st7789_set_gate_control + 16
        0x00003678:    a905        ..      ADD      r1,sp,#0x14
        0x0000367a:    2002        .       MOVS     r0,#2
        0x0000367c:    7008        .p      STRB     r0,[r1,#0]
        0x0000367e:    e029        ).      B        0x36d4 ; st7789_set_gate_control + 108
        0x00003680:    9804        ..      LDR      r0,[sp,#0x10]
        0x00003682:    212c        ,!      MOVS     r1,#0x2c
        0x00003684:    5c40        @\      LDRB     r0,[r0,r1]
        0x00003686:    2801        .(      CMP      r0,#1
        0x00003688:    d004        ..      BEQ      0x3694 ; st7789_set_gate_control + 44
        0x0000368a:    e7ff        ..      B        0x368c ; st7789_set_gate_control + 36
        0x0000368c:    a905        ..      ADD      r1,sp,#0x14
        0x0000368e:    2003        .       MOVS     r0,#3
        0x00003690:    7008        .p      STRB     r0,[r1,#0]
        0x00003692:    e01f        ..      B        0x36d4 ; st7789_set_gate_control + 108
        0x00003694:    9804        ..      LDR      r0,[sp,#0x10]
        0x00003696:    21b7        .!      MOVS     r1,#0xb7
        0x00003698:    2200        ."      MOVS     r2,#0
        0x0000369a:    f7fef945    ..E.    BL       a_st7789_write_byte ; 0x1928
        0x0000369e:    b120         .      CBZ      r0,0x36aa ; st7789_set_gate_control + 66
        0x000036a0:    e7ff        ..      B        0x36a2 ; st7789_set_gate_control + 58
        0x000036a2:    a905        ..      ADD      r1,sp,#0x14
        0x000036a4:    2001        .       MOVS     r0,#1
        0x000036a6:    7008        .p      STRB     r0,[r1,#0]
        0x000036a8:    e014        ..      B        0x36d4 ; st7789_set_gate_control + 108
        0x000036aa:    9803        ..      LDR      r0,[sp,#0xc]
        0x000036ac:    0100        ..      LSLS     r0,r0,#4
        0x000036ae:    9902        ..      LDR      r1,[sp,#8]
        0x000036b0:    4308        .C      ORRS     r0,r0,r1
        0x000036b2:    a901        ..      ADD      r1,sp,#4
        0x000036b4:    7008        .p      STRB     r0,[r1,#0]
        0x000036b6:    9804        ..      LDR      r0,[sp,#0x10]
        0x000036b8:    7809        .x      LDRB     r1,[r1,#0]
        0x000036ba:    2201        ."      MOVS     r2,#1
        0x000036bc:    f7fef934    ..4.    BL       a_st7789_write_byte ; 0x1928
        0x000036c0:    b120         .      CBZ      r0,0x36cc ; st7789_set_gate_control + 100
        0x000036c2:    e7ff        ..      B        0x36c4 ; st7789_set_gate_control + 92
        0x000036c4:    a905        ..      ADD      r1,sp,#0x14
        0x000036c6:    2001        .       MOVS     r0,#1
        0x000036c8:    7008        .p      STRB     r0,[r1,#0]
        0x000036ca:    e003        ..      B        0x36d4 ; st7789_set_gate_control + 108
        0x000036cc:    a905        ..      ADD      r1,sp,#0x14
        0x000036ce:    2000        .       MOVS     r0,#0
        0x000036d0:    7008        .p      STRB     r0,[r1,#0]
        0x000036d2:    e7ff        ..      B        0x36d4 ; st7789_set_gate_control + 108
        0x000036d4:    a805        ..      ADD      r0,sp,#0x14
        0x000036d6:    7800        .x      LDRB     r0,[r0,#0]
        0x000036d8:    b006        ..      ADD      sp,sp,#0x18
        0x000036da:    bd80        ..      POP      {r7,pc}
    st7789_set_gate_on_timing_adjustment
        0x000036dc:    b510        ..      PUSH     {r4,lr}
        0x000036de:    b086        ..      SUB      sp,sp,#0x18
        0x000036e0:    9004        ..      STR      r0,[sp,#0x10]
        0x000036e2:    a803        ..      ADD      r0,sp,#0xc
        0x000036e4:    7001        .p      STRB     r1,[r0,#0]
        0x000036e6:    a802        ..      ADD      r0,sp,#8
        0x000036e8:    7002        .p      STRB     r2,[r0,#0]
        0x000036ea:    a801        ..      ADD      r0,sp,#4
        0x000036ec:    7003        .p      STRB     r3,[r0,#0]
        0x000036ee:    9804        ..      LDR      r0,[sp,#0x10]
        0x000036f0:    b920         .      CBNZ     r0,0x36fc ; st7789_set_gate_on_timing_adjustment + 32
        0x000036f2:    e7ff        ..      B        0x36f4 ; st7789_set_gate_on_timing_adjustment + 24
        0x000036f4:    a905        ..      ADD      r1,sp,#0x14
        0x000036f6:    2002        .       MOVS     r0,#2
        0x000036f8:    7008        .p      STRB     r0,[r1,#0]
        0x000036fa:    e050        P.      B        0x379e ; st7789_set_gate_on_timing_adjustment + 194
        0x000036fc:    9804        ..      LDR      r0,[sp,#0x10]
        0x000036fe:    212c        ,!      MOVS     r1,#0x2c
        0x00003700:    5c40        @\      LDRB     r0,[r0,r1]
        0x00003702:    2801        .(      CMP      r0,#1
        0x00003704:    d004        ..      BEQ      0x3710 ; st7789_set_gate_on_timing_adjustment + 52
        0x00003706:    e7ff        ..      B        0x3708 ; st7789_set_gate_on_timing_adjustment + 44
        0x00003708:    a905        ..      ADD      r1,sp,#0x14
        0x0000370a:    2003        .       MOVS     r0,#3
        0x0000370c:    7008        .p      STRB     r0,[r1,#0]
        0x0000370e:    e046        F.      B        0x379e ; st7789_set_gate_on_timing_adjustment + 194
        0x00003710:    a803        ..      ADD      r0,sp,#0xc
        0x00003712:    7800        .x      LDRB     r0,[r0,#0]
        0x00003714:    2840        @(      CMP      r0,#0x40
        0x00003716:    db04        ..      BLT      0x3722 ; st7789_set_gate_on_timing_adjustment + 70
        0x00003718:    e7ff        ..      B        0x371a ; st7789_set_gate_on_timing_adjustment + 62
        0x0000371a:    a905        ..      ADD      r1,sp,#0x14
        0x0000371c:    2004        .       MOVS     r0,#4
        0x0000371e:    7008        .p      STRB     r0,[r1,#0]
        0x00003720:    e03d        =.      B        0x379e ; st7789_set_gate_on_timing_adjustment + 194
        0x00003722:    a802        ..      ADD      r0,sp,#8
        0x00003724:    7800        .x      LDRB     r0,[r0,#0]
        0x00003726:    2810        .(      CMP      r0,#0x10
        0x00003728:    db04        ..      BLT      0x3734 ; st7789_set_gate_on_timing_adjustment + 88
        0x0000372a:    e7ff        ..      B        0x372c ; st7789_set_gate_on_timing_adjustment + 80
        0x0000372c:    a905        ..      ADD      r1,sp,#0x14
        0x0000372e:    2005        .       MOVS     r0,#5
        0x00003730:    7008        .p      STRB     r0,[r1,#0]
        0x00003732:    e034        4.      B        0x379e ; st7789_set_gate_on_timing_adjustment + 194
        0x00003734:    a801        ..      ADD      r0,sp,#4
        0x00003736:    7800        .x      LDRB     r0,[r0,#0]
        0x00003738:    2810        .(      CMP      r0,#0x10
        0x0000373a:    db04        ..      BLT      0x3746 ; st7789_set_gate_on_timing_adjustment + 106
        0x0000373c:    e7ff        ..      B        0x373e ; st7789_set_gate_on_timing_adjustment + 98
        0x0000373e:    a905        ..      ADD      r1,sp,#0x14
        0x00003740:    2006        .       MOVS     r0,#6
        0x00003742:    7008        .p      STRB     r0,[r1,#0]
        0x00003744:    e02b        +.      B        0x379e ; st7789_set_gate_on_timing_adjustment + 194
        0x00003746:    9804        ..      LDR      r0,[sp,#0x10]
        0x00003748:    21b8        .!      MOVS     r1,#0xb8
        0x0000374a:    2200        ."      MOVS     r2,#0
        0x0000374c:    f7fef8ec    ....    BL       a_st7789_write_byte ; 0x1928
        0x00003750:    b120         .      CBZ      r0,0x375c ; st7789_set_gate_on_timing_adjustment + 128
        0x00003752:    e7ff        ..      B        0x3754 ; st7789_set_gate_on_timing_adjustment + 120
        0x00003754:    a905        ..      ADD      r1,sp,#0x14
        0x00003756:    2001        .       MOVS     r0,#1
        0x00003758:    7008        .p      STRB     r0,[r1,#0]
        0x0000375a:    e020         .      B        0x379e ; st7789_set_gate_on_timing_adjustment + 194
        0x0000375c:    4669        iF      MOV      r1,sp
        0x0000375e:    202a        *       MOVS     r0,#0x2a
        0x00003760:    7008        .p      STRB     r0,[r1,#0]
        0x00003762:    202b        +       MOVS     r0,#0x2b
        0x00003764:    7048        Hp      STRB     r0,[r1,#1]
        0x00003766:    a803        ..      ADD      r0,sp,#0xc
        0x00003768:    7800        .x      LDRB     r0,[r0,#0]
        0x0000376a:    223f        ?"      MOVS     r2,#0x3f
        0x0000376c:    4010        .@      ANDS     r0,r0,r2
        0x0000376e:    7088        .p      STRB     r0,[r1,#2]
        0x00003770:    9802        ..      LDR      r0,[sp,#8]
        0x00003772:    0100        ..      LSLS     r0,r0,#4
        0x00003774:    aa01        ..      ADD      r2,sp,#4
        0x00003776:    7812        .x      LDRB     r2,[r2,#0]
        0x00003778:    230f        .#      MOVS     r3,#0xf
        0x0000377a:    401a        .@      ANDS     r2,r2,r3
        0x0000377c:    1880        ..      ADDS     r0,r0,r2
        0x0000377e:    70c8        .p      STRB     r0,[r1,#3]
        0x00003780:    9804        ..      LDR      r0,[sp,#0x10]
        0x00003782:    2204        ."      MOVS     r2,#4
        0x00003784:    2301        .#      MOVS     r3,#1
        0x00003786:    f7fef8fb    ....    BL       a_st7789_write_bytes ; 0x1980
        0x0000378a:    b120         .      CBZ      r0,0x3796 ; st7789_set_gate_on_timing_adjustment + 186
        0x0000378c:    e7ff        ..      B        0x378e ; st7789_set_gate_on_timing_adjustment + 178
        0x0000378e:    a905        ..      ADD      r1,sp,#0x14
        0x00003790:    2001        .       MOVS     r0,#1
        0x00003792:    7008        .p      STRB     r0,[r1,#0]
        0x00003794:    e003        ..      B        0x379e ; st7789_set_gate_on_timing_adjustment + 194
        0x00003796:    a905        ..      ADD      r1,sp,#0x14
        0x00003798:    2000        .       MOVS     r0,#0
        0x0000379a:    7008        .p      STRB     r0,[r1,#0]
        0x0000379c:    e7ff        ..      B        0x379e ; st7789_set_gate_on_timing_adjustment + 194
        0x0000379e:    a805        ..      ADD      r0,sp,#0x14
        0x000037a0:    7800        .x      LDRB     r0,[r0,#0]
        0x000037a2:    b006        ..      ADD      sp,sp,#0x18
        0x000037a4:    bd10        ..      POP      {r4,pc}
    st7789_set_interface_pixel_format
        0x000037a6:    b580        ..      PUSH     {r7,lr}
        0x000037a8:    b086        ..      SUB      sp,sp,#0x18
        0x000037aa:    9004        ..      STR      r0,[sp,#0x10]
        0x000037ac:    9103        ..      STR      r1,[sp,#0xc]
        0x000037ae:    9202        ..      STR      r2,[sp,#8]
        0x000037b0:    9804        ..      LDR      r0,[sp,#0x10]
        0x000037b2:    b920         .      CBNZ     r0,0x37be ; st7789_set_interface_pixel_format + 24
        0x000037b4:    e7ff        ..      B        0x37b6 ; st7789_set_interface_pixel_format + 16
        0x000037b6:    a905        ..      ADD      r1,sp,#0x14
        0x000037b8:    2002        .       MOVS     r0,#2
        0x000037ba:    7008        .p      STRB     r0,[r1,#0]
        0x000037bc:    e02d        -.      B        0x381a ; st7789_set_interface_pixel_format + 116
        0x000037be:    9804        ..      LDR      r0,[sp,#0x10]
        0x000037c0:    212c        ,!      MOVS     r1,#0x2c
        0x000037c2:    5c40        @\      LDRB     r0,[r0,r1]
        0x000037c4:    2801        .(      CMP      r0,#1
        0x000037c6:    d004        ..      BEQ      0x37d2 ; st7789_set_interface_pixel_format + 44
        0x000037c8:    e7ff        ..      B        0x37ca ; st7789_set_interface_pixel_format + 36
        0x000037ca:    a905        ..      ADD      r1,sp,#0x14
        0x000037cc:    2003        .       MOVS     r0,#3
        0x000037ce:    7008        .p      STRB     r0,[r1,#0]
        0x000037d0:    e023        #.      B        0x381a ; st7789_set_interface_pixel_format + 116
        0x000037d2:    9804        ..      LDR      r0,[sp,#0x10]
        0x000037d4:    213a        :!      MOVS     r1,#0x3a
        0x000037d6:    2200        ."      MOVS     r2,#0
        0x000037d8:    f7fef8a6    ....    BL       a_st7789_write_byte ; 0x1928
        0x000037dc:    b120         .      CBZ      r0,0x37e8 ; st7789_set_interface_pixel_format + 66
        0x000037de:    e7ff        ..      B        0x37e0 ; st7789_set_interface_pixel_format + 58
        0x000037e0:    a905        ..      ADD      r1,sp,#0x14
        0x000037e2:    2001        .       MOVS     r0,#1
        0x000037e4:    7008        .p      STRB     r0,[r1,#0]
        0x000037e6:    e018        ..      B        0x381a ; st7789_set_interface_pixel_format + 116
        0x000037e8:    9803        ..      LDR      r0,[sp,#0xc]
        0x000037ea:    0100        ..      LSLS     r0,r0,#4
        0x000037ec:    9902        ..      LDR      r1,[sp,#8]
        0x000037ee:    4308        .C      ORRS     r0,r0,r1
        0x000037f0:    a901        ..      ADD      r1,sp,#4
        0x000037f2:    7008        .p      STRB     r0,[r1,#0]
        0x000037f4:    9804        ..      LDR      r0,[sp,#0x10]
        0x000037f6:    7809        .x      LDRB     r1,[r1,#0]
        0x000037f8:    2201        ."      MOVS     r2,#1
        0x000037fa:    f7fef895    ....    BL       a_st7789_write_byte ; 0x1928
        0x000037fe:    b120         .      CBZ      r0,0x380a ; st7789_set_interface_pixel_format + 100
        0x00003800:    e7ff        ..      B        0x3802 ; st7789_set_interface_pixel_format + 92
        0x00003802:    a905        ..      ADD      r1,sp,#0x14
        0x00003804:    2001        .       MOVS     r0,#1
        0x00003806:    7008        .p      STRB     r0,[r1,#0]
        0x00003808:    e007        ..      B        0x381a ; st7789_set_interface_pixel_format + 116
        0x0000380a:    9801        ..      LDR      r0,[sp,#4]
        0x0000380c:    9904        ..      LDR      r1,[sp,#0x10]
        0x0000380e:    2232        2"      MOVS     r2,#0x32
        0x00003810:    5488        .T      STRB     r0,[r1,r2]
        0x00003812:    a905        ..      ADD      r1,sp,#0x14
        0x00003814:    2000        .       MOVS     r0,#0
        0x00003816:    7008        .p      STRB     r0,[r1,#0]
        0x00003818:    e7ff        ..      B        0x381a ; st7789_set_interface_pixel_format + 116
        0x0000381a:    a805        ..      ADD      r0,sp,#0x14
        0x0000381c:    7800        .x      LDRB     r0,[r0,#0]
        0x0000381e:    b006        ..      ADD      sp,sp,#0x18
        0x00003820:    bd80        ..      POP      {r7,pc}
    st7789_set_lcm_control
        0x00003822:    b510        ..      PUSH     {r4,lr}
        0x00003824:    b086        ..      SUB      sp,sp,#0x18
        0x00003826:    9c0b        ..      LDR      r4,[sp,#0x2c]
        0x00003828:    9c0a        ..      LDR      r4,[sp,#0x28]
        0x0000382a:    9c09        ..      LDR      r4,[sp,#0x24]
        0x0000382c:    9c08        ..      LDR      r4,[sp,#0x20]
        0x0000382e:    9004        ..      STR      r0,[sp,#0x10]
        0x00003830:    9103        ..      STR      r1,[sp,#0xc]
        0x00003832:    9202        ..      STR      r2,[sp,#8]
        0x00003834:    9301        ..      STR      r3,[sp,#4]
        0x00003836:    9804        ..      LDR      r0,[sp,#0x10]
        0x00003838:    b920         .      CBNZ     r0,0x3844 ; st7789_set_lcm_control + 34
        0x0000383a:    e7ff        ..      B        0x383c ; st7789_set_lcm_control + 26
        0x0000383c:    a905        ..      ADD      r1,sp,#0x14
        0x0000383e:    2002        .       MOVS     r0,#2
        0x00003840:    7008        .p      STRB     r0,[r1,#0]
        0x00003842:    e038        8.      B        0x38b6 ; st7789_set_lcm_control + 148
        0x00003844:    9804        ..      LDR      r0,[sp,#0x10]
        0x00003846:    212c        ,!      MOVS     r1,#0x2c
        0x00003848:    5c40        @\      LDRB     r0,[r0,r1]
        0x0000384a:    2801        .(      CMP      r0,#1
        0x0000384c:    d004        ..      BEQ      0x3858 ; st7789_set_lcm_control + 54
        0x0000384e:    e7ff        ..      B        0x3850 ; st7789_set_lcm_control + 46
        0x00003850:    a905        ..      ADD      r1,sp,#0x14
        0x00003852:    2003        .       MOVS     r0,#3
        0x00003854:    7008        .p      STRB     r0,[r1,#0]
        0x00003856:    e02e        ..      B        0x38b6 ; st7789_set_lcm_control + 148
        0x00003858:    9804        ..      LDR      r0,[sp,#0x10]
        0x0000385a:    21c0        .!      MOVS     r1,#0xc0
        0x0000385c:    2200        ."      MOVS     r2,#0
        0x0000385e:    f7fef863    ..c.    BL       a_st7789_write_byte ; 0x1928
        0x00003862:    b120         .      CBZ      r0,0x386e ; st7789_set_lcm_control + 76
        0x00003864:    e7ff        ..      B        0x3866 ; st7789_set_lcm_control + 68
        0x00003866:    a905        ..      ADD      r1,sp,#0x14
        0x00003868:    2001        .       MOVS     r0,#1
        0x0000386a:    7008        .p      STRB     r0,[r1,#0]
        0x0000386c:    e023        #.      B        0x38b6 ; st7789_set_lcm_control + 148
        0x0000386e:    9803        ..      LDR      r0,[sp,#0xc]
        0x00003870:    0180        ..      LSLS     r0,r0,#6
        0x00003872:    9902        ..      LDR      r1,[sp,#8]
        0x00003874:    0149        I.      LSLS     r1,r1,#5
        0x00003876:    4308        .C      ORRS     r0,r0,r1
        0x00003878:    9901        ..      LDR      r1,[sp,#4]
        0x0000387a:    0109        ..      LSLS     r1,r1,#4
        0x0000387c:    4308        .C      ORRS     r0,r0,r1
        0x0000387e:    9908        ..      LDR      r1,[sp,#0x20]
        0x00003880:    00c9        ..      LSLS     r1,r1,#3
        0x00003882:    4308        .C      ORRS     r0,r0,r1
        0x00003884:    9909        ..      LDR      r1,[sp,#0x24]
        0x00003886:    0089        ..      LSLS     r1,r1,#2
        0x00003888:    4308        .C      ORRS     r0,r0,r1
        0x0000388a:    990a        ..      LDR      r1,[sp,#0x28]
        0x0000388c:    0049        I.      LSLS     r1,r1,#1
        0x0000388e:    4308        .C      ORRS     r0,r0,r1
        0x00003890:    990b        ..      LDR      r1,[sp,#0x2c]
        0x00003892:    4308        .C      ORRS     r0,r0,r1
        0x00003894:    4669        iF      MOV      r1,sp
        0x00003896:    7008        .p      STRB     r0,[r1,#0]
        0x00003898:    9804        ..      LDR      r0,[sp,#0x10]
        0x0000389a:    7809        .x      LDRB     r1,[r1,#0]
        0x0000389c:    2201        ."      MOVS     r2,#1
        0x0000389e:    f7fef843    ..C.    BL       a_st7789_write_byte ; 0x1928
        0x000038a2:    b120         .      CBZ      r0,0x38ae ; st7789_set_lcm_control + 140
        0x000038a4:    e7ff        ..      B        0x38a6 ; st7789_set_lcm_control + 132
        0x000038a6:    a905        ..      ADD      r1,sp,#0x14
        0x000038a8:    2001        .       MOVS     r0,#1
        0x000038aa:    7008        .p      STRB     r0,[r1,#0]
        0x000038ac:    e003        ..      B        0x38b6 ; st7789_set_lcm_control + 148
        0x000038ae:    a905        ..      ADD      r1,sp,#0x14
        0x000038b0:    2000        .       MOVS     r0,#0
        0x000038b2:    7008        .p      STRB     r0,[r1,#0]
        0x000038b4:    e7ff        ..      B        0x38b6 ; st7789_set_lcm_control + 148
        0x000038b6:    a805        ..      ADD      r0,sp,#0x14
        0x000038b8:    7800        .x      LDRB     r0,[r0,#0]
        0x000038ba:    b006        ..      ADD      sp,sp,#0x18
        0x000038bc:    bd10        ..      POP      {r4,pc}
    st7789_set_memory_data_access_control
        0x000038be:    b580        ..      PUSH     {r7,lr}
        0x000038c0:    b084        ..      SUB      sp,sp,#0x10
        0x000038c2:    9002        ..      STR      r0,[sp,#8]
        0x000038c4:    a801        ..      ADD      r0,sp,#4
        0x000038c6:    7001        .p      STRB     r1,[r0,#0]
        0x000038c8:    9802        ..      LDR      r0,[sp,#8]
        0x000038ca:    b920         .      CBNZ     r0,0x38d6 ; st7789_set_memory_data_access_control + 24
        0x000038cc:    e7ff        ..      B        0x38ce ; st7789_set_memory_data_access_control + 16
        0x000038ce:    a903        ..      ADD      r1,sp,#0xc
        0x000038d0:    2002        .       MOVS     r0,#2
        0x000038d2:    7008        .p      STRB     r0,[r1,#0]
        0x000038d4:    e024        $.      B        0x3920 ; st7789_set_memory_data_access_control + 98
        0x000038d6:    9802        ..      LDR      r0,[sp,#8]
        0x000038d8:    212c        ,!      MOVS     r1,#0x2c
        0x000038da:    5c40        @\      LDRB     r0,[r0,r1]
        0x000038dc:    2801        .(      CMP      r0,#1
        0x000038de:    d004        ..      BEQ      0x38ea ; st7789_set_memory_data_access_control + 44
        0x000038e0:    e7ff        ..      B        0x38e2 ; st7789_set_memory_data_access_control + 36
        0x000038e2:    a903        ..      ADD      r1,sp,#0xc
        0x000038e4:    2003        .       MOVS     r0,#3
        0x000038e6:    7008        .p      STRB     r0,[r1,#0]
        0x000038e8:    e01a        ..      B        0x3920 ; st7789_set_memory_data_access_control + 98
        0x000038ea:    9802        ..      LDR      r0,[sp,#8]
        0x000038ec:    2136        6!      MOVS     r1,#0x36
        0x000038ee:    2200        ."      MOVS     r2,#0
        0x000038f0:    f7fef81a    ....    BL       a_st7789_write_byte ; 0x1928
        0x000038f4:    b120         .      CBZ      r0,0x3900 ; st7789_set_memory_data_access_control + 66
        0x000038f6:    e7ff        ..      B        0x38f8 ; st7789_set_memory_data_access_control + 58
        0x000038f8:    a903        ..      ADD      r1,sp,#0xc
        0x000038fa:    2001        .       MOVS     r0,#1
        0x000038fc:    7008        .p      STRB     r0,[r1,#0]
        0x000038fe:    e00f        ..      B        0x3920 ; st7789_set_memory_data_access_control + 98
        0x00003900:    9802        ..      LDR      r0,[sp,#8]
        0x00003902:    a901        ..      ADD      r1,sp,#4
        0x00003904:    7809        .x      LDRB     r1,[r1,#0]
        0x00003906:    2201        ."      MOVS     r2,#1
        0x00003908:    f7fef80e    ....    BL       a_st7789_write_byte ; 0x1928
        0x0000390c:    b120         .      CBZ      r0,0x3918 ; st7789_set_memory_data_access_control + 90
        0x0000390e:    e7ff        ..      B        0x3910 ; st7789_set_memory_data_access_control + 82
        0x00003910:    a903        ..      ADD      r1,sp,#0xc
        0x00003912:    2001        .       MOVS     r0,#1
        0x00003914:    7008        .p      STRB     r0,[r1,#0]
        0x00003916:    e003        ..      B        0x3920 ; st7789_set_memory_data_access_control + 98
        0x00003918:    a903        ..      ADD      r1,sp,#0xc
        0x0000391a:    2000        .       MOVS     r0,#0
        0x0000391c:    7008        .p      STRB     r0,[r1,#0]
        0x0000391e:    e7ff        ..      B        0x3920 ; st7789_set_memory_data_access_control + 98
        0x00003920:    a803        ..      ADD      r0,sp,#0xc
        0x00003922:    7800        .x      LDRB     r0,[r0,#0]
        0x00003924:    b004        ..      ADD      sp,sp,#0x10
        0x00003926:    bd80        ..      POP      {r7,pc}
    st7789_set_negative_voltage_gamma_control
        0x00003928:    b580        ..      PUSH     {r7,lr}
        0x0000392a:    b084        ..      SUB      sp,sp,#0x10
        0x0000392c:    9002        ..      STR      r0,[sp,#8]
        0x0000392e:    9101        ..      STR      r1,[sp,#4]
        0x00003930:    9802        ..      LDR      r0,[sp,#8]
        0x00003932:    b920         .      CBNZ     r0,0x393e ; st7789_set_negative_voltage_gamma_control + 22
        0x00003934:    e7ff        ..      B        0x3936 ; st7789_set_negative_voltage_gamma_control + 14
        0x00003936:    a903        ..      ADD      r1,sp,#0xc
        0x00003938:    2002        .       MOVS     r0,#2
        0x0000393a:    7008        .p      STRB     r0,[r1,#0]
        0x0000393c:    e024        $.      B        0x3988 ; st7789_set_negative_voltage_gamma_control + 96
        0x0000393e:    9802        ..      LDR      r0,[sp,#8]
        0x00003940:    212c        ,!      MOVS     r1,#0x2c
        0x00003942:    5c40        @\      LDRB     r0,[r0,r1]
        0x00003944:    2801        .(      CMP      r0,#1
        0x00003946:    d004        ..      BEQ      0x3952 ; st7789_set_negative_voltage_gamma_control + 42
        0x00003948:    e7ff        ..      B        0x394a ; st7789_set_negative_voltage_gamma_control + 34
        0x0000394a:    a903        ..      ADD      r1,sp,#0xc
        0x0000394c:    2003        .       MOVS     r0,#3
        0x0000394e:    7008        .p      STRB     r0,[r1,#0]
        0x00003950:    e01a        ..      B        0x3988 ; st7789_set_negative_voltage_gamma_control + 96
        0x00003952:    9802        ..      LDR      r0,[sp,#8]
        0x00003954:    21e1        .!      MOVS     r1,#0xe1
        0x00003956:    2200        ."      MOVS     r2,#0
        0x00003958:    f7fdffe6    ....    BL       a_st7789_write_byte ; 0x1928
        0x0000395c:    b120         .      CBZ      r0,0x3968 ; st7789_set_negative_voltage_gamma_control + 64
        0x0000395e:    e7ff        ..      B        0x3960 ; st7789_set_negative_voltage_gamma_control + 56
        0x00003960:    a903        ..      ADD      r1,sp,#0xc
        0x00003962:    2001        .       MOVS     r0,#1
        0x00003964:    7008        .p      STRB     r0,[r1,#0]
        0x00003966:    e00f        ..      B        0x3988 ; st7789_set_negative_voltage_gamma_control + 96
        0x00003968:    9802        ..      LDR      r0,[sp,#8]
        0x0000396a:    9901        ..      LDR      r1,[sp,#4]
        0x0000396c:    220e        ."      MOVS     r2,#0xe
        0x0000396e:    2301        .#      MOVS     r3,#1
        0x00003970:    f7fef806    ....    BL       a_st7789_write_bytes ; 0x1980
        0x00003974:    b120         .      CBZ      r0,0x3980 ; st7789_set_negative_voltage_gamma_control + 88
        0x00003976:    e7ff        ..      B        0x3978 ; st7789_set_negative_voltage_gamma_control + 80
        0x00003978:    a903        ..      ADD      r1,sp,#0xc
        0x0000397a:    2001        .       MOVS     r0,#1
        0x0000397c:    7008        .p      STRB     r0,[r1,#0]
        0x0000397e:    e003        ..      B        0x3988 ; st7789_set_negative_voltage_gamma_control + 96
        0x00003980:    a903        ..      ADD      r1,sp,#0xc
        0x00003982:    2000        .       MOVS     r0,#0
        0x00003984:    7008        .p      STRB     r0,[r1,#0]
        0x00003986:    e7ff        ..      B        0x3988 ; st7789_set_negative_voltage_gamma_control + 96
        0x00003988:    a803        ..      ADD      r0,sp,#0xc
        0x0000398a:    7800        .x      LDRB     r0,[r0,#0]
        0x0000398c:    b004        ..      ADD      sp,sp,#0x10
        0x0000398e:    bd80        ..      POP      {r7,pc}
    st7789_set_partial_mode_control
        0x00003990:    b580        ..      PUSH     {r7,lr}
        0x00003992:    b086        ..      SUB      sp,sp,#0x18
        0x00003994:    9004        ..      STR      r0,[sp,#0x10]
        0x00003996:    9103        ..      STR      r1,[sp,#0xc]
        0x00003998:    9202        ..      STR      r2,[sp,#8]
        0x0000399a:    9301        ..      STR      r3,[sp,#4]
        0x0000399c:    9804        ..      LDR      r0,[sp,#0x10]
        0x0000399e:    b920         .      CBNZ     r0,0x39aa ; st7789_set_partial_mode_control + 26
        0x000039a0:    e7ff        ..      B        0x39a2 ; st7789_set_partial_mode_control + 18
        0x000039a2:    a905        ..      ADD      r1,sp,#0x14
        0x000039a4:    2002        .       MOVS     r0,#2
        0x000039a6:    7008        .p      STRB     r0,[r1,#0]
        0x000039a8:    e02c        ,.      B        0x3a04 ; st7789_set_partial_mode_control + 116
        0x000039aa:    9804        ..      LDR      r0,[sp,#0x10]
        0x000039ac:    212c        ,!      MOVS     r1,#0x2c
        0x000039ae:    5c40        @\      LDRB     r0,[r0,r1]
        0x000039b0:    2801        .(      CMP      r0,#1
        0x000039b2:    d004        ..      BEQ      0x39be ; st7789_set_partial_mode_control + 46
        0x000039b4:    e7ff        ..      B        0x39b6 ; st7789_set_partial_mode_control + 38
        0x000039b6:    a905        ..      ADD      r1,sp,#0x14
        0x000039b8:    2003        .       MOVS     r0,#3
        0x000039ba:    7008        .p      STRB     r0,[r1,#0]
        0x000039bc:    e022        ".      B        0x3a04 ; st7789_set_partial_mode_control + 116
        0x000039be:    9804        ..      LDR      r0,[sp,#0x10]
        0x000039c0:    21b5        .!      MOVS     r1,#0xb5
        0x000039c2:    2200        ."      MOVS     r2,#0
        0x000039c4:    f7fdffb0    ....    BL       a_st7789_write_byte ; 0x1928
        0x000039c8:    b120         .      CBZ      r0,0x39d4 ; st7789_set_partial_mode_control + 68
        0x000039ca:    e7ff        ..      B        0x39cc ; st7789_set_partial_mode_control + 60
        0x000039cc:    a905        ..      ADD      r1,sp,#0x14
        0x000039ce:    2001        .       MOVS     r0,#1
        0x000039d0:    7008        .p      STRB     r0,[r1,#0]
        0x000039d2:    e017        ..      B        0x3a04 ; st7789_set_partial_mode_control + 116
        0x000039d4:    9803        ..      LDR      r0,[sp,#0xc]
        0x000039d6:    01c0        ..      LSLS     r0,r0,#7
        0x000039d8:    9902        ..      LDR      r1,[sp,#8]
        0x000039da:    0109        ..      LSLS     r1,r1,#4
        0x000039dc:    4308        .C      ORRS     r0,r0,r1
        0x000039de:    9901        ..      LDR      r1,[sp,#4]
        0x000039e0:    4308        .C      ORRS     r0,r0,r1
        0x000039e2:    4669        iF      MOV      r1,sp
        0x000039e4:    7008        .p      STRB     r0,[r1,#0]
        0x000039e6:    9804        ..      LDR      r0,[sp,#0x10]
        0x000039e8:    7809        .x      LDRB     r1,[r1,#0]
        0x000039ea:    2201        ."      MOVS     r2,#1
        0x000039ec:    f7fdff9c    ....    BL       a_st7789_write_byte ; 0x1928
        0x000039f0:    b120         .      CBZ      r0,0x39fc ; st7789_set_partial_mode_control + 108
        0x000039f2:    e7ff        ..      B        0x39f4 ; st7789_set_partial_mode_control + 100
        0x000039f4:    a905        ..      ADD      r1,sp,#0x14
        0x000039f6:    2001        .       MOVS     r0,#1
        0x000039f8:    7008        .p      STRB     r0,[r1,#0]
        0x000039fa:    e003        ..      B        0x3a04 ; st7789_set_partial_mode_control + 116
        0x000039fc:    a905        ..      ADD      r1,sp,#0x14
        0x000039fe:    2000        .       MOVS     r0,#0
        0x00003a00:    7008        .p      STRB     r0,[r1,#0]
        0x00003a02:    e7ff        ..      B        0x3a04 ; st7789_set_partial_mode_control + 116
        0x00003a04:    a805        ..      ADD      r0,sp,#0x14
        0x00003a06:    7800        .x      LDRB     r0,[r0,#0]
        0x00003a08:    b006        ..      ADD      sp,sp,#0x18
        0x00003a0a:    bd80        ..      POP      {r7,pc}
    st7789_set_porch
        0x00003a0c:    b5f0        ..      PUSH     {r4-r7,lr}
        0x00003a0e:    b08d        ..      SUB      sp,sp,#0x34
        0x00003a10:    461c        .F      MOV      r4,r3
        0x00003a12:    4615        .F      MOV      r5,r2
        0x00003a14:    460e        .F      MOV      r6,r1
        0x00003a16:    4607        .F      MOV      r7,r0
        0x00003a18:    9815        ..      LDR      r0,[sp,#0x54]
        0x00003a1a:    9914        ..      LDR      r1,[sp,#0x50]
        0x00003a1c:    9101        ..      STR      r1,[sp,#4]
        0x00003a1e:    9a13        ..      LDR      r2,[sp,#0x4c]
        0x00003a20:    9b12        ..      LDR      r3,[sp,#0x48]
        0x00003a22:    9901        ..      LDR      r1,[sp,#4]
        0x00003a24:    970b        ..      STR      r7,[sp,#0x2c]
        0x00003a26:    af0a        ..      ADD      r7,sp,#0x28
        0x00003a28:    703e        >p      STRB     r6,[r7,#0]
        0x00003a2a:    ae09        ..      ADD      r6,sp,#0x24
        0x00003a2c:    7035        5p      STRB     r5,[r6,#0]
        0x00003a2e:    9408        ..      STR      r4,[sp,#0x20]
        0x00003a30:    ac07        ..      ADD      r4,sp,#0x1c
        0x00003a32:    7023        #p      STRB     r3,[r4,#0]
        0x00003a34:    ab06        ..      ADD      r3,sp,#0x18
        0x00003a36:    701a        .p      STRB     r2,[r3,#0]
        0x00003a38:    aa05        ..      ADD      r2,sp,#0x14
        0x00003a3a:    7011        .p      STRB     r1,[r2,#0]
        0x00003a3c:    a904        ..      ADD      r1,sp,#0x10
        0x00003a3e:    7008        .p      STRB     r0,[r1,#0]
        0x00003a40:    980b        ..      LDR      r0,[sp,#0x2c]
        0x00003a42:    b920         .      CBNZ     r0,0x3a4e ; st7789_set_porch + 66
        0x00003a44:    e7ff        ..      B        0x3a46 ; st7789_set_porch + 58
        0x00003a46:    a90c        ..      ADD      r1,sp,#0x30
        0x00003a48:    2002        .       MOVS     r0,#2
        0x00003a4a:    7008        .p      STRB     r0,[r1,#0]
        0x00003a4c:    e06f        o.      B        0x3b2e ; st7789_set_porch + 290
        0x00003a4e:    980b        ..      LDR      r0,[sp,#0x2c]
        0x00003a50:    212c        ,!      MOVS     r1,#0x2c
        0x00003a52:    5c40        @\      LDRB     r0,[r0,r1]
        0x00003a54:    2801        .(      CMP      r0,#1
        0x00003a56:    d004        ..      BEQ      0x3a62 ; st7789_set_porch + 86
        0x00003a58:    e7ff        ..      B        0x3a5a ; st7789_set_porch + 78
        0x00003a5a:    a90c        ..      ADD      r1,sp,#0x30
        0x00003a5c:    2003        .       MOVS     r0,#3
        0x00003a5e:    7008        .p      STRB     r0,[r1,#0]
        0x00003a60:    e065        e.      B        0x3b2e ; st7789_set_porch + 290
        0x00003a62:    a80a        ..      ADD      r0,sp,#0x28
        0x00003a64:    7800        .x      LDRB     r0,[r0,#0]
        0x00003a66:    2880        .(      CMP      r0,#0x80
        0x00003a68:    db04        ..      BLT      0x3a74 ; st7789_set_porch + 104
        0x00003a6a:    e7ff        ..      B        0x3a6c ; st7789_set_porch + 96
        0x00003a6c:    a90c        ..      ADD      r1,sp,#0x30
        0x00003a6e:    2004        .       MOVS     r0,#4
        0x00003a70:    7008        .p      STRB     r0,[r1,#0]
        0x00003a72:    e05c        \.      B        0x3b2e ; st7789_set_porch + 290
        0x00003a74:    a809        ..      ADD      r0,sp,#0x24
        0x00003a76:    7800        .x      LDRB     r0,[r0,#0]
        0x00003a78:    2880        .(      CMP      r0,#0x80
        0x00003a7a:    db04        ..      BLT      0x3a86 ; st7789_set_porch + 122
        0x00003a7c:    e7ff        ..      B        0x3a7e ; st7789_set_porch + 114
        0x00003a7e:    a90c        ..      ADD      r1,sp,#0x30
        0x00003a80:    2005        .       MOVS     r0,#5
        0x00003a82:    7008        .p      STRB     r0,[r1,#0]
        0x00003a84:    e053        S.      B        0x3b2e ; st7789_set_porch + 290
        0x00003a86:    a807        ..      ADD      r0,sp,#0x1c
        0x00003a88:    7800        .x      LDRB     r0,[r0,#0]
        0x00003a8a:    2810        .(      CMP      r0,#0x10
        0x00003a8c:    db04        ..      BLT      0x3a98 ; st7789_set_porch + 140
        0x00003a8e:    e7ff        ..      B        0x3a90 ; st7789_set_porch + 132
        0x00003a90:    a90c        ..      ADD      r1,sp,#0x30
        0x00003a92:    2006        .       MOVS     r0,#6
        0x00003a94:    7008        .p      STRB     r0,[r1,#0]
        0x00003a96:    e04a        J.      B        0x3b2e ; st7789_set_porch + 290
        0x00003a98:    a806        ..      ADD      r0,sp,#0x18
        0x00003a9a:    7800        .x      LDRB     r0,[r0,#0]
        0x00003a9c:    2810        .(      CMP      r0,#0x10
        0x00003a9e:    db04        ..      BLT      0x3aaa ; st7789_set_porch + 158
        0x00003aa0:    e7ff        ..      B        0x3aa2 ; st7789_set_porch + 150
        0x00003aa2:    a90c        ..      ADD      r1,sp,#0x30
        0x00003aa4:    2007        .       MOVS     r0,#7
        0x00003aa6:    7008        .p      STRB     r0,[r1,#0]
        0x00003aa8:    e041        A.      B        0x3b2e ; st7789_set_porch + 290
        0x00003aaa:    a805        ..      ADD      r0,sp,#0x14
        0x00003aac:    7800        .x      LDRB     r0,[r0,#0]
        0x00003aae:    2810        .(      CMP      r0,#0x10
        0x00003ab0:    db04        ..      BLT      0x3abc ; st7789_set_porch + 176
        0x00003ab2:    e7ff        ..      B        0x3ab4 ; st7789_set_porch + 168
        0x00003ab4:    a90c        ..      ADD      r1,sp,#0x30
        0x00003ab6:    2008        .       MOVS     r0,#8
        0x00003ab8:    7008        .p      STRB     r0,[r1,#0]
        0x00003aba:    e038        8.      B        0x3b2e ; st7789_set_porch + 290
        0x00003abc:    a804        ..      ADD      r0,sp,#0x10
        0x00003abe:    7800        .x      LDRB     r0,[r0,#0]
        0x00003ac0:    2810        .(      CMP      r0,#0x10
        0x00003ac2:    db04        ..      BLT      0x3ace ; st7789_set_porch + 194
        0x00003ac4:    e7ff        ..      B        0x3ac6 ; st7789_set_porch + 186
        0x00003ac6:    a90c        ..      ADD      r1,sp,#0x30
        0x00003ac8:    2009        .       MOVS     r0,#9
        0x00003aca:    7008        .p      STRB     r0,[r1,#0]
        0x00003acc:    e02f        /.      B        0x3b2e ; st7789_set_porch + 290
        0x00003ace:    980b        ..      LDR      r0,[sp,#0x2c]
        0x00003ad0:    21b2        .!      MOVS     r1,#0xb2
        0x00003ad2:    2200        ."      MOVS     r2,#0
        0x00003ad4:    f7fdff28    ..(.    BL       a_st7789_write_byte ; 0x1928
        0x00003ad8:    b120         .      CBZ      r0,0x3ae4 ; st7789_set_porch + 216
        0x00003ada:    e7ff        ..      B        0x3adc ; st7789_set_porch + 208
        0x00003adc:    a90c        ..      ADD      r1,sp,#0x30
        0x00003ade:    2001        .       MOVS     r0,#1
        0x00003ae0:    7008        .p      STRB     r0,[r1,#0]
        0x00003ae2:    e024        $.      B        0x3b2e ; st7789_set_porch + 290
        0x00003ae4:    980a        ..      LDR      r0,[sp,#0x28]
        0x00003ae6:    a902        ..      ADD      r1,sp,#8
        0x00003ae8:    7008        .p      STRB     r0,[r1,#0]
        0x00003aea:    9809        ..      LDR      r0,[sp,#0x24]
        0x00003aec:    7048        Hp      STRB     r0,[r1,#1]
        0x00003aee:    9808        ..      LDR      r0,[sp,#0x20]
        0x00003af0:    7088        .p      STRB     r0,[r1,#2]
        0x00003af2:    9807        ..      LDR      r0,[sp,#0x1c]
        0x00003af4:    0100        ..      LSLS     r0,r0,#4
        0x00003af6:    aa06        ..      ADD      r2,sp,#0x18
        0x00003af8:    7812        .x      LDRB     r2,[r2,#0]
        0x00003afa:    230f        .#      MOVS     r3,#0xf
        0x00003afc:    401a        .@      ANDS     r2,r2,r3
        0x00003afe:    1880        ..      ADDS     r0,r0,r2
        0x00003b00:    70c8        .p      STRB     r0,[r1,#3]
        0x00003b02:    9805        ..      LDR      r0,[sp,#0x14]
        0x00003b04:    0100        ..      LSLS     r0,r0,#4
        0x00003b06:    aa04        ..      ADD      r2,sp,#0x10
        0x00003b08:    7812        .x      LDRB     r2,[r2,#0]
        0x00003b0a:    401a        .@      ANDS     r2,r2,r3
        0x00003b0c:    1880        ..      ADDS     r0,r0,r2
        0x00003b0e:    7108        .q      STRB     r0,[r1,#4]
        0x00003b10:    980b        ..      LDR      r0,[sp,#0x2c]
        0x00003b12:    2205        ."      MOVS     r2,#5
        0x00003b14:    2301        .#      MOVS     r3,#1
        0x00003b16:    f7fdff33    ..3.    BL       a_st7789_write_bytes ; 0x1980
        0x00003b1a:    b120         .      CBZ      r0,0x3b26 ; st7789_set_porch + 282
        0x00003b1c:    e7ff        ..      B        0x3b1e ; st7789_set_porch + 274
        0x00003b1e:    a90c        ..      ADD      r1,sp,#0x30
        0x00003b20:    2001        .       MOVS     r0,#1
        0x00003b22:    7008        .p      STRB     r0,[r1,#0]
        0x00003b24:    e003        ..      B        0x3b2e ; st7789_set_porch + 290
        0x00003b26:    a90c        ..      ADD      r1,sp,#0x30
        0x00003b28:    2000        .       MOVS     r0,#0
        0x00003b2a:    7008        .p      STRB     r0,[r1,#0]
        0x00003b2c:    e7ff        ..      B        0x3b2e ; st7789_set_porch + 290
        0x00003b2e:    a80c        ..      ADD      r0,sp,#0x30
        0x00003b30:    7800        .x      LDRB     r0,[r0,#0]
        0x00003b32:    b00d        ..      ADD      sp,sp,#0x34
        0x00003b34:    bdf0        ..      POP      {r4-r7,pc}
    st7789_set_positive_voltage_gamma_control
        0x00003b36:    b580        ..      PUSH     {r7,lr}
        0x00003b38:    b084        ..      SUB      sp,sp,#0x10
        0x00003b3a:    9002        ..      STR      r0,[sp,#8]
        0x00003b3c:    9101        ..      STR      r1,[sp,#4]
        0x00003b3e:    9802        ..      LDR      r0,[sp,#8]
        0x00003b40:    b920         .      CBNZ     r0,0x3b4c ; st7789_set_positive_voltage_gamma_control + 22
        0x00003b42:    e7ff        ..      B        0x3b44 ; st7789_set_positive_voltage_gamma_control + 14
        0x00003b44:    a903        ..      ADD      r1,sp,#0xc
        0x00003b46:    2002        .       MOVS     r0,#2
        0x00003b48:    7008        .p      STRB     r0,[r1,#0]
        0x00003b4a:    e024        $.      B        0x3b96 ; st7789_set_positive_voltage_gamma_control + 96
        0x00003b4c:    9802        ..      LDR      r0,[sp,#8]
        0x00003b4e:    212c        ,!      MOVS     r1,#0x2c
        0x00003b50:    5c40        @\      LDRB     r0,[r0,r1]
        0x00003b52:    2801        .(      CMP      r0,#1
        0x00003b54:    d004        ..      BEQ      0x3b60 ; st7789_set_positive_voltage_gamma_control + 42
        0x00003b56:    e7ff        ..      B        0x3b58 ; st7789_set_positive_voltage_gamma_control + 34
        0x00003b58:    a903        ..      ADD      r1,sp,#0xc
        0x00003b5a:    2003        .       MOVS     r0,#3
        0x00003b5c:    7008        .p      STRB     r0,[r1,#0]
        0x00003b5e:    e01a        ..      B        0x3b96 ; st7789_set_positive_voltage_gamma_control + 96
        0x00003b60:    9802        ..      LDR      r0,[sp,#8]
        0x00003b62:    21e0        .!      MOVS     r1,#0xe0
        0x00003b64:    2200        ."      MOVS     r2,#0
        0x00003b66:    f7fdfedf    ....    BL       a_st7789_write_byte ; 0x1928
        0x00003b6a:    b120         .      CBZ      r0,0x3b76 ; st7789_set_positive_voltage_gamma_control + 64
        0x00003b6c:    e7ff        ..      B        0x3b6e ; st7789_set_positive_voltage_gamma_control + 56
        0x00003b6e:    a903        ..      ADD      r1,sp,#0xc
        0x00003b70:    2001        .       MOVS     r0,#1
        0x00003b72:    7008        .p      STRB     r0,[r1,#0]
        0x00003b74:    e00f        ..      B        0x3b96 ; st7789_set_positive_voltage_gamma_control + 96
        0x00003b76:    9802        ..      LDR      r0,[sp,#8]
        0x00003b78:    9901        ..      LDR      r1,[sp,#4]
        0x00003b7a:    220e        ."      MOVS     r2,#0xe
        0x00003b7c:    2301        .#      MOVS     r3,#1
        0x00003b7e:    f7fdfeff    ....    BL       a_st7789_write_bytes ; 0x1980
        0x00003b82:    b120         .      CBZ      r0,0x3b8e ; st7789_set_positive_voltage_gamma_control + 88
        0x00003b84:    e7ff        ..      B        0x3b86 ; st7789_set_positive_voltage_gamma_control + 80
        0x00003b86:    a903        ..      ADD      r1,sp,#0xc
        0x00003b88:    2001        .       MOVS     r0,#1
        0x00003b8a:    7008        .p      STRB     r0,[r1,#0]
        0x00003b8c:    e003        ..      B        0x3b96 ; st7789_set_positive_voltage_gamma_control + 96
        0x00003b8e:    a903        ..      ADD      r1,sp,#0xc
        0x00003b90:    2000        .       MOVS     r0,#0
        0x00003b92:    7008        .p      STRB     r0,[r1,#0]
        0x00003b94:    e7ff        ..      B        0x3b96 ; st7789_set_positive_voltage_gamma_control + 96
        0x00003b96:    a803        ..      ADD      r0,sp,#0xc
        0x00003b98:    7800        .x      LDRB     r0,[r0,#0]
        0x00003b9a:    b004        ..      ADD      sp,sp,#0x10
        0x00003b9c:    bd80        ..      POP      {r7,pc}
    st7789_set_power_control_1
        0x00003b9e:    b580        ..      PUSH     {r7,lr}
        0x00003ba0:    b086        ..      SUB      sp,sp,#0x18
        0x00003ba2:    9004        ..      STR      r0,[sp,#0x10]
        0x00003ba4:    9103        ..      STR      r1,[sp,#0xc]
        0x00003ba6:    9202        ..      STR      r2,[sp,#8]
        0x00003ba8:    9301        ..      STR      r3,[sp,#4]
        0x00003baa:    9804        ..      LDR      r0,[sp,#0x10]
        0x00003bac:    b920         .      CBNZ     r0,0x3bb8 ; st7789_set_power_control_1 + 26
        0x00003bae:    e7ff        ..      B        0x3bb0 ; st7789_set_power_control_1 + 18
        0x00003bb0:    a905        ..      ADD      r1,sp,#0x14
        0x00003bb2:    2002        .       MOVS     r0,#2
        0x00003bb4:    7008        .p      STRB     r0,[r1,#0]
        0x00003bb6:    e02e        ..      B        0x3c16 ; st7789_set_power_control_1 + 120
        0x00003bb8:    9804        ..      LDR      r0,[sp,#0x10]
        0x00003bba:    212c        ,!      MOVS     r1,#0x2c
        0x00003bbc:    5c40        @\      LDRB     r0,[r0,r1]
        0x00003bbe:    2801        .(      CMP      r0,#1
        0x00003bc0:    d004        ..      BEQ      0x3bcc ; st7789_set_power_control_1 + 46
        0x00003bc2:    e7ff        ..      B        0x3bc4 ; st7789_set_power_control_1 + 38
        0x00003bc4:    a905        ..      ADD      r1,sp,#0x14
        0x00003bc6:    2003        .       MOVS     r0,#3
        0x00003bc8:    7008        .p      STRB     r0,[r1,#0]
        0x00003bca:    e024        $.      B        0x3c16 ; st7789_set_power_control_1 + 120
        0x00003bcc:    9804        ..      LDR      r0,[sp,#0x10]
        0x00003bce:    21d0        .!      MOVS     r1,#0xd0
        0x00003bd0:    2200        ."      MOVS     r2,#0
        0x00003bd2:    f7fdfea9    ....    BL       a_st7789_write_byte ; 0x1928
        0x00003bd6:    b120         .      CBZ      r0,0x3be2 ; st7789_set_power_control_1 + 68
        0x00003bd8:    e7ff        ..      B        0x3bda ; st7789_set_power_control_1 + 60
        0x00003bda:    a905        ..      ADD      r1,sp,#0x14
        0x00003bdc:    2001        .       MOVS     r0,#1
        0x00003bde:    7008        .p      STRB     r0,[r1,#0]
        0x00003be0:    e019        ..      B        0x3c16 ; st7789_set_power_control_1 + 120
        0x00003be2:    4669        iF      MOV      r1,sp
        0x00003be4:    20a4        .       MOVS     r0,#0xa4
        0x00003be6:    7008        .p      STRB     r0,[r1,#0]
        0x00003be8:    9803        ..      LDR      r0,[sp,#0xc]
        0x00003bea:    0180        ..      LSLS     r0,r0,#6
        0x00003bec:    9a02        ..      LDR      r2,[sp,#8]
        0x00003bee:    0112        ..      LSLS     r2,r2,#4
        0x00003bf0:    4310        .C      ORRS     r0,r0,r2
        0x00003bf2:    9a01        ..      LDR      r2,[sp,#4]
        0x00003bf4:    4310        .C      ORRS     r0,r0,r2
        0x00003bf6:    7048        Hp      STRB     r0,[r1,#1]
        0x00003bf8:    9804        ..      LDR      r0,[sp,#0x10]
        0x00003bfa:    2202        ."      MOVS     r2,#2
        0x00003bfc:    2301        .#      MOVS     r3,#1
        0x00003bfe:    f7fdfebf    ....    BL       a_st7789_write_bytes ; 0x1980
        0x00003c02:    b120         .      CBZ      r0,0x3c0e ; st7789_set_power_control_1 + 112
        0x00003c04:    e7ff        ..      B        0x3c06 ; st7789_set_power_control_1 + 104
        0x00003c06:    a905        ..      ADD      r1,sp,#0x14
        0x00003c08:    2001        .       MOVS     r0,#1
        0x00003c0a:    7008        .p      STRB     r0,[r1,#0]
        0x00003c0c:    e003        ..      B        0x3c16 ; st7789_set_power_control_1 + 120
        0x00003c0e:    a905        ..      ADD      r1,sp,#0x14
        0x00003c10:    2000        .       MOVS     r0,#0
        0x00003c12:    7008        .p      STRB     r0,[r1,#0]
        0x00003c14:    e7ff        ..      B        0x3c16 ; st7789_set_power_control_1 + 120
        0x00003c16:    a805        ..      ADD      r0,sp,#0x14
        0x00003c18:    7800        .x      LDRB     r0,[r0,#0]
        0x00003c1a:    b006        ..      ADD      sp,sp,#0x18
        0x00003c1c:    bd80        ..      POP      {r7,pc}
    st7789_set_power_control_2
        0x00003c1e:    b580        ..      PUSH     {r7,lr}
        0x00003c20:    b086        ..      SUB      sp,sp,#0x18
        0x00003c22:    9004        ..      STR      r0,[sp,#0x10]
        0x00003c24:    9103        ..      STR      r1,[sp,#0xc]
        0x00003c26:    9202        ..      STR      r2,[sp,#8]
        0x00003c28:    9804        ..      LDR      r0,[sp,#0x10]
        0x00003c2a:    b920         .      CBNZ     r0,0x3c36 ; st7789_set_power_control_2 + 24
        0x00003c2c:    e7ff        ..      B        0x3c2e ; st7789_set_power_control_2 + 16
        0x00003c2e:    a905        ..      ADD      r1,sp,#0x14
        0x00003c30:    2002        .       MOVS     r0,#2
        0x00003c32:    7008        .p      STRB     r0,[r1,#0]
        0x00003c34:    e029        ).      B        0x3c8a ; st7789_set_power_control_2 + 108
        0x00003c36:    9804        ..      LDR      r0,[sp,#0x10]
        0x00003c38:    212c        ,!      MOVS     r1,#0x2c
        0x00003c3a:    5c40        @\      LDRB     r0,[r0,r1]
        0x00003c3c:    2801        .(      CMP      r0,#1
        0x00003c3e:    d004        ..      BEQ      0x3c4a ; st7789_set_power_control_2 + 44
        0x00003c40:    e7ff        ..      B        0x3c42 ; st7789_set_power_control_2 + 36
        0x00003c42:    a905        ..      ADD      r1,sp,#0x14
        0x00003c44:    2003        .       MOVS     r0,#3
        0x00003c46:    7008        .p      STRB     r0,[r1,#0]
        0x00003c48:    e01f        ..      B        0x3c8a ; st7789_set_power_control_2 + 108
        0x00003c4a:    9804        ..      LDR      r0,[sp,#0x10]
        0x00003c4c:    21e8        .!      MOVS     r1,#0xe8
        0x00003c4e:    2200        ."      MOVS     r2,#0
        0x00003c50:    f7fdfe6a    ..j.    BL       a_st7789_write_byte ; 0x1928
        0x00003c54:    b120         .      CBZ      r0,0x3c60 ; st7789_set_power_control_2 + 66
        0x00003c56:    e7ff        ..      B        0x3c58 ; st7789_set_power_control_2 + 58
        0x00003c58:    a905        ..      ADD      r1,sp,#0x14
        0x00003c5a:    2001        .       MOVS     r0,#1
        0x00003c5c:    7008        .p      STRB     r0,[r1,#0]
        0x00003c5e:    e014        ..      B        0x3c8a ; st7789_set_power_control_2 + 108
        0x00003c60:    9803        ..      LDR      r0,[sp,#0xc]
        0x00003c62:    0100        ..      LSLS     r0,r0,#4
        0x00003c64:    9902        ..      LDR      r1,[sp,#8]
        0x00003c66:    4308        .C      ORRS     r0,r0,r1
        0x00003c68:    a901        ..      ADD      r1,sp,#4
        0x00003c6a:    7008        .p      STRB     r0,[r1,#0]
        0x00003c6c:    9804        ..      LDR      r0,[sp,#0x10]
        0x00003c6e:    7809        .x      LDRB     r1,[r1,#0]
        0x00003c70:    2201        ."      MOVS     r2,#1
        0x00003c72:    f7fdfe59    ..Y.    BL       a_st7789_write_byte ; 0x1928
        0x00003c76:    b120         .      CBZ      r0,0x3c82 ; st7789_set_power_control_2 + 100
        0x00003c78:    e7ff        ..      B        0x3c7a ; st7789_set_power_control_2 + 92
        0x00003c7a:    a905        ..      ADD      r1,sp,#0x14
        0x00003c7c:    2001        .       MOVS     r0,#1
        0x00003c7e:    7008        .p      STRB     r0,[r1,#0]
        0x00003c80:    e003        ..      B        0x3c8a ; st7789_set_power_control_2 + 108
        0x00003c82:    a905        ..      ADD      r1,sp,#0x14
        0x00003c84:    2000        .       MOVS     r0,#0
        0x00003c86:    7008        .p      STRB     r0,[r1,#0]
        0x00003c88:    e7ff        ..      B        0x3c8a ; st7789_set_power_control_2 + 108
        0x00003c8a:    a805        ..      ADD      r0,sp,#0x14
        0x00003c8c:    7800        .x      LDRB     r0,[r0,#0]
        0x00003c8e:    b006        ..      ADD      sp,sp,#0x18
        0x00003c90:    bd80        ..      POP      {r7,pc}
    st7789_set_program_mode_enable
        0x00003c92:    b580        ..      PUSH     {r7,lr}
        0x00003c94:    b084        ..      SUB      sp,sp,#0x10
        0x00003c96:    9002        ..      STR      r0,[sp,#8]
        0x00003c98:    9101        ..      STR      r1,[sp,#4]
        0x00003c9a:    9802        ..      LDR      r0,[sp,#8]
        0x00003c9c:    b920         .      CBNZ     r0,0x3ca8 ; st7789_set_program_mode_enable + 22
        0x00003c9e:    e7ff        ..      B        0x3ca0 ; st7789_set_program_mode_enable + 14
        0x00003ca0:    a903        ..      ADD      r1,sp,#0xc
        0x00003ca2:    2002        .       MOVS     r0,#2
        0x00003ca4:    7008        .p      STRB     r0,[r1,#0]
        0x00003ca6:    e02d        -.      B        0x3d04 ; st7789_set_program_mode_enable + 114
        0x00003ca8:    9802        ..      LDR      r0,[sp,#8]
        0x00003caa:    212c        ,!      MOVS     r1,#0x2c
        0x00003cac:    5c40        @\      LDRB     r0,[r0,r1]
        0x00003cae:    2801        .(      CMP      r0,#1
        0x00003cb0:    d004        ..      BEQ      0x3cbc ; st7789_set_program_mode_enable + 42
        0x00003cb2:    e7ff        ..      B        0x3cb4 ; st7789_set_program_mode_enable + 34
        0x00003cb4:    a903        ..      ADD      r1,sp,#0xc
        0x00003cb6:    2003        .       MOVS     r0,#3
        0x00003cb8:    7008        .p      STRB     r0,[r1,#0]
        0x00003cba:    e023        #.      B        0x3d04 ; st7789_set_program_mode_enable + 114
        0x00003cbc:    9802        ..      LDR      r0,[sp,#8]
        0x00003cbe:    21fa        .!      MOVS     r1,#0xfa
        0x00003cc0:    2200        ."      MOVS     r2,#0
        0x00003cc2:    f7fdfe31    ..1.    BL       a_st7789_write_byte ; 0x1928
        0x00003cc6:    b120         .      CBZ      r0,0x3cd2 ; st7789_set_program_mode_enable + 64
        0x00003cc8:    e7ff        ..      B        0x3cca ; st7789_set_program_mode_enable + 56
        0x00003cca:    a903        ..      ADD      r1,sp,#0xc
        0x00003ccc:    2001        .       MOVS     r0,#1
        0x00003cce:    7008        .p      STRB     r0,[r1,#0]
        0x00003cd0:    e018        ..      B        0x3d04 ; st7789_set_program_mode_enable + 114
        0x00003cd2:    4669        iF      MOV      r1,sp
        0x00003cd4:    205a        Z       MOVS     r0,#0x5a
        0x00003cd6:    7008        .p      STRB     r0,[r1,#0]
        0x00003cd8:    2069        i       MOVS     r0,#0x69
        0x00003cda:    7048        Hp      STRB     r0,[r1,#1]
        0x00003cdc:    20ee        .       MOVS     r0,#0xee
        0x00003cde:    7088        .p      STRB     r0,[r1,#2]
        0x00003ce0:    9801        ..      LDR      r0,[sp,#4]
        0x00003ce2:    0080        ..      LSLS     r0,r0,#2
        0x00003ce4:    70c8        .p      STRB     r0,[r1,#3]
        0x00003ce6:    9802        ..      LDR      r0,[sp,#8]
        0x00003ce8:    2204        ."      MOVS     r2,#4
        0x00003cea:    2301        .#      MOVS     r3,#1
        0x00003cec:    f7fdfe48    ..H.    BL       a_st7789_write_bytes ; 0x1980
        0x00003cf0:    b120         .      CBZ      r0,0x3cfc ; st7789_set_program_mode_enable + 106
        0x00003cf2:    e7ff        ..      B        0x3cf4 ; st7789_set_program_mode_enable + 98
        0x00003cf4:    a903        ..      ADD      r1,sp,#0xc
        0x00003cf6:    2001        .       MOVS     r0,#1
        0x00003cf8:    7008        .p      STRB     r0,[r1,#0]
        0x00003cfa:    e003        ..      B        0x3d04 ; st7789_set_program_mode_enable + 114
        0x00003cfc:    a903        ..      ADD      r1,sp,#0xc
        0x00003cfe:    2000        .       MOVS     r0,#0
        0x00003d00:    7008        .p      STRB     r0,[r1,#0]
        0x00003d02:    e7ff        ..      B        0x3d04 ; st7789_set_program_mode_enable + 114
        0x00003d04:    a803        ..      ADD      r0,sp,#0xc
        0x00003d06:    7800        .x      LDRB     r0,[r0,#0]
        0x00003d08:    b004        ..      ADD      sp,sp,#0x10
        0x00003d0a:    bd80        ..      POP      {r7,pc}
    st7789_set_pwm_frequency
        0x00003d0c:    b580        ..      PUSH     {r7,lr}
        0x00003d0e:    b084        ..      SUB      sp,sp,#0x10
        0x00003d10:    9002        ..      STR      r0,[sp,#8]
        0x00003d12:    9101        ..      STR      r1,[sp,#4]
        0x00003d14:    9802        ..      LDR      r0,[sp,#8]
        0x00003d16:    b920         .      CBNZ     r0,0x3d22 ; st7789_set_pwm_frequency + 22
        0x00003d18:    e7ff        ..      B        0x3d1a ; st7789_set_pwm_frequency + 14
        0x00003d1a:    a903        ..      ADD      r1,sp,#0xc
        0x00003d1c:    2002        .       MOVS     r0,#2
        0x00003d1e:    7008        .p      STRB     r0,[r1,#0]
        0x00003d20:    e026        &.      B        0x3d70 ; st7789_set_pwm_frequency + 100
        0x00003d22:    9802        ..      LDR      r0,[sp,#8]
        0x00003d24:    212c        ,!      MOVS     r1,#0x2c
        0x00003d26:    5c40        @\      LDRB     r0,[r0,r1]
        0x00003d28:    2801        .(      CMP      r0,#1
        0x00003d2a:    d004        ..      BEQ      0x3d36 ; st7789_set_pwm_frequency + 42
        0x00003d2c:    e7ff        ..      B        0x3d2e ; st7789_set_pwm_frequency + 34
        0x00003d2e:    a903        ..      ADD      r1,sp,#0xc
        0x00003d30:    2003        .       MOVS     r0,#3
        0x00003d32:    7008        .p      STRB     r0,[r1,#0]
        0x00003d34:    e01c        ..      B        0x3d70 ; st7789_set_pwm_frequency + 100
        0x00003d36:    9802        ..      LDR      r0,[sp,#8]
        0x00003d38:    21cc        .!      MOVS     r1,#0xcc
        0x00003d3a:    2200        ."      MOVS     r2,#0
        0x00003d3c:    f7fdfdf4    ....    BL       a_st7789_write_byte ; 0x1928
        0x00003d40:    b120         .      CBZ      r0,0x3d4c ; st7789_set_pwm_frequency + 64
        0x00003d42:    e7ff        ..      B        0x3d44 ; st7789_set_pwm_frequency + 56
        0x00003d44:    a903        ..      ADD      r1,sp,#0xc
        0x00003d46:    2001        .       MOVS     r0,#1
        0x00003d48:    7008        .p      STRB     r0,[r1,#0]
        0x00003d4a:    e011        ..      B        0x3d70 ; st7789_set_pwm_frequency + 100
        0x00003d4c:    9801        ..      LDR      r0,[sp,#4]
        0x00003d4e:    4669        iF      MOV      r1,sp
        0x00003d50:    7008        .p      STRB     r0,[r1,#0]
        0x00003d52:    9802        ..      LDR      r0,[sp,#8]
        0x00003d54:    7809        .x      LDRB     r1,[r1,#0]
        0x00003d56:    2201        ."      MOVS     r2,#1
        0x00003d58:    f7fdfde6    ....    BL       a_st7789_write_byte ; 0x1928
        0x00003d5c:    b120         .      CBZ      r0,0x3d68 ; st7789_set_pwm_frequency + 92
        0x00003d5e:    e7ff        ..      B        0x3d60 ; st7789_set_pwm_frequency + 84
        0x00003d60:    a903        ..      ADD      r1,sp,#0xc
        0x00003d62:    2001        .       MOVS     r0,#1
        0x00003d64:    7008        .p      STRB     r0,[r1,#0]
        0x00003d66:    e003        ..      B        0x3d70 ; st7789_set_pwm_frequency + 100
        0x00003d68:    a903        ..      ADD      r1,sp,#0xc
        0x00003d6a:    2000        .       MOVS     r0,#0
        0x00003d6c:    7008        .p      STRB     r0,[r1,#0]
        0x00003d6e:    e7ff        ..      B        0x3d70 ; st7789_set_pwm_frequency + 100
        0x00003d70:    a803        ..      ADD      r0,sp,#0xc
        0x00003d72:    7800        .x      LDRB     r0,[r0,#0]
        0x00003d74:    b004        ..      ADD      sp,sp,#0x10
        0x00003d76:    bd80        ..      POP      {r7,pc}
    st7789_set_ram_control
        0x00003d78:    b510        ..      PUSH     {r4,lr}
        0x00003d7a:    b086        ..      SUB      sp,sp,#0x18
        0x00003d7c:    9c0a        ..      LDR      r4,[sp,#0x28]
        0x00003d7e:    9c09        ..      LDR      r4,[sp,#0x24]
        0x00003d80:    9c08        ..      LDR      r4,[sp,#0x20]
        0x00003d82:    9004        ..      STR      r0,[sp,#0x10]
        0x00003d84:    9103        ..      STR      r1,[sp,#0xc]
        0x00003d86:    9202        ..      STR      r2,[sp,#8]
        0x00003d88:    9301        ..      STR      r3,[sp,#4]
        0x00003d8a:    9804        ..      LDR      r0,[sp,#0x10]
        0x00003d8c:    b920         .      CBNZ     r0,0x3d98 ; st7789_set_ram_control + 32
        0x00003d8e:    e7ff        ..      B        0x3d90 ; st7789_set_ram_control + 24
        0x00003d90:    a905        ..      ADD      r1,sp,#0x14
        0x00003d92:    2002        .       MOVS     r0,#2
        0x00003d94:    7008        .p      STRB     r0,[r1,#0]
        0x00003d96:    e034        4.      B        0x3e02 ; st7789_set_ram_control + 138
        0x00003d98:    9804        ..      LDR      r0,[sp,#0x10]
        0x00003d9a:    212c        ,!      MOVS     r1,#0x2c
        0x00003d9c:    5c40        @\      LDRB     r0,[r0,r1]
        0x00003d9e:    2801        .(      CMP      r0,#1
        0x00003da0:    d004        ..      BEQ      0x3dac ; st7789_set_ram_control + 52
        0x00003da2:    e7ff        ..      B        0x3da4 ; st7789_set_ram_control + 44
        0x00003da4:    a905        ..      ADD      r1,sp,#0x14
        0x00003da6:    2003        .       MOVS     r0,#3
        0x00003da8:    7008        .p      STRB     r0,[r1,#0]
        0x00003daa:    e02a        *.      B        0x3e02 ; st7789_set_ram_control + 138
        0x00003dac:    9804        ..      LDR      r0,[sp,#0x10]
        0x00003dae:    21b0        .!      MOVS     r1,#0xb0
        0x00003db0:    2200        ."      MOVS     r2,#0
        0x00003db2:    f7fdfdb9    ....    BL       a_st7789_write_byte ; 0x1928
        0x00003db6:    b120         .      CBZ      r0,0x3dc2 ; st7789_set_ram_control + 74
        0x00003db8:    e7ff        ..      B        0x3dba ; st7789_set_ram_control + 66
        0x00003dba:    a905        ..      ADD      r1,sp,#0x14
        0x00003dbc:    2001        .       MOVS     r0,#1
        0x00003dbe:    7008        .p      STRB     r0,[r1,#0]
        0x00003dc0:    e01f        ..      B        0x3e02 ; st7789_set_ram_control + 138
        0x00003dc2:    9803        ..      LDR      r0,[sp,#0xc]
        0x00003dc4:    0100        ..      LSLS     r0,r0,#4
        0x00003dc6:    9902        ..      LDR      r1,[sp,#8]
        0x00003dc8:    4308        .C      ORRS     r0,r0,r1
        0x00003dca:    4669        iF      MOV      r1,sp
        0x00003dcc:    7008        .p      STRB     r0,[r1,#0]
        0x00003dce:    9801        ..      LDR      r0,[sp,#4]
        0x00003dd0:    0100        ..      LSLS     r0,r0,#4
        0x00003dd2:    9a08        ..      LDR      r2,[sp,#0x20]
        0x00003dd4:    00d2        ..      LSLS     r2,r2,#3
        0x00003dd6:    4310        .C      ORRS     r0,r0,r2
        0x00003dd8:    9a09        ..      LDR      r2,[sp,#0x24]
        0x00003dda:    0092        ..      LSLS     r2,r2,#2
        0x00003ddc:    4310        .C      ORRS     r0,r0,r2
        0x00003dde:    9a0a        ..      LDR      r2,[sp,#0x28]
        0x00003de0:    4310        .C      ORRS     r0,r0,r2
        0x00003de2:    7048        Hp      STRB     r0,[r1,#1]
        0x00003de4:    9804        ..      LDR      r0,[sp,#0x10]
        0x00003de6:    2202        ."      MOVS     r2,#2
        0x00003de8:    2301        .#      MOVS     r3,#1
        0x00003dea:    f7fdfdc9    ....    BL       a_st7789_write_bytes ; 0x1980
        0x00003dee:    b120         .      CBZ      r0,0x3dfa ; st7789_set_ram_control + 130
        0x00003df0:    e7ff        ..      B        0x3df2 ; st7789_set_ram_control + 122
        0x00003df2:    a905        ..      ADD      r1,sp,#0x14
        0x00003df4:    2001        .       MOVS     r0,#1
        0x00003df6:    7008        .p      STRB     r0,[r1,#0]
        0x00003df8:    e003        ..      B        0x3e02 ; st7789_set_ram_control + 138
        0x00003dfa:    a905        ..      ADD      r1,sp,#0x14
        0x00003dfc:    2000        .       MOVS     r0,#0
        0x00003dfe:    7008        .p      STRB     r0,[r1,#0]
        0x00003e00:    e7ff        ..      B        0x3e02 ; st7789_set_ram_control + 138
        0x00003e02:    a805        ..      ADD      r0,sp,#0x14
        0x00003e04:    7800        .x      LDRB     r0,[r0,#0]
        0x00003e06:    b006        ..      ADD      sp,sp,#0x18
        0x00003e08:    bd10        ..      POP      {r4,pc}
    st7789_set_rgb_interface_control
        0x00003e0a:    b570        p.      PUSH     {r4-r6,lr}
        0x00003e0c:    b088        ..      SUB      sp,sp,#0x20
        0x00003e0e:    460c        .F      MOV      r4,r1
        0x00003e10:    4605        .F      MOV      r5,r0
        0x00003e12:    9810        ..      LDR      r0,[sp,#0x40]
        0x00003e14:    990f        ..      LDR      r1,[sp,#0x3c]
        0x00003e16:    9e0e        ..      LDR      r6,[sp,#0x38]
        0x00003e18:    9e0d        ..      LDR      r6,[sp,#0x34]
        0x00003e1a:    9e0c        ..      LDR      r6,[sp,#0x30]
        0x00003e1c:    9506        ..      STR      r5,[sp,#0x18]
        0x00003e1e:    9405        ..      STR      r4,[sp,#0x14]
        0x00003e20:    9204        ..      STR      r2,[sp,#0x10]
        0x00003e22:    9303        ..      STR      r3,[sp,#0xc]
        0x00003e24:    aa02        ..      ADD      r2,sp,#8
        0x00003e26:    7011        .p      STRB     r1,[r2,#0]
        0x00003e28:    a901        ..      ADD      r1,sp,#4
        0x00003e2a:    7008        .p      STRB     r0,[r1,#0]
        0x00003e2c:    9806        ..      LDR      r0,[sp,#0x18]
        0x00003e2e:    b920         .      CBNZ     r0,0x3e3a ; st7789_set_rgb_interface_control + 48
        0x00003e30:    e7ff        ..      B        0x3e32 ; st7789_set_rgb_interface_control + 40
        0x00003e32:    a907        ..      ADD      r1,sp,#0x1c
        0x00003e34:    2002        .       MOVS     r0,#2
        0x00003e36:    7008        .p      STRB     r0,[r1,#0]
        0x00003e38:    e051        Q.      B        0x3ede ; st7789_set_rgb_interface_control + 212
        0x00003e3a:    9806        ..      LDR      r0,[sp,#0x18]
        0x00003e3c:    212c        ,!      MOVS     r1,#0x2c
        0x00003e3e:    5c40        @\      LDRB     r0,[r0,r1]
        0x00003e40:    2801        .(      CMP      r0,#1
        0x00003e42:    d004        ..      BEQ      0x3e4e ; st7789_set_rgb_interface_control + 68
        0x00003e44:    e7ff        ..      B        0x3e46 ; st7789_set_rgb_interface_control + 60
        0x00003e46:    a907        ..      ADD      r1,sp,#0x1c
        0x00003e48:    2003        .       MOVS     r0,#3
        0x00003e4a:    7008        .p      STRB     r0,[r1,#0]
        0x00003e4c:    e047        G.      B        0x3ede ; st7789_set_rgb_interface_control + 212
        0x00003e4e:    a802        ..      ADD      r0,sp,#8
        0x00003e50:    7800        .x      LDRB     r0,[r0,#0]
        0x00003e52:    2880        .(      CMP      r0,#0x80
        0x00003e54:    db04        ..      BLT      0x3e60 ; st7789_set_rgb_interface_control + 86
        0x00003e56:    e7ff        ..      B        0x3e58 ; st7789_set_rgb_interface_control + 78
        0x00003e58:    a907        ..      ADD      r1,sp,#0x1c
        0x00003e5a:    2004        .       MOVS     r0,#4
        0x00003e5c:    7008        .p      STRB     r0,[r1,#0]
        0x00003e5e:    e03e        >.      B        0x3ede ; st7789_set_rgb_interface_control + 212
        0x00003e60:    a801        ..      ADD      r0,sp,#4
        0x00003e62:    7800        .x      LDRB     r0,[r0,#0]
        0x00003e64:    2820         (      CMP      r0,#0x20
        0x00003e66:    db04        ..      BLT      0x3e72 ; st7789_set_rgb_interface_control + 104
        0x00003e68:    e7ff        ..      B        0x3e6a ; st7789_set_rgb_interface_control + 96
        0x00003e6a:    a907        ..      ADD      r1,sp,#0x1c
        0x00003e6c:    2005        .       MOVS     r0,#5
        0x00003e6e:    7008        .p      STRB     r0,[r1,#0]
        0x00003e70:    e035        5.      B        0x3ede ; st7789_set_rgb_interface_control + 212
        0x00003e72:    9806        ..      LDR      r0,[sp,#0x18]
        0x00003e74:    21b1        .!      MOVS     r1,#0xb1
        0x00003e76:    2200        ."      MOVS     r2,#0
        0x00003e78:    f7fdfd56    ..V.    BL       a_st7789_write_byte ; 0x1928
        0x00003e7c:    b120         .      CBZ      r0,0x3e88 ; st7789_set_rgb_interface_control + 126
        0x00003e7e:    e7ff        ..      B        0x3e80 ; st7789_set_rgb_interface_control + 118
        0x00003e80:    a907        ..      ADD      r1,sp,#0x1c
        0x00003e82:    2001        .       MOVS     r0,#1
        0x00003e84:    7008        .p      STRB     r0,[r1,#0]
        0x00003e86:    e02a        *.      B        0x3ede ; st7789_set_rgb_interface_control + 212
        0x00003e88:    9805        ..      LDR      r0,[sp,#0x14]
        0x00003e8a:    01c0        ..      LSLS     r0,r0,#7
        0x00003e8c:    9904        ..      LDR      r1,[sp,#0x10]
        0x00003e8e:    0149        I.      LSLS     r1,r1,#5
        0x00003e90:    4308        .C      ORRS     r0,r0,r1
        0x00003e92:    9903        ..      LDR      r1,[sp,#0xc]
        0x00003e94:    00c9        ..      LSLS     r1,r1,#3
        0x00003e96:    4308        .C      ORRS     r0,r0,r1
        0x00003e98:    990c        ..      LDR      r1,[sp,#0x30]
        0x00003e9a:    0089        ..      LSLS     r1,r1,#2
        0x00003e9c:    4308        .C      ORRS     r0,r0,r1
        0x00003e9e:    990d        ..      LDR      r1,[sp,#0x34]
        0x00003ea0:    0049        I.      LSLS     r1,r1,#1
        0x00003ea2:    4308        .C      ORRS     r0,r0,r1
        0x00003ea4:    990e        ..      LDR      r1,[sp,#0x38]
        0x00003ea6:    4308        .C      ORRS     r0,r0,r1
        0x00003ea8:    4669        iF      MOV      r1,sp
        0x00003eaa:    7008        .p      STRB     r0,[r1,#0]
        0x00003eac:    a802        ..      ADD      r0,sp,#8
        0x00003eae:    7800        .x      LDRB     r0,[r0,#0]
        0x00003eb0:    227f        ."      MOVS     r2,#0x7f
        0x00003eb2:    4010        .@      ANDS     r0,r0,r2
        0x00003eb4:    7048        Hp      STRB     r0,[r1,#1]
        0x00003eb6:    a801        ..      ADD      r0,sp,#4
        0x00003eb8:    7800        .x      LDRB     r0,[r0,#0]
        0x00003eba:    221f        ."      MOVS     r2,#0x1f
        0x00003ebc:    4010        .@      ANDS     r0,r0,r2
        0x00003ebe:    7088        .p      STRB     r0,[r1,#2]
        0x00003ec0:    9806        ..      LDR      r0,[sp,#0x18]
        0x00003ec2:    2203        ."      MOVS     r2,#3
        0x00003ec4:    2301        .#      MOVS     r3,#1
        0x00003ec6:    f7fdfd5b    ..[.    BL       a_st7789_write_bytes ; 0x1980
        0x00003eca:    b120         .      CBZ      r0,0x3ed6 ; st7789_set_rgb_interface_control + 204
        0x00003ecc:    e7ff        ..      B        0x3ece ; st7789_set_rgb_interface_control + 196
        0x00003ece:    a907        ..      ADD      r1,sp,#0x1c
        0x00003ed0:    2001        .       MOVS     r0,#1
        0x00003ed2:    7008        .p      STRB     r0,[r1,#0]
        0x00003ed4:    e003        ..      B        0x3ede ; st7789_set_rgb_interface_control + 212
        0x00003ed6:    a907        ..      ADD      r1,sp,#0x1c
        0x00003ed8:    2000        .       MOVS     r0,#0
        0x00003eda:    7008        .p      STRB     r0,[r1,#0]
        0x00003edc:    e7ff        ..      B        0x3ede ; st7789_set_rgb_interface_control + 212
        0x00003ede:    a807        ..      ADD      r0,sp,#0x1c
        0x00003ee0:    7800        .x      LDRB     r0,[r0,#0]
        0x00003ee2:    b008        ..      ADD      sp,sp,#0x20
        0x00003ee4:    bd70        p.      POP      {r4-r6,pc}
    st7789_set_row
        0x00003ee6:    b083        ..      SUB      sp,sp,#0xc
        0x00003ee8:    9001        ..      STR      r0,[sp,#4]
        0x00003eea:    4668        hF      MOV      r0,sp
        0x00003eec:    8001        ..      STRH     r1,[r0,#0]
        0x00003eee:    9801        ..      LDR      r0,[sp,#4]
        0x00003ef0:    b920         .      CBNZ     r0,0x3efc ; st7789_set_row + 22
        0x00003ef2:    e7ff        ..      B        0x3ef4 ; st7789_set_row + 14
        0x00003ef4:    a902        ..      ADD      r1,sp,#8
        0x00003ef6:    2002        .       MOVS     r0,#2
        0x00003ef8:    7008        .p      STRB     r0,[r1,#0]
        0x00003efa:    e01b        ..      B        0x3f34 ; st7789_set_row + 78
        0x00003efc:    9801        ..      LDR      r0,[sp,#4]
        0x00003efe:    212c        ,!      MOVS     r1,#0x2c
        0x00003f00:    5c40        @\      LDRB     r0,[r0,r1]
        0x00003f02:    2801        .(      CMP      r0,#1
        0x00003f04:    d004        ..      BEQ      0x3f10 ; st7789_set_row + 42
        0x00003f06:    e7ff        ..      B        0x3f08 ; st7789_set_row + 34
        0x00003f08:    a902        ..      ADD      r1,sp,#8
        0x00003f0a:    2003        .       MOVS     r0,#3
        0x00003f0c:    7008        .p      STRB     r0,[r1,#0]
        0x00003f0e:    e011        ..      B        0x3f34 ; st7789_set_row + 78
        0x00003f10:    4668        hF      MOV      r0,sp
        0x00003f12:    8800        ..      LDRH     r0,[r0,#0]
        0x00003f14:    f2401141    @.A.    MOV      r1,#0x141
        0x00003f18:    4288        .B      CMP      r0,r1
        0x00003f1a:    db04        ..      BLT      0x3f26 ; st7789_set_row + 64
        0x00003f1c:    e7ff        ..      B        0x3f1e ; st7789_set_row + 56
        0x00003f1e:    a902        ..      ADD      r1,sp,#8
        0x00003f20:    2004        .       MOVS     r0,#4
        0x00003f22:    7008        .p      STRB     r0,[r1,#0]
        0x00003f24:    e006        ..      B        0x3f34 ; st7789_set_row + 78
        0x00003f26:    9800        ..      LDR      r0,[sp,#0]
        0x00003f28:    9901        ..      LDR      r1,[sp,#4]
        0x00003f2a:    8608        ..      STRH     r0,[r1,#0x30]
        0x00003f2c:    a902        ..      ADD      r1,sp,#8
        0x00003f2e:    2000        .       MOVS     r0,#0
        0x00003f30:    7008        .p      STRB     r0,[r1,#0]
        0x00003f32:    e7ff        ..      B        0x3f34 ; st7789_set_row + 78
        0x00003f34:    a802        ..      ADD      r0,sp,#8
        0x00003f36:    7800        .x      LDRB     r0,[r0,#0]
        0x00003f38:    b003        ..      ADD      sp,sp,#0xc
        0x00003f3a:    4770        pG      BX       lr
    st7789_set_spi2_enable
        0x00003f3c:    b580        ..      PUSH     {r7,lr}
        0x00003f3e:    b086        ..      SUB      sp,sp,#0x18
        0x00003f40:    9004        ..      STR      r0,[sp,#0x10]
        0x00003f42:    9103        ..      STR      r1,[sp,#0xc]
        0x00003f44:    9202        ..      STR      r2,[sp,#8]
        0x00003f46:    9804        ..      LDR      r0,[sp,#0x10]
        0x00003f48:    b920         .      CBNZ     r0,0x3f54 ; st7789_set_spi2_enable + 24
        0x00003f4a:    e7ff        ..      B        0x3f4c ; st7789_set_spi2_enable + 16
        0x00003f4c:    a905        ..      ADD      r1,sp,#0x14
        0x00003f4e:    2002        .       MOVS     r0,#2
        0x00003f50:    7008        .p      STRB     r0,[r1,#0]
        0x00003f52:    e029        ).      B        0x3fa8 ; st7789_set_spi2_enable + 108
        0x00003f54:    9804        ..      LDR      r0,[sp,#0x10]
        0x00003f56:    212c        ,!      MOVS     r1,#0x2c
        0x00003f58:    5c40        @\      LDRB     r0,[r0,r1]
        0x00003f5a:    2801        .(      CMP      r0,#1
        0x00003f5c:    d004        ..      BEQ      0x3f68 ; st7789_set_spi2_enable + 44
        0x00003f5e:    e7ff        ..      B        0x3f60 ; st7789_set_spi2_enable + 36
        0x00003f60:    a905        ..      ADD      r1,sp,#0x14
        0x00003f62:    2003        .       MOVS     r0,#3
        0x00003f64:    7008        .p      STRB     r0,[r1,#0]
        0x00003f66:    e01f        ..      B        0x3fa8 ; st7789_set_spi2_enable + 108
        0x00003f68:    9804        ..      LDR      r0,[sp,#0x10]
        0x00003f6a:    21e7        .!      MOVS     r1,#0xe7
        0x00003f6c:    2200        ."      MOVS     r2,#0
        0x00003f6e:    f7fdfcdb    ....    BL       a_st7789_write_byte ; 0x1928
        0x00003f72:    b120         .      CBZ      r0,0x3f7e ; st7789_set_spi2_enable + 66
        0x00003f74:    e7ff        ..      B        0x3f76 ; st7789_set_spi2_enable + 58
        0x00003f76:    a905        ..      ADD      r1,sp,#0x14
        0x00003f78:    2001        .       MOVS     r0,#1
        0x00003f7a:    7008        .p      STRB     r0,[r1,#0]
        0x00003f7c:    e014        ..      B        0x3fa8 ; st7789_set_spi2_enable + 108
        0x00003f7e:    9803        ..      LDR      r0,[sp,#0xc]
        0x00003f80:    0100        ..      LSLS     r0,r0,#4
        0x00003f82:    9902        ..      LDR      r1,[sp,#8]
        0x00003f84:    4308        .C      ORRS     r0,r0,r1
        0x00003f86:    a901        ..      ADD      r1,sp,#4
        0x00003f88:    7008        .p      STRB     r0,[r1,#0]
        0x00003f8a:    9804        ..      LDR      r0,[sp,#0x10]
        0x00003f8c:    7809        .x      LDRB     r1,[r1,#0]
        0x00003f8e:    2201        ."      MOVS     r2,#1
        0x00003f90:    f7fdfcca    ....    BL       a_st7789_write_byte ; 0x1928
        0x00003f94:    b120         .      CBZ      r0,0x3fa0 ; st7789_set_spi2_enable + 100
        0x00003f96:    e7ff        ..      B        0x3f98 ; st7789_set_spi2_enable + 92
        0x00003f98:    a905        ..      ADD      r1,sp,#0x14
        0x00003f9a:    2001        .       MOVS     r0,#1
        0x00003f9c:    7008        .p      STRB     r0,[r1,#0]
        0x00003f9e:    e003        ..      B        0x3fa8 ; st7789_set_spi2_enable + 108
        0x00003fa0:    a905        ..      ADD      r1,sp,#0x14
        0x00003fa2:    2000        .       MOVS     r0,#0
        0x00003fa4:    7008        .p      STRB     r0,[r1,#0]
        0x00003fa6:    e7ff        ..      B        0x3fa8 ; st7789_set_spi2_enable + 108
        0x00003fa8:    a805        ..      ADD      r0,sp,#0x14
        0x00003faa:    7800        .x      LDRB     r0,[r0,#0]
        0x00003fac:    b006        ..      ADD      sp,sp,#0x18
        0x00003fae:    bd80        ..      POP      {r7,pc}
    st7789_set_vcoms
        0x00003fb0:    b580        ..      PUSH     {r7,lr}
        0x00003fb2:    b084        ..      SUB      sp,sp,#0x10
        0x00003fb4:    9002        ..      STR      r0,[sp,#8]
        0x00003fb6:    a801        ..      ADD      r0,sp,#4
        0x00003fb8:    7001        .p      STRB     r1,[r0,#0]
        0x00003fba:    9802        ..      LDR      r0,[sp,#8]
        0x00003fbc:    b920         .      CBNZ     r0,0x3fc8 ; st7789_set_vcoms + 24
        0x00003fbe:    e7ff        ..      B        0x3fc0 ; st7789_set_vcoms + 16
        0x00003fc0:    a903        ..      ADD      r1,sp,#0xc
        0x00003fc2:    2002        .       MOVS     r0,#2
        0x00003fc4:    7008        .p      STRB     r0,[r1,#0]
        0x00003fc6:    e032        2.      B        0x402e ; st7789_set_vcoms + 126
        0x00003fc8:    9802        ..      LDR      r0,[sp,#8]
        0x00003fca:    212c        ,!      MOVS     r1,#0x2c
        0x00003fcc:    5c40        @\      LDRB     r0,[r0,r1]
        0x00003fce:    2801        .(      CMP      r0,#1
        0x00003fd0:    d004        ..      BEQ      0x3fdc ; st7789_set_vcoms + 44
        0x00003fd2:    e7ff        ..      B        0x3fd4 ; st7789_set_vcoms + 36
        0x00003fd4:    a903        ..      ADD      r1,sp,#0xc
        0x00003fd6:    2003        .       MOVS     r0,#3
        0x00003fd8:    7008        .p      STRB     r0,[r1,#0]
        0x00003fda:    e028        (.      B        0x402e ; st7789_set_vcoms + 126
        0x00003fdc:    a801        ..      ADD      r0,sp,#4
        0x00003fde:    7800        .x      LDRB     r0,[r0,#0]
        0x00003fe0:    2840        @(      CMP      r0,#0x40
        0x00003fe2:    db04        ..      BLT      0x3fee ; st7789_set_vcoms + 62
        0x00003fe4:    e7ff        ..      B        0x3fe6 ; st7789_set_vcoms + 54
        0x00003fe6:    a903        ..      ADD      r1,sp,#0xc
        0x00003fe8:    2004        .       MOVS     r0,#4
        0x00003fea:    7008        .p      STRB     r0,[r1,#0]
        0x00003fec:    e01f        ..      B        0x402e ; st7789_set_vcoms + 126
        0x00003fee:    9802        ..      LDR      r0,[sp,#8]
        0x00003ff0:    21bb        .!      MOVS     r1,#0xbb
        0x00003ff2:    2200        ."      MOVS     r2,#0
        0x00003ff4:    f7fdfc98    ....    BL       a_st7789_write_byte ; 0x1928
        0x00003ff8:    b120         .      CBZ      r0,0x4004 ; st7789_set_vcoms + 84
        0x00003ffa:    e7ff        ..      B        0x3ffc ; st7789_set_vcoms + 76
        0x00003ffc:    a903        ..      ADD      r1,sp,#0xc
        0x00003ffe:    2001        .       MOVS     r0,#1
        0x00004000:    7008        .p      STRB     r0,[r1,#0]
        0x00004002:    e014        ..      B        0x402e ; st7789_set_vcoms + 126
        0x00004004:    a801        ..      ADD      r0,sp,#4
        0x00004006:    7800        .x      LDRB     r0,[r0,#0]
        0x00004008:    213f        ?!      MOVS     r1,#0x3f
        0x0000400a:    4008        .@      ANDS     r0,r0,r1
        0x0000400c:    4669        iF      MOV      r1,sp
        0x0000400e:    7008        .p      STRB     r0,[r1,#0]
        0x00004010:    9802        ..      LDR      r0,[sp,#8]
        0x00004012:    7809        .x      LDRB     r1,[r1,#0]
        0x00004014:    2201        ."      MOVS     r2,#1
        0x00004016:    f7fdfc87    ....    BL       a_st7789_write_byte ; 0x1928
        0x0000401a:    b120         .      CBZ      r0,0x4026 ; st7789_set_vcoms + 118
        0x0000401c:    e7ff        ..      B        0x401e ; st7789_set_vcoms + 110
        0x0000401e:    a903        ..      ADD      r1,sp,#0xc
        0x00004020:    2001        .       MOVS     r0,#1
        0x00004022:    7008        .p      STRB     r0,[r1,#0]
        0x00004024:    e003        ..      B        0x402e ; st7789_set_vcoms + 126
        0x00004026:    a903        ..      ADD      r1,sp,#0xc
        0x00004028:    2000        .       MOVS     r0,#0
        0x0000402a:    7008        .p      STRB     r0,[r1,#0]
        0x0000402c:    e7ff        ..      B        0x402e ; st7789_set_vcoms + 126
        0x0000402e:    a803        ..      ADD      r0,sp,#0xc
        0x00004030:    7800        .x      LDRB     r0,[r0,#0]
        0x00004032:    b004        ..      ADD      sp,sp,#0x10
        0x00004034:    bd80        ..      POP      {r7,pc}
    st7789_set_vcoms_offset
        0x00004036:    b580        ..      PUSH     {r7,lr}
        0x00004038:    b084        ..      SUB      sp,sp,#0x10
        0x0000403a:    9002        ..      STR      r0,[sp,#8]
        0x0000403c:    a801        ..      ADD      r0,sp,#4
        0x0000403e:    7001        .p      STRB     r1,[r0,#0]
        0x00004040:    9802        ..      LDR      r0,[sp,#8]
        0x00004042:    b920         .      CBNZ     r0,0x404e ; st7789_set_vcoms_offset + 24
        0x00004044:    e7ff        ..      B        0x4046 ; st7789_set_vcoms_offset + 16
        0x00004046:    a903        ..      ADD      r1,sp,#0xc
        0x00004048:    2002        .       MOVS     r0,#2
        0x0000404a:    7008        .p      STRB     r0,[r1,#0]
        0x0000404c:    e032        2.      B        0x40b4 ; st7789_set_vcoms_offset + 126
        0x0000404e:    9802        ..      LDR      r0,[sp,#8]
        0x00004050:    212c        ,!      MOVS     r1,#0x2c
        0x00004052:    5c40        @\      LDRB     r0,[r0,r1]
        0x00004054:    2801        .(      CMP      r0,#1
        0x00004056:    d004        ..      BEQ      0x4062 ; st7789_set_vcoms_offset + 44
        0x00004058:    e7ff        ..      B        0x405a ; st7789_set_vcoms_offset + 36
        0x0000405a:    a903        ..      ADD      r1,sp,#0xc
        0x0000405c:    2003        .       MOVS     r0,#3
        0x0000405e:    7008        .p      STRB     r0,[r1,#0]
        0x00004060:    e028        (.      B        0x40b4 ; st7789_set_vcoms_offset + 126
        0x00004062:    a801        ..      ADD      r0,sp,#4
        0x00004064:    7800        .x      LDRB     r0,[r0,#0]
        0x00004066:    2840        @(      CMP      r0,#0x40
        0x00004068:    db04        ..      BLT      0x4074 ; st7789_set_vcoms_offset + 62
        0x0000406a:    e7ff        ..      B        0x406c ; st7789_set_vcoms_offset + 54
        0x0000406c:    a903        ..      ADD      r1,sp,#0xc
        0x0000406e:    2004        .       MOVS     r0,#4
        0x00004070:    7008        .p      STRB     r0,[r1,#0]
        0x00004072:    e01f        ..      B        0x40b4 ; st7789_set_vcoms_offset + 126
        0x00004074:    9802        ..      LDR      r0,[sp,#8]
        0x00004076:    21c5        .!      MOVS     r1,#0xc5
        0x00004078:    2200        ."      MOVS     r2,#0
        0x0000407a:    f7fdfc55    ..U.    BL       a_st7789_write_byte ; 0x1928
        0x0000407e:    b120         .      CBZ      r0,0x408a ; st7789_set_vcoms_offset + 84
        0x00004080:    e7ff        ..      B        0x4082 ; st7789_set_vcoms_offset + 76
        0x00004082:    a903        ..      ADD      r1,sp,#0xc
        0x00004084:    2001        .       MOVS     r0,#1
        0x00004086:    7008        .p      STRB     r0,[r1,#0]
        0x00004088:    e014        ..      B        0x40b4 ; st7789_set_vcoms_offset + 126
        0x0000408a:    a801        ..      ADD      r0,sp,#4
        0x0000408c:    7800        .x      LDRB     r0,[r0,#0]
        0x0000408e:    213f        ?!      MOVS     r1,#0x3f
        0x00004090:    4008        .@      ANDS     r0,r0,r1
        0x00004092:    4669        iF      MOV      r1,sp
        0x00004094:    7008        .p      STRB     r0,[r1,#0]
        0x00004096:    9802        ..      LDR      r0,[sp,#8]
        0x00004098:    7809        .x      LDRB     r1,[r1,#0]
        0x0000409a:    2201        ."      MOVS     r2,#1
        0x0000409c:    f7fdfc44    ..D.    BL       a_st7789_write_byte ; 0x1928
        0x000040a0:    b120         .      CBZ      r0,0x40ac ; st7789_set_vcoms_offset + 118
        0x000040a2:    e7ff        ..      B        0x40a4 ; st7789_set_vcoms_offset + 110
        0x000040a4:    a903        ..      ADD      r1,sp,#0xc
        0x000040a6:    2001        .       MOVS     r0,#1
        0x000040a8:    7008        .p      STRB     r0,[r1,#0]
        0x000040aa:    e003        ..      B        0x40b4 ; st7789_set_vcoms_offset + 126
        0x000040ac:    a903        ..      ADD      r1,sp,#0xc
        0x000040ae:    2000        .       MOVS     r0,#0
        0x000040b0:    7008        .p      STRB     r0,[r1,#0]
        0x000040b2:    e7ff        ..      B        0x40b4 ; st7789_set_vcoms_offset + 126
        0x000040b4:    a803        ..      ADD      r0,sp,#0xc
        0x000040b6:    7800        .x      LDRB     r0,[r0,#0]
        0x000040b8:    b004        ..      ADD      sp,sp,#0x10
        0x000040ba:    bd80        ..      POP      {r7,pc}
    st7789_set_vdv
        0x000040bc:    b580        ..      PUSH     {r7,lr}
        0x000040be:    b084        ..      SUB      sp,sp,#0x10
        0x000040c0:    9002        ..      STR      r0,[sp,#8]
        0x000040c2:    a801        ..      ADD      r0,sp,#4
        0x000040c4:    7001        .p      STRB     r1,[r0,#0]
        0x000040c6:    9802        ..      LDR      r0,[sp,#8]
        0x000040c8:    b920         .      CBNZ     r0,0x40d4 ; st7789_set_vdv + 24
        0x000040ca:    e7ff        ..      B        0x40cc ; st7789_set_vdv + 16
        0x000040cc:    a903        ..      ADD      r1,sp,#0xc
        0x000040ce:    2002        .       MOVS     r0,#2
        0x000040d0:    7008        .p      STRB     r0,[r1,#0]
        0x000040d2:    e032        2.      B        0x413a ; st7789_set_vdv + 126
        0x000040d4:    9802        ..      LDR      r0,[sp,#8]
        0x000040d6:    212c        ,!      MOVS     r1,#0x2c
        0x000040d8:    5c40        @\      LDRB     r0,[r0,r1]
        0x000040da:    2801        .(      CMP      r0,#1
        0x000040dc:    d004        ..      BEQ      0x40e8 ; st7789_set_vdv + 44
        0x000040de:    e7ff        ..      B        0x40e0 ; st7789_set_vdv + 36
        0x000040e0:    a903        ..      ADD      r1,sp,#0xc
        0x000040e2:    2003        .       MOVS     r0,#3
        0x000040e4:    7008        .p      STRB     r0,[r1,#0]
        0x000040e6:    e028        (.      B        0x413a ; st7789_set_vdv + 126
        0x000040e8:    a801        ..      ADD      r0,sp,#4
        0x000040ea:    7800        .x      LDRB     r0,[r0,#0]
        0x000040ec:    2840        @(      CMP      r0,#0x40
        0x000040ee:    db04        ..      BLT      0x40fa ; st7789_set_vdv + 62
        0x000040f0:    e7ff        ..      B        0x40f2 ; st7789_set_vdv + 54
        0x000040f2:    a903        ..      ADD      r1,sp,#0xc
        0x000040f4:    2004        .       MOVS     r0,#4
        0x000040f6:    7008        .p      STRB     r0,[r1,#0]
        0x000040f8:    e01f        ..      B        0x413a ; st7789_set_vdv + 126
        0x000040fa:    9802        ..      LDR      r0,[sp,#8]
        0x000040fc:    21c4        .!      MOVS     r1,#0xc4
        0x000040fe:    2200        ."      MOVS     r2,#0
        0x00004100:    f7fdfc12    ....    BL       a_st7789_write_byte ; 0x1928
        0x00004104:    b120         .      CBZ      r0,0x4110 ; st7789_set_vdv + 84
        0x00004106:    e7ff        ..      B        0x4108 ; st7789_set_vdv + 76
        0x00004108:    a903        ..      ADD      r1,sp,#0xc
        0x0000410a:    2001        .       MOVS     r0,#1
        0x0000410c:    7008        .p      STRB     r0,[r1,#0]
        0x0000410e:    e014        ..      B        0x413a ; st7789_set_vdv + 126
        0x00004110:    a801        ..      ADD      r0,sp,#4
        0x00004112:    7800        .x      LDRB     r0,[r0,#0]
        0x00004114:    213f        ?!      MOVS     r1,#0x3f
        0x00004116:    4008        .@      ANDS     r0,r0,r1
        0x00004118:    4669        iF      MOV      r1,sp
        0x0000411a:    7008        .p      STRB     r0,[r1,#0]
        0x0000411c:    9802        ..      LDR      r0,[sp,#8]
        0x0000411e:    7809        .x      LDRB     r1,[r1,#0]
        0x00004120:    2201        ."      MOVS     r2,#1
        0x00004122:    f7fdfc01    ....    BL       a_st7789_write_byte ; 0x1928
        0x00004126:    b120         .      CBZ      r0,0x4132 ; st7789_set_vdv + 118
        0x00004128:    e7ff        ..      B        0x412a ; st7789_set_vdv + 110
        0x0000412a:    a903        ..      ADD      r1,sp,#0xc
        0x0000412c:    2001        .       MOVS     r0,#1
        0x0000412e:    7008        .p      STRB     r0,[r1,#0]
        0x00004130:    e003        ..      B        0x413a ; st7789_set_vdv + 126
        0x00004132:    a903        ..      ADD      r1,sp,#0xc
        0x00004134:    2000        .       MOVS     r0,#0
        0x00004136:    7008        .p      STRB     r0,[r1,#0]
        0x00004138:    e7ff        ..      B        0x413a ; st7789_set_vdv + 126
        0x0000413a:    a803        ..      ADD      r0,sp,#0xc
        0x0000413c:    7800        .x      LDRB     r0,[r0,#0]
        0x0000413e:    b004        ..      ADD      sp,sp,#0x10
        0x00004140:    bd80        ..      POP      {r7,pc}
    st7789_set_vdv_vrh_from
        0x00004142:    b580        ..      PUSH     {r7,lr}
        0x00004144:    b084        ..      SUB      sp,sp,#0x10
        0x00004146:    9002        ..      STR      r0,[sp,#8]
        0x00004148:    9101        ..      STR      r1,[sp,#4]
        0x0000414a:    9802        ..      LDR      r0,[sp,#8]
        0x0000414c:    b920         .      CBNZ     r0,0x4158 ; st7789_set_vdv_vrh_from + 22
        0x0000414e:    e7ff        ..      B        0x4150 ; st7789_set_vdv_vrh_from + 14
        0x00004150:    a903        ..      ADD      r1,sp,#0xc
        0x00004152:    2002        .       MOVS     r0,#2
        0x00004154:    7008        .p      STRB     r0,[r1,#0]
        0x00004156:    e028        (.      B        0x41aa ; st7789_set_vdv_vrh_from + 104
        0x00004158:    9802        ..      LDR      r0,[sp,#8]
        0x0000415a:    212c        ,!      MOVS     r1,#0x2c
        0x0000415c:    5c40        @\      LDRB     r0,[r0,r1]
        0x0000415e:    2801        .(      CMP      r0,#1
        0x00004160:    d004        ..      BEQ      0x416c ; st7789_set_vdv_vrh_from + 42
        0x00004162:    e7ff        ..      B        0x4164 ; st7789_set_vdv_vrh_from + 34
        0x00004164:    a903        ..      ADD      r1,sp,#0xc
        0x00004166:    2003        .       MOVS     r0,#3
        0x00004168:    7008        .p      STRB     r0,[r1,#0]
        0x0000416a:    e01e        ..      B        0x41aa ; st7789_set_vdv_vrh_from + 104
        0x0000416c:    9802        ..      LDR      r0,[sp,#8]
        0x0000416e:    21c2        .!      MOVS     r1,#0xc2
        0x00004170:    2200        ."      MOVS     r2,#0
        0x00004172:    f7fdfbd9    ....    BL       a_st7789_write_byte ; 0x1928
        0x00004176:    b120         .      CBZ      r0,0x4182 ; st7789_set_vdv_vrh_from + 64
        0x00004178:    e7ff        ..      B        0x417a ; st7789_set_vdv_vrh_from + 56
        0x0000417a:    a903        ..      ADD      r1,sp,#0xc
        0x0000417c:    2001        .       MOVS     r0,#1
        0x0000417e:    7008        .p      STRB     r0,[r1,#0]
        0x00004180:    e013        ..      B        0x41aa ; st7789_set_vdv_vrh_from + 104
        0x00004182:    9801        ..      LDR      r0,[sp,#4]
        0x00004184:    4669        iF      MOV      r1,sp
        0x00004186:    7008        .p      STRB     r0,[r1,#0]
        0x00004188:    20ff        .       MOVS     r0,#0xff
        0x0000418a:    7048        Hp      STRB     r0,[r1,#1]
        0x0000418c:    9802        ..      LDR      r0,[sp,#8]
        0x0000418e:    2202        ."      MOVS     r2,#2
        0x00004190:    2301        .#      MOVS     r3,#1
        0x00004192:    f7fdfbf5    ....    BL       a_st7789_write_bytes ; 0x1980
        0x00004196:    b120         .      CBZ      r0,0x41a2 ; st7789_set_vdv_vrh_from + 96
        0x00004198:    e7ff        ..      B        0x419a ; st7789_set_vdv_vrh_from + 88
        0x0000419a:    a903        ..      ADD      r1,sp,#0xc
        0x0000419c:    2001        .       MOVS     r0,#1
        0x0000419e:    7008        .p      STRB     r0,[r1,#0]
        0x000041a0:    e003        ..      B        0x41aa ; st7789_set_vdv_vrh_from + 104
        0x000041a2:    a903        ..      ADD      r1,sp,#0xc
        0x000041a4:    2000        .       MOVS     r0,#0
        0x000041a6:    7008        .p      STRB     r0,[r1,#0]
        0x000041a8:    e7ff        ..      B        0x41aa ; st7789_set_vdv_vrh_from + 104
        0x000041aa:    a803        ..      ADD      r0,sp,#0xc
        0x000041ac:    7800        .x      LDRB     r0,[r0,#0]
        0x000041ae:    b004        ..      ADD      sp,sp,#0x10
        0x000041b0:    bd80        ..      POP      {r7,pc}
    st7789_set_vrhs
        0x000041b2:    b580        ..      PUSH     {r7,lr}
        0x000041b4:    b084        ..      SUB      sp,sp,#0x10
        0x000041b6:    9002        ..      STR      r0,[sp,#8]
        0x000041b8:    a801        ..      ADD      r0,sp,#4
        0x000041ba:    7001        .p      STRB     r1,[r0,#0]
        0x000041bc:    9802        ..      LDR      r0,[sp,#8]
        0x000041be:    b920         .      CBNZ     r0,0x41ca ; st7789_set_vrhs + 24
        0x000041c0:    e7ff        ..      B        0x41c2 ; st7789_set_vrhs + 16
        0x000041c2:    a903        ..      ADD      r1,sp,#0xc
        0x000041c4:    2002        .       MOVS     r0,#2
        0x000041c6:    7008        .p      STRB     r0,[r1,#0]
        0x000041c8:    e032        2.      B        0x4230 ; st7789_set_vrhs + 126
        0x000041ca:    9802        ..      LDR      r0,[sp,#8]
        0x000041cc:    212c        ,!      MOVS     r1,#0x2c
        0x000041ce:    5c40        @\      LDRB     r0,[r0,r1]
        0x000041d0:    2801        .(      CMP      r0,#1
        0x000041d2:    d004        ..      BEQ      0x41de ; st7789_set_vrhs + 44
        0x000041d4:    e7ff        ..      B        0x41d6 ; st7789_set_vrhs + 36
        0x000041d6:    a903        ..      ADD      r1,sp,#0xc
        0x000041d8:    2003        .       MOVS     r0,#3
        0x000041da:    7008        .p      STRB     r0,[r1,#0]
        0x000041dc:    e028        (.      B        0x4230 ; st7789_set_vrhs + 126
        0x000041de:    a801        ..      ADD      r0,sp,#4
        0x000041e0:    7800        .x      LDRB     r0,[r0,#0]
        0x000041e2:    2828        ((      CMP      r0,#0x28
        0x000041e4:    db04        ..      BLT      0x41f0 ; st7789_set_vrhs + 62
        0x000041e6:    e7ff        ..      B        0x41e8 ; st7789_set_vrhs + 54
        0x000041e8:    a903        ..      ADD      r1,sp,#0xc
        0x000041ea:    2004        .       MOVS     r0,#4
        0x000041ec:    7008        .p      STRB     r0,[r1,#0]
        0x000041ee:    e01f        ..      B        0x4230 ; st7789_set_vrhs + 126
        0x000041f0:    9802        ..      LDR      r0,[sp,#8]
        0x000041f2:    21c3        .!      MOVS     r1,#0xc3
        0x000041f4:    2200        ."      MOVS     r2,#0
        0x000041f6:    f7fdfb97    ....    BL       a_st7789_write_byte ; 0x1928
        0x000041fa:    b120         .      CBZ      r0,0x4206 ; st7789_set_vrhs + 84
        0x000041fc:    e7ff        ..      B        0x41fe ; st7789_set_vrhs + 76
        0x000041fe:    a903        ..      ADD      r1,sp,#0xc
        0x00004200:    2001        .       MOVS     r0,#1
        0x00004202:    7008        .p      STRB     r0,[r1,#0]
        0x00004204:    e014        ..      B        0x4230 ; st7789_set_vrhs + 126
        0x00004206:    a801        ..      ADD      r0,sp,#4
        0x00004208:    7800        .x      LDRB     r0,[r0,#0]
        0x0000420a:    213f        ?!      MOVS     r1,#0x3f
        0x0000420c:    4008        .@      ANDS     r0,r0,r1
        0x0000420e:    4669        iF      MOV      r1,sp
        0x00004210:    7008        .p      STRB     r0,[r1,#0]
        0x00004212:    9802        ..      LDR      r0,[sp,#8]
        0x00004214:    7809        .x      LDRB     r1,[r1,#0]
        0x00004216:    2201        ."      MOVS     r2,#1
        0x00004218:    f7fdfb86    ....    BL       a_st7789_write_byte ; 0x1928
        0x0000421c:    b120         .      CBZ      r0,0x4228 ; st7789_set_vrhs + 118
        0x0000421e:    e7ff        ..      B        0x4220 ; st7789_set_vrhs + 110
        0x00004220:    a903        ..      ADD      r1,sp,#0xc
        0x00004222:    2001        .       MOVS     r0,#1
        0x00004224:    7008        .p      STRB     r0,[r1,#0]
        0x00004226:    e003        ..      B        0x4230 ; st7789_set_vrhs + 126
        0x00004228:    a903        ..      ADD      r1,sp,#0xc
        0x0000422a:    2000        .       MOVS     r0,#0
        0x0000422c:    7008        .p      STRB     r0,[r1,#0]
        0x0000422e:    e7ff        ..      B        0x4230 ; st7789_set_vrhs + 126
        0x00004230:    a803        ..      ADD      r0,sp,#0xc
        0x00004232:    7800        .x      LDRB     r0,[r0,#0]
        0x00004234:    b004        ..      ADD      sp,sp,#0x10
        0x00004236:    bd80        ..      POP      {r7,pc}
    st7789_sleep_out
        0x00004238:    b580        ..      PUSH     {r7,lr}
        0x0000423a:    b082        ..      SUB      sp,sp,#8
        0x0000423c:    9000        ..      STR      r0,[sp,#0]
        0x0000423e:    9800        ..      LDR      r0,[sp,#0]
        0x00004240:    b920         .      CBNZ     r0,0x424c ; st7789_sleep_out + 20
        0x00004242:    e7ff        ..      B        0x4244 ; st7789_sleep_out + 12
        0x00004244:    a901        ..      ADD      r1,sp,#4
        0x00004246:    2002        .       MOVS     r0,#2
        0x00004248:    7008        .p      STRB     r0,[r1,#0]
        0x0000424a:    e01c        ..      B        0x4286 ; st7789_sleep_out + 78
        0x0000424c:    9800        ..      LDR      r0,[sp,#0]
        0x0000424e:    212c        ,!      MOVS     r1,#0x2c
        0x00004250:    5c40        @\      LDRB     r0,[r0,r1]
        0x00004252:    2801        .(      CMP      r0,#1
        0x00004254:    d004        ..      BEQ      0x4260 ; st7789_sleep_out + 40
        0x00004256:    e7ff        ..      B        0x4258 ; st7789_sleep_out + 32
        0x00004258:    a901        ..      ADD      r1,sp,#4
        0x0000425a:    2003        .       MOVS     r0,#3
        0x0000425c:    7008        .p      STRB     r0,[r1,#0]
        0x0000425e:    e012        ..      B        0x4286 ; st7789_sleep_out + 78
        0x00004260:    9800        ..      LDR      r0,[sp,#0]
        0x00004262:    2111        .!      MOVS     r1,#0x11
        0x00004264:    2200        ."      MOVS     r2,#0
        0x00004266:    f7fdfb5f    .._.    BL       a_st7789_write_byte ; 0x1928
        0x0000426a:    b120         .      CBZ      r0,0x4276 ; st7789_sleep_out + 62
        0x0000426c:    e7ff        ..      B        0x426e ; st7789_sleep_out + 54
        0x0000426e:    a901        ..      ADD      r1,sp,#4
        0x00004270:    2001        .       MOVS     r0,#1
        0x00004272:    7008        .p      STRB     r0,[r1,#0]
        0x00004274:    e007        ..      B        0x4286 ; st7789_sleep_out + 78
        0x00004276:    9800        ..      LDR      r0,[sp,#0]
        0x00004278:    6a81        .j      LDR      r1,[r0,#0x28]
        0x0000427a:    20c8        .       MOVS     r0,#0xc8
        0x0000427c:    4788        .G      BLX      r1
        0x0000427e:    a901        ..      ADD      r1,sp,#4
        0x00004280:    2000        .       MOVS     r0,#0
        0x00004282:    7008        .p      STRB     r0,[r1,#0]
        0x00004284:    e7ff        ..      B        0x4286 ; st7789_sleep_out + 78
        0x00004286:    a801        ..      ADD      r0,sp,#4
        0x00004288:    7800        .x      LDRB     r0,[r0,#0]
        0x0000428a:    b002        ..      ADD      sp,sp,#8
        0x0000428c:    bd80        ..      POP      {r7,pc}
        0x0000428e:    0000        ..      MOVS     r0,r0
    st7789_vcom_convert_to_register
        0x00004290:    b580        ..      PUSH     {r7,lr}
        0x00004292:    b084        ..      SUB      sp,sp,#0x10
        0x00004294:    9002        ..      STR      r0,[sp,#8]
        0x00004296:    9101        ..      STR      r1,[sp,#4]
        0x00004298:    9200        ..      STR      r2,[sp,#0]
        0x0000429a:    9802        ..      LDR      r0,[sp,#8]
        0x0000429c:    b920         .      CBNZ     r0,0x42a8 ; st7789_vcom_convert_to_register + 24
        0x0000429e:    e7ff        ..      B        0x42a0 ; st7789_vcom_convert_to_register + 16
        0x000042a0:    a903        ..      ADD      r1,sp,#0xc
        0x000042a2:    2002        .       MOVS     r0,#2
        0x000042a4:    7008        .p      STRB     r0,[r1,#0]
        0x000042a6:    e018        ..      B        0x42da ; st7789_vcom_convert_to_register + 74
        0x000042a8:    9802        ..      LDR      r0,[sp,#8]
        0x000042aa:    212c        ,!      MOVS     r1,#0x2c
        0x000042ac:    5c40        @\      LDRB     r0,[r0,r1]
        0x000042ae:    2801        .(      CMP      r0,#1
        0x000042b0:    d004        ..      BEQ      0x42bc ; st7789_vcom_convert_to_register + 44
        0x000042b2:    e7ff        ..      B        0x42b4 ; st7789_vcom_convert_to_register + 36
        0x000042b4:    a903        ..      ADD      r1,sp,#0xc
        0x000042b6:    2003        .       MOVS     r0,#3
        0x000042b8:    7008        .p      STRB     r0,[r1,#0]
        0x000042ba:    e00e        ..      B        0x42da ; st7789_vcom_convert_to_register + 74
        0x000042bc:    9801        ..      LDR      r0,[sp,#4]
        0x000042be:    4909        .I      LDR      r1,[pc,#36] ; [0x42e4] = 0xbdcccccd
        0x000042c0:    f7fbffd4    ....    BL       __aeabi_fadd ; 0x26c
        0x000042c4:    4933        3I      LDR      r1,[pc,#204] ; [0x4394] = 0x3ccccccd
        0x000042c6:    f7fcf82a    ..*.    BL       __aeabi_fdiv ; 0x31e
        0x000042ca:    f7fcf866    ..f.    BL       __aeabi_f2iz ; 0x39a
        0x000042ce:    9900        ..      LDR      r1,[sp,#0]
        0x000042d0:    7008        .p      STRB     r0,[r1,#0]
        0x000042d2:    a903        ..      ADD      r1,sp,#0xc
        0x000042d4:    2000        .       MOVS     r0,#0
        0x000042d6:    7008        .p      STRB     r0,[r1,#0]
        0x000042d8:    e7ff        ..      B        0x42da ; st7789_vcom_convert_to_register + 74
        0x000042da:    a803        ..      ADD      r0,sp,#0xc
        0x000042dc:    7800        .x      LDRB     r0,[r0,#0]
        0x000042de:    b004        ..      ADD      sp,sp,#0x10
        0x000042e0:    bd80        ..      POP      {r7,pc}
        0x000042e2:    46c0        .F      MOV      r8,r8
    $d.41
    __arm_cp.40_0
        0x000042e4:    bdcccccd    ....    DCD    3184315597
    $t.58
    st7789_vcoms_offset_convert_to_register
        0x000042e8:    b580        ..      PUSH     {r7,lr}
        0x000042ea:    b084        ..      SUB      sp,sp,#0x10
        0x000042ec:    9002        ..      STR      r0,[sp,#8]
        0x000042ee:    9101        ..      STR      r1,[sp,#4]
        0x000042f0:    9200        ..      STR      r2,[sp,#0]
        0x000042f2:    9802        ..      LDR      r0,[sp,#8]
        0x000042f4:    b920         .      CBNZ     r0,0x4300 ; st7789_vcoms_offset_convert_to_register + 24
        0x000042f6:    e7ff        ..      B        0x42f8 ; st7789_vcoms_offset_convert_to_register + 16
        0x000042f8:    a903        ..      ADD      r1,sp,#0xc
        0x000042fa:    2002        .       MOVS     r0,#2
        0x000042fc:    7008        .p      STRB     r0,[r1,#0]
        0x000042fe:    e018        ..      B        0x4332 ; st7789_vcoms_offset_convert_to_register + 74
        0x00004300:    9802        ..      LDR      r0,[sp,#8]
        0x00004302:    212c        ,!      MOVS     r1,#0x2c
        0x00004304:    5c40        @\      LDRB     r0,[r0,r1]
        0x00004306:    2801        .(      CMP      r0,#1
        0x00004308:    d004        ..      BEQ      0x4314 ; st7789_vcoms_offset_convert_to_register + 44
        0x0000430a:    e7ff        ..      B        0x430c ; st7789_vcoms_offset_convert_to_register + 36
        0x0000430c:    a903        ..      ADD      r1,sp,#0xc
        0x0000430e:    2003        .       MOVS     r0,#3
        0x00004310:    7008        .p      STRB     r0,[r1,#0]
        0x00004312:    e00e        ..      B        0x4332 ; st7789_vcoms_offset_convert_to_register + 74
        0x00004314:    9801        ..      LDR      r0,[sp,#4]
        0x00004316:    491e        .I      LDR      r1,[pc,#120] ; [0x4390] = 0x3f4ccccd
        0x00004318:    f7fbffa8    ....    BL       __aeabi_fadd ; 0x26c
        0x0000431c:    491d        .I      LDR      r1,[pc,#116] ; [0x4394] = 0x3ccccccd
        0x0000431e:    f7fbfffe    ....    BL       __aeabi_fdiv ; 0x31e
        0x00004322:    f7fcf83a    ..:.    BL       __aeabi_f2iz ; 0x39a
        0x00004326:    9900        ..      LDR      r1,[sp,#0]
        0x00004328:    7008        .p      STRB     r0,[r1,#0]
        0x0000432a:    a903        ..      ADD      r1,sp,#0xc
        0x0000432c:    2000        .       MOVS     r0,#0
        0x0000432e:    7008        .p      STRB     r0,[r1,#0]
        0x00004330:    e7ff        ..      B        0x4332 ; st7789_vcoms_offset_convert_to_register + 74
        0x00004332:    a803        ..      ADD      r0,sp,#0xc
        0x00004334:    7800        .x      LDRB     r0,[r0,#0]
        0x00004336:    b004        ..      ADD      sp,sp,#0x10
        0x00004338:    bd80        ..      POP      {r7,pc}
        0x0000433a:    46c0        .F      MOV      r8,r8
    st7789_vdv_convert_to_register
        0x0000433c:    b580        ..      PUSH     {r7,lr}
        0x0000433e:    b084        ..      SUB      sp,sp,#0x10
        0x00004340:    9002        ..      STR      r0,[sp,#8]
        0x00004342:    9101        ..      STR      r1,[sp,#4]
        0x00004344:    9200        ..      STR      r2,[sp,#0]
        0x00004346:    9802        ..      LDR      r0,[sp,#8]
        0x00004348:    b920         .      CBNZ     r0,0x4354 ; st7789_vdv_convert_to_register + 24
        0x0000434a:    e7ff        ..      B        0x434c ; st7789_vdv_convert_to_register + 16
        0x0000434c:    a903        ..      ADD      r1,sp,#0xc
        0x0000434e:    2002        .       MOVS     r0,#2
        0x00004350:    7008        .p      STRB     r0,[r1,#0]
        0x00004352:    e018        ..      B        0x4386 ; st7789_vdv_convert_to_register + 74
        0x00004354:    9802        ..      LDR      r0,[sp,#8]
        0x00004356:    212c        ,!      MOVS     r1,#0x2c
        0x00004358:    5c40        @\      LDRB     r0,[r0,r1]
        0x0000435a:    2801        .(      CMP      r0,#1
        0x0000435c:    d004        ..      BEQ      0x4368 ; st7789_vdv_convert_to_register + 44
        0x0000435e:    e7ff        ..      B        0x4360 ; st7789_vdv_convert_to_register + 36
        0x00004360:    a903        ..      ADD      r1,sp,#0xc
        0x00004362:    2003        .       MOVS     r0,#3
        0x00004364:    7008        .p      STRB     r0,[r1,#0]
        0x00004366:    e00e        ..      B        0x4386 ; st7789_vdv_convert_to_register + 74
        0x00004368:    9801        ..      LDR      r0,[sp,#4]
        0x0000436a:    4909        .I      LDR      r1,[pc,#36] ; [0x4390] = 0x3f4ccccd
        0x0000436c:    f7fbff7e    ..~.    BL       __aeabi_fadd ; 0x26c
        0x00004370:    4908        .I      LDR      r1,[pc,#32] ; [0x4394] = 0x3ccccccd
        0x00004372:    f7fbffd4    ....    BL       __aeabi_fdiv ; 0x31e
        0x00004376:    f7fcf810    ....    BL       __aeabi_f2iz ; 0x39a
        0x0000437a:    9900        ..      LDR      r1,[sp,#0]
        0x0000437c:    7008        .p      STRB     r0,[r1,#0]
        0x0000437e:    a903        ..      ADD      r1,sp,#0xc
        0x00004380:    2000        .       MOVS     r0,#0
        0x00004382:    7008        .p      STRB     r0,[r1,#0]
        0x00004384:    e7ff        ..      B        0x4386 ; st7789_vdv_convert_to_register + 74
        0x00004386:    a803        ..      ADD      r0,sp,#0xc
        0x00004388:    7800        .x      LDRB     r0,[r0,#0]
        0x0000438a:    b004        ..      ADD      sp,sp,#0x10
        0x0000438c:    bd80        ..      POP      {r7,pc}
        0x0000438e:    46c0        .F      MOV      r8,r8
    $d.54
    __arm_cp.49_0
        0x00004390:    3f4ccccd    ..L?    DCD    1061997773
    __arm_cp.49_1
        0x00004394:    3ccccccd    ...<    DCD    1020054733
    $t.48
    st7789_vrhs_convert_to_register
        0x00004398:    b580        ..      PUSH     {r7,lr}
        0x0000439a:    b084        ..      SUB      sp,sp,#0x10
        0x0000439c:    9002        ..      STR      r0,[sp,#8]
        0x0000439e:    9101        ..      STR      r1,[sp,#4]
        0x000043a0:    9200        ..      STR      r2,[sp,#0]
        0x000043a2:    9802        ..      LDR      r0,[sp,#8]
        0x000043a4:    b920         .      CBNZ     r0,0x43b0 ; st7789_vrhs_convert_to_register + 24
        0x000043a6:    e7ff        ..      B        0x43a8 ; st7789_vrhs_convert_to_register + 16
        0x000043a8:    a903        ..      ADD      r1,sp,#0xc
        0x000043aa:    2002        .       MOVS     r0,#2
        0x000043ac:    7008        .p      STRB     r0,[r1,#0]
        0x000043ae:    e018        ..      B        0x43e2 ; st7789_vrhs_convert_to_register + 74
        0x000043b0:    9802        ..      LDR      r0,[sp,#8]
        0x000043b2:    212c        ,!      MOVS     r1,#0x2c
        0x000043b4:    5c40        @\      LDRB     r0,[r0,r1]
        0x000043b6:    2801        .(      CMP      r0,#1
        0x000043b8:    d004        ..      BEQ      0x43c4 ; st7789_vrhs_convert_to_register + 44
        0x000043ba:    e7ff        ..      B        0x43bc ; st7789_vrhs_convert_to_register + 36
        0x000043bc:    a903        ..      ADD      r1,sp,#0xc
        0x000043be:    2003        .       MOVS     r0,#3
        0x000043c0:    7008        .p      STRB     r0,[r1,#0]
        0x000043c2:    e00e        ..      B        0x43e2 ; st7789_vrhs_convert_to_register + 74
        0x000043c4:    9801        ..      LDR      r0,[sp,#4]
        0x000043c6:    4909        .I      LDR      r1,[pc,#36] ; [0x43ec] = 0xc0633333
        0x000043c8:    f7fbff50    ..P.    BL       __aeabi_fadd ; 0x26c
        0x000043cc:    4908        .I      LDR      r1,[pc,#32] ; [0x43f0] = 0x3d4ccccd
        0x000043ce:    f7fbffa6    ....    BL       __aeabi_fdiv ; 0x31e
        0x000043d2:    f7fbffe2    ....    BL       __aeabi_f2iz ; 0x39a
        0x000043d6:    9900        ..      LDR      r1,[sp,#0]
        0x000043d8:    7008        .p      STRB     r0,[r1,#0]
        0x000043da:    a903        ..      ADD      r1,sp,#0xc
        0x000043dc:    2000        .       MOVS     r0,#0
        0x000043de:    7008        .p      STRB     r0,[r1,#0]
        0x000043e0:    e7ff        ..      B        0x43e2 ; st7789_vrhs_convert_to_register + 74
        0x000043e2:    a803        ..      ADD      r0,sp,#0xc
        0x000043e4:    7800        .x      LDRB     r0,[r0,#0]
        0x000043e6:    b004        ..      ADD      sp,sp,#0x10
        0x000043e8:    bd80        ..      POP      {r7,pc}
        0x000043ea:    46c0        .F      MOV      r8,r8
    $d.49
    __arm_cp.46_0
        0x000043ec:    c0633333    33c.    DCD    3227726643
    __arm_cp.46_1
        0x000043f0:    3d4ccccd    ..L=    DCD    1028443341
    $t.94
    st7789_write_string
        0x000043f4:    b5b0        ..      PUSH     {r4,r5,r7,lr}
        0x000043f6:    b08c        ..      SUB      sp,sp,#0x30
        0x000043f8:    4604        .F      MOV      r4,r0
        0x000043fa:    9812        ..      LDR      r0,[sp,#0x48]
        0x000043fc:    9811        ..      LDR      r0,[sp,#0x44]
        0x000043fe:    9810        ..      LDR      r0,[sp,#0x40]
        0x00004400:    940a        ..      STR      r4,[sp,#0x28]
        0x00004402:    ac09        ..      ADD      r4,sp,#0x24
        0x00004404:    8021        !.      STRH     r1,[r4,#0]
        0x00004406:    a908        ..      ADD      r1,sp,#0x20
        0x00004408:    800a        ..      STRH     r2,[r1,#0]
        0x0000440a:    9307        ..      STR      r3,[sp,#0x1c]
        0x0000440c:    a906        ..      ADD      r1,sp,#0x18
        0x0000440e:    8008        ..      STRH     r0,[r1,#0]
        0x00004410:    980a        ..      LDR      r0,[sp,#0x28]
        0x00004412:    b920         .      CBNZ     r0,0x441e ; st7789_write_string + 42
        0x00004414:    e7ff        ..      B        0x4416 ; st7789_write_string + 34
        0x00004416:    a90b        ..      ADD      r1,sp,#0x2c
        0x00004418:    2002        .       MOVS     r0,#2
        0x0000441a:    7008        .p      STRB     r0,[r1,#0]
        0x0000441c:    e085        ..      B        0x452a ; st7789_write_string + 310
        0x0000441e:    980a        ..      LDR      r0,[sp,#0x28]
        0x00004420:    212c        ,!      MOVS     r1,#0x2c
        0x00004422:    5c40        @\      LDRB     r0,[r0,r1]
        0x00004424:    2801        .(      CMP      r0,#1
        0x00004426:    d004        ..      BEQ      0x4432 ; st7789_write_string + 62
        0x00004428:    e7ff        ..      B        0x442a ; st7789_write_string + 54
        0x0000442a:    a90b        ..      ADD      r1,sp,#0x2c
        0x0000442c:    2003        .       MOVS     r0,#3
        0x0000442e:    7008        .p      STRB     r0,[r1,#0]
        0x00004430:    e07b        {.      B        0x452a ; st7789_write_string + 310
        0x00004432:    a809        ..      ADD      r0,sp,#0x24
        0x00004434:    8800        ..      LDRH     r0,[r0,#0]
        0x00004436:    990a        ..      LDR      r1,[sp,#0x28]
        0x00004438:    8dc9        ..      LDRH     r1,[r1,#0x2e]
        0x0000443a:    4288        .B      CMP      r0,r1
        0x0000443c:    da07        ..      BGE      0x444e ; st7789_write_string + 90
        0x0000443e:    e7ff        ..      B        0x4440 ; st7789_write_string + 76
        0x00004440:    a808        ..      ADD      r0,sp,#0x20
        0x00004442:    8800        ..      LDRH     r0,[r0,#0]
        0x00004444:    990a        ..      LDR      r1,[sp,#0x28]
        0x00004446:    8e09        ..      LDRH     r1,[r1,#0x30]
        0x00004448:    4288        .B      CMP      r0,r1
        0x0000444a:    db04        ..      BLT      0x4456 ; st7789_write_string + 98
        0x0000444c:    e7ff        ..      B        0x444e ; st7789_write_string + 90
        0x0000444e:    a90b        ..      ADD      r1,sp,#0x2c
        0x00004450:    2004        .       MOVS     r0,#4
        0x00004452:    7008        .p      STRB     r0,[r1,#0]
        0x00004454:    e069        i.      B        0x452a ; st7789_write_string + 310
        0x00004456:    e7ff        ..      B        0x4458 ; st7789_write_string + 100
        0x00004458:    a806        ..      ADD      r0,sp,#0x18
        0x0000445a:    8801        ..      LDRH     r1,[r0,#0]
        0x0000445c:    2000        .       MOVS     r0,#0
        0x0000445e:    9005        ..      STR      r0,[sp,#0x14]
        0x00004460:    b1a1        ..      CBZ      r1,0x448c ; st7789_write_string + 152
        0x00004462:    e7ff        ..      B        0x4464 ; st7789_write_string + 112
        0x00004464:    9807        ..      LDR      r0,[sp,#0x1c]
        0x00004466:    7801        .x      LDRB     r1,[r0,#0]
        0x00004468:    2000        .       MOVS     r0,#0
        0x0000446a:    297e        ~)      CMP      r1,#0x7e
        0x0000446c:    9005        ..      STR      r0,[sp,#0x14]
        0x0000446e:    dc0d        ..      BGT      0x448c ; st7789_write_string + 152
        0x00004470:    e7ff        ..      B        0x4472 ; st7789_write_string + 126
        0x00004472:    9807        ..      LDR      r0,[sp,#0x1c]
        0x00004474:    7801        .x      LDRB     r1,[r0,#0]
        0x00004476:    2001        .       MOVS     r0,#1
        0x00004478:    2200        ."      MOVS     r2,#0
        0x0000447a:    9203        ..      STR      r2,[sp,#0xc]
        0x0000447c:    291f        .)      CMP      r1,#0x1f
        0x0000447e:    9004        ..      STR      r0,[sp,#0x10]
        0x00004480:    dc01        ..      BGT      0x4486 ; st7789_write_string + 146
        0x00004482:    9803        ..      LDR      r0,[sp,#0xc]
        0x00004484:    9004        ..      STR      r0,[sp,#0x10]
        0x00004486:    9804        ..      LDR      r0,[sp,#0x10]
        0x00004488:    9005        ..      STR      r0,[sp,#0x14]
        0x0000448a:    e7ff        ..      B        0x448c ; st7789_write_string + 152
        0x0000448c:    9805        ..      LDR      r0,[sp,#0x14]
        0x0000448e:    07c0        ..      LSLS     r0,r0,#31
        0x00004490:    2800        .(      CMP      r0,#0
        0x00004492:    d046        F.      BEQ      0x4522 ; st7789_write_string + 302
        0x00004494:    e7ff        ..      B        0x4496 ; st7789_write_string + 162
        0x00004496:    a809        ..      ADD      r0,sp,#0x24
        0x00004498:    8800        ..      LDRH     r0,[r0,#0]
        0x0000449a:    990a        ..      LDR      r1,[sp,#0x28]
        0x0000449c:    8dc9        ..      LDRH     r1,[r1,#0x2e]
        0x0000449e:    9a12        ..      LDR      r2,[sp,#0x48]
        0x000044a0:    0852        R.      LSRS     r2,r2,#1
        0x000044a2:    1a89        ..      SUBS     r1,r1,r2
        0x000044a4:    4288        .B      CMP      r0,r1
        0x000044a6:    d30a        ..      BCC      0x44be ; st7789_write_string + 202
        0x000044a8:    e7ff        ..      B        0x44aa ; st7789_write_string + 182
        0x000044aa:    a909        ..      ADD      r1,sp,#0x24
        0x000044ac:    2000        .       MOVS     r0,#0
        0x000044ae:    8008        ..      STRH     r0,[r1,#0]
        0x000044b0:    a812        ..      ADD      r0,sp,#0x48
        0x000044b2:    7801        .x      LDRB     r1,[r0,#0]
        0x000044b4:    9808        ..      LDR      r0,[sp,#0x20]
        0x000044b6:    1840        @.      ADDS     r0,r0,r1
        0x000044b8:    a908        ..      ADD      r1,sp,#0x20
        0x000044ba:    8008        ..      STRH     r0,[r1,#0]
        0x000044bc:    e7ff        ..      B        0x44be ; st7789_write_string + 202
        0x000044be:    a808        ..      ADD      r0,sp,#0x20
        0x000044c0:    8800        ..      LDRH     r0,[r0,#0]
        0x000044c2:    990a        ..      LDR      r1,[sp,#0x28]
        0x000044c4:    8e09        ..      LDRH     r1,[r1,#0x30]
        0x000044c6:    9a12        ..      LDR      r2,[sp,#0x48]
        0x000044c8:    1a89        ..      SUBS     r1,r1,r2
        0x000044ca:    4288        .B      CMP      r0,r1
        0x000044cc:    d306        ..      BCC      0x44dc ; st7789_write_string + 232
        0x000044ce:    e7ff        ..      B        0x44d0 ; st7789_write_string + 220
        0x000044d0:    a909        ..      ADD      r1,sp,#0x24
        0x000044d2:    2000        .       MOVS     r0,#0
        0x000044d4:    8008        ..      STRH     r0,[r1,#0]
        0x000044d6:    a908        ..      ADD      r1,sp,#0x20
        0x000044d8:    8008        ..      STRH     r0,[r1,#0]
        0x000044da:    e7ff        ..      B        0x44dc ; st7789_write_string + 232
        0x000044dc:    980a        ..      LDR      r0,[sp,#0x28]
        0x000044de:    a909        ..      ADD      r1,sp,#0x24
        0x000044e0:    8809        ..      LDRH     r1,[r1,#0]
        0x000044e2:    aa08        ..      ADD      r2,sp,#0x20
        0x000044e4:    8812        ..      LDRH     r2,[r2,#0]
        0x000044e6:    9b07        ..      LDR      r3,[sp,#0x1c]
        0x000044e8:    781b        .x      LDRB     r3,[r3,#0]
        0x000044ea:    ac12        ..      ADD      r4,sp,#0x48
        0x000044ec:    7824        $x      LDRB     r4,[r4,#0]
        0x000044ee:    9d11        ..      LDR      r5,[sp,#0x44]
        0x000044f0:    9501        ..      STR      r5,[sp,#4]
        0x000044f2:    9400        ..      STR      r4,[sp,#0]
        0x000044f4:    f7fdf95c    ..\.    BL       a_st7789_show_char ; 0x17b0
        0x000044f8:    b120         .      CBZ      r0,0x4504 ; st7789_write_string + 272
        0x000044fa:    e7ff        ..      B        0x44fc ; st7789_write_string + 264
        0x000044fc:    a90b        ..      ADD      r1,sp,#0x2c
        0x000044fe:    2001        .       MOVS     r0,#1
        0x00004500:    7008        .p      STRB     r0,[r1,#0]
        0x00004502:    e012        ..      B        0x452a ; st7789_write_string + 310
        0x00004504:    9812        ..      LDR      r0,[sp,#0x48]
        0x00004506:    0840        @.      LSRS     r0,r0,#1
        0x00004508:    b2c1        ..      UXTB     r1,r0
        0x0000450a:    9809        ..      LDR      r0,[sp,#0x24]
        0x0000450c:    1840        @.      ADDS     r0,r0,r1
        0x0000450e:    a909        ..      ADD      r1,sp,#0x24
        0x00004510:    8008        ..      STRH     r0,[r1,#0]
        0x00004512:    9807        ..      LDR      r0,[sp,#0x1c]
        0x00004514:    1c40        @.      ADDS     r0,r0,#1
        0x00004516:    9007        ..      STR      r0,[sp,#0x1c]
        0x00004518:    9806        ..      LDR      r0,[sp,#0x18]
        0x0000451a:    1e40        @.      SUBS     r0,r0,#1
        0x0000451c:    a906        ..      ADD      r1,sp,#0x18
        0x0000451e:    8008        ..      STRH     r0,[r1,#0]
        0x00004520:    e79a        ..      B        0x4458 ; st7789_write_string + 100
        0x00004522:    a90b        ..      ADD      r1,sp,#0x2c
        0x00004524:    2000        .       MOVS     r0,#0
        0x00004526:    7008        .p      STRB     r0,[r1,#0]
        0x00004528:    e7ff        ..      B        0x452a ; st7789_write_string + 310
        0x0000452a:    a80b        ..      ADD      r0,sp,#0x2c
        0x0000452c:    7800        .x      LDRB     r0,[r0,#0]
        0x0000452e:    b00c        ..      ADD      sp,sp,#0x30
        0x00004530:    bdb0        ..      POP      {r4,r5,r7,pc}
        0x00004532:    0000        ..      MOVS     r0,r0
    uart_init
        0x00004534:    b580        ..      PUSH     {r7,lr}
        0x00004536:    b082        ..      SUB      sp,sp,#8
        0x00004538:    9001        ..      STR      r0,[sp,#4]
        0x0000453a:    9901        ..      LDR      r1,[sp,#4]
        0x0000453c:    4820         H      LDR      r0,[pc,#128] ; [0x45c0] = 0x40070000
        0x0000453e:    f7fcff45    ..E.    BL       UART_Open ; 0x13cc
        0x00004542:    2000        .       MOVS     r0,#0
        0x00004544:    b002        ..      ADD      sp,sp,#8
        0x00004546:    bd80        ..      POP      {r7,pc}
    uart_write
        0x00004548:    b580        ..      PUSH     {r7,lr}
        0x0000454a:    b086        ..      SUB      sp,sp,#0x18
        0x0000454c:    9004        ..      STR      r0,[sp,#0x10]
        0x0000454e:    a803        ..      ADD      r0,sp,#0xc
        0x00004550:    8001        ..      STRH     r1,[r0,#0]
        0x00004552:    aa02        ..      ADD      r2,sp,#8
        0x00004554:    f24031e8    @..1    MOVW     r1,#0x3e8
        0x00004558:    8011        ..      STRH     r1,[r2,#0]
        0x0000455a:    4a18        .J      LDR      r2,[pc,#96] ; [0x45bc] = 0x20000070
        0x0000455c:    2100        .!      MOVS     r1,#0
        0x0000455e:    7011        .p      STRB     r1,[r2,#0]
        0x00004560:    9904        ..      LDR      r1,[sp,#0x10]
        0x00004562:    8802        ..      LDRH     r2,[r0,#0]
        0x00004564:    4816        .H      LDR      r0,[pc,#88] ; [0x45c0] = 0x40070000
        0x00004566:    f7fdf805    ....    BL       UART_Write ; 0x1574
        0x0000456a:    e7ff        ..      B        0x456c ; uart_write + 36
        0x0000456c:    4813        .H      LDR      r0,[pc,#76] ; [0x45bc] = 0x20000070
        0x0000456e:    7801        .x      LDRB     r1,[r0,#0]
        0x00004570:    2000        .       MOVS     r0,#0
        0x00004572:    9001        ..      STR      r0,[sp,#4]
        0x00004574:    b931        1.      CBNZ     r1,0x4584 ; uart_write + 60
        0x00004576:    e7ff        ..      B        0x4578 ; uart_write + 48
        0x00004578:    a802        ..      ADD      r0,sp,#8
        0x0000457a:    8800        ..      LDRH     r0,[r0,#0]
        0x0000457c:    1e41        A.      SUBS     r1,r0,#1
        0x0000457e:    4188        .A      SBCS     r0,r0,r1
        0x00004580:    9001        ..      STR      r0,[sp,#4]
        0x00004582:    e7ff        ..      B        0x4584 ; uart_write + 60
        0x00004584:    9801        ..      LDR      r0,[sp,#4]
        0x00004586:    07c0        ..      LSLS     r0,r0,#31
        0x00004588:    b140        @.      CBZ      r0,0x459c ; uart_write + 84
        0x0000458a:    e7ff        ..      B        0x458c ; uart_write + 68
        0x0000458c:    2001        .       MOVS     r0,#1
        0x0000458e:    f7fdfa25    ..%.    BL       delay_ms ; 0x19dc
        0x00004592:    9802        ..      LDR      r0,[sp,#8]
        0x00004594:    1e40        @.      SUBS     r0,r0,#1
        0x00004596:    a902        ..      ADD      r1,sp,#8
        0x00004598:    8008        ..      STRH     r0,[r1,#0]
        0x0000459a:    e7e7        ..      B        0x456c ; uart_write + 36
        0x0000459c:    a802        ..      ADD      r0,sp,#8
        0x0000459e:    8800        ..      LDRH     r0,[r0,#0]
        0x000045a0:    b120         .      CBZ      r0,0x45ac ; uart_write + 100
        0x000045a2:    e7ff        ..      B        0x45a4 ; uart_write + 92
        0x000045a4:    a905        ..      ADD      r1,sp,#0x14
        0x000045a6:    2000        .       MOVS     r0,#0
        0x000045a8:    7008        .p      STRB     r0,[r1,#0]
        0x000045aa:    e003        ..      B        0x45b4 ; uart_write + 108
        0x000045ac:    a905        ..      ADD      r1,sp,#0x14
        0x000045ae:    2001        .       MOVS     r0,#1
        0x000045b0:    7008        .p      STRB     r0,[r1,#0]
        0x000045b2:    e7ff        ..      B        0x45b4 ; uart_write + 108
        0x000045b4:    a805        ..      ADD      r0,sp,#0x14
        0x000045b6:    7800        .x      LDRB     r0,[r0,#0]
        0x000045b8:    b006        ..      ADD      sp,sp,#0x18
        0x000045ba:    bd80        ..      POP      {r7,pc}
    $d.5
    __arm_cp.2_0
        0x000045bc:    20000070    p..     DCD    536871024
    __arm_cp.2_1
        0x000045c0:    40070000    ...@    DCD    1074200576
    $t.12
    wire_clock_deinit
        0x000045c4:    2000        .       MOVS     r0,#0
        0x000045c6:    4770        pG      BX       lr
    wire_clock_init
        0x000045c8:    b580        ..      PUSH     {r7,lr}
        0x000045ca:    f7fcfe61    ..a.    BL       SYS_UnlockReg ; 0x1290
        0x000045ce:    2018        .       MOVS     r0,#0x18
        0x000045d0:    f7fcfa06    ....    BL       CLK_EnableModuleClock ; 0x9e0
        0x000045d4:    f7fcfea8    ....    BL       SystemCoreClockUpdate ; 0x1328
        0x000045d8:    482d        -H      LDR      r0,[pc,#180] ; [0x4690] = 0x40004000
        0x000045da:    2110        .!      MOVS     r1,#0x10
        0x000045dc:    2201        ."      MOVS     r2,#1
        0x000045de:    f7fcfbd9    ....    BL       GPIO_SetMode ; 0xd94
        0x000045e2:    2000        .       MOVS     r0,#0
        0x000045e4:    bd80        ..      POP      {r7,pc}
        0x000045e6:    46c0        .F      MOV      r8,r8
    wire_clock_write
        0x000045e8:    b081        ..      SUB      sp,sp,#4
        0x000045ea:    4601        .F      MOV      r1,r0
        0x000045ec:    4668        hF      MOV      r0,sp
        0x000045ee:    7001        .p      STRB     r1,[r0,#0]
        0x000045f0:    7800        .x      LDRB     r0,[r0,#0]
        0x000045f2:    b120         .      CBZ      r0,0x45fe ; wire_clock_write + 22
        0x000045f4:    e7ff        ..      B        0x45f6 ; wire_clock_write + 14
        0x000045f6:    4905        .I      LDR      r1,[pc,#20] ; [0x460c] = 0x40004810
        0x000045f8:    2001        .       MOVS     r0,#1
        0x000045fa:    6008        .`      STR      r0,[r1,#0]
        0x000045fc:    e003        ..      B        0x4606 ; wire_clock_write + 30
        0x000045fe:    4903        .I      LDR      r1,[pc,#12] ; [0x460c] = 0x40004810
        0x00004600:    2000        .       MOVS     r0,#0
        0x00004602:    6008        .`      STR      r0,[r1,#0]
        0x00004604:    e7ff        ..      B        0x4606 ; wire_clock_write + 30
        0x00004606:    2000        .       MOVS     r0,#0
        0x00004608:    b001        ..      ADD      sp,sp,#4
        0x0000460a:    4770        pG      BX       lr
    $d.14
    __arm_cp.7_0
        0x0000460c:    40004810    .H.@    DCD    1073760272
    $t.4
    wire_deinit
        0x00004610:    b580        ..      PUSH     {r7,lr}
        0x00004612:    b082        ..      SUB      sp,sp,#8
        0x00004614:    481e        .H      LDR      r0,[pc,#120] ; [0x4690] = 0x40004000
        0x00004616:    2120         !      MOVS     r1,#0x20
        0x00004618:    2200        ."      MOVS     r2,#0
        0x0000461a:    9201        ..      STR      r2,[sp,#4]
        0x0000461c:    f7fcfbba    ....    BL       GPIO_SetMode ; 0xd94
        0x00004620:    9801        ..      LDR      r0,[sp,#4]
        0x00004622:    b002        ..      ADD      sp,sp,#8
        0x00004624:    bd80        ..      POP      {r7,pc}
        0x00004626:    46c0        .F      MOV      r8,r8
    wire_init
        0x00004628:    b580        ..      PUSH     {r7,lr}
        0x0000462a:    b084        ..      SUB      sp,sp,#0x10
        0x0000462c:    f7fcfe30    ..0.    BL       SYS_UnlockReg ; 0x1290
        0x00004630:    2018        .       MOVS     r0,#0x18
        0x00004632:    f7fcf9d5    ....    BL       CLK_EnableModuleClock ; 0x9e0
        0x00004636:    f7fcfe77    ..w.    BL       SystemCoreClockUpdate ; 0x1328
        0x0000463a:    4815        .H      LDR      r0,[pc,#84] ; [0x4690] = 0x40004000
        0x0000463c:    9001        ..      STR      r0,[sp,#4]
        0x0000463e:    2120         !      MOVS     r1,#0x20
        0x00004640:    9102        ..      STR      r1,[sp,#8]
        0x00004642:    2201        ."      MOVS     r2,#1
        0x00004644:    9200        ..      STR      r2,[sp,#0]
        0x00004646:    f7fcfba5    ....    BL       GPIO_SetMode ; 0xd94
        0x0000464a:    9a00        ..      LDR      r2,[sp,#0]
        0x0000464c:    9801        ..      LDR      r0,[sp,#4]
        0x0000464e:    9902        ..      LDR      r1,[sp,#8]
        0x00004650:    f7fcfba0    ....    BL       GPIO_SetMode ; 0xd94
        0x00004654:    9a00        ..      LDR      r2,[sp,#0]
        0x00004656:    9801        ..      LDR      r0,[sp,#4]
        0x00004658:    9902        ..      LDR      r1,[sp,#8]
        0x0000465a:    4b0e        .K      LDR      r3,[pc,#56] ; [0x4694] = 0x40004814
        0x0000465c:    601a        .`      STR      r2,[r3,#0]
        0x0000465e:    2200        ."      MOVS     r2,#0
        0x00004660:    9203        ..      STR      r2,[sp,#0xc]
        0x00004662:    f7fcfb97    ....    BL       GPIO_SetMode ; 0xd94
        0x00004666:    9803        ..      LDR      r0,[sp,#0xc]
        0x00004668:    b004        ..      ADD      sp,sp,#0x10
        0x0000466a:    bd80        ..      POP      {r7,pc}
    wire_write
        0x0000466c:    b580        ..      PUSH     {r7,lr}
        0x0000466e:    b082        ..      SUB      sp,sp,#8
        0x00004670:    a901        ..      ADD      r1,sp,#4
        0x00004672:    9100        ..      STR      r1,[sp,#0]
        0x00004674:    7008        .p      STRB     r0,[r1,#0]
        0x00004676:    4806        .H      LDR      r0,[pc,#24] ; [0x4690] = 0x40004000
        0x00004678:    2120         !      MOVS     r1,#0x20
        0x0000467a:    2201        ."      MOVS     r2,#1
        0x0000467c:    f7fcfb8a    ....    BL       GPIO_SetMode ; 0xd94
        0x00004680:    9800        ..      LDR      r0,[sp,#0]
        0x00004682:    7800        .x      LDRB     r0,[r0,#0]
        0x00004684:    4903        .I      LDR      r1,[pc,#12] ; [0x4694] = 0x40004814
        0x00004686:    6008        .`      STR      r0,[r1,#0]
        0x00004688:    2000        .       MOVS     r0,#0
        0x0000468a:    b002        ..      ADD      sp,sp,#8
        0x0000468c:    bd80        ..      POP      {r7,pc}
        0x0000468e:    46c0        .F      MOV      r8,r8
    $d.9
    __arm_cp.4_0
        0x00004690:    40004000    .@.@    DCD    1073758208
    __arm_cp.4_1
        0x00004694:    40004814    .H.@    DCD    1073760276
    $t
    i.__0printf
    __0printf
    __1printf
    __2printf
    __c89printf
    printf
        0x00004698:    b40f        ..      PUSH     {r0-r3}
        0x0000469a:    b510        ..      PUSH     {r4,lr}
        0x0000469c:    a903        ..      ADD      r1,sp,#0xc
        0x0000469e:    4b04        .K      LDR      r3,[pc,#16] ; [0x46b0] = 0x19f3
        0x000046a0:    4a04        .J      LDR      r2,[pc,#16] ; [0x46b4] = 0x20000018
        0x000046a2:    9802        ..      LDR      r0,[sp,#8]
        0x000046a4:    f000f91c    ....    BL       _printf_core ; 0x48e0
        0x000046a8:    bc10        ..      POP      {r4}
        0x000046aa:    bc08        ..      POP      {r3}
        0x000046ac:    b004        ..      ADD      sp,sp,#0x10
        0x000046ae:    4718        .G      BX       r3
    $d
        0x000046b0:    000019f3    ....    DCD    6643
        0x000046b4:    20000018    ...     DCD    536870936
    $t
    i.__0snprintf
    __0snprintf
    __1snprintf
    __2snprintf
    __c89snprintf
    snprintf
        0x000046b8:    b40f        ..      PUSH     {r0-r3}
        0x000046ba:    b57c        |.      PUSH     {r2-r6,lr}
        0x000046bc:    000c        ..      MOVS     r4,r1
        0x000046be:    ad09        ..      ADD      r5,sp,#0x24
        0x000046c0:    d001        ..      BEQ      0x46c6 ; __0snprintf + 14
        0x000046c2:    1e61        a.      SUBS     r1,r4,#1
        0x000046c4:    e000        ..      B        0x46c8 ; __0snprintf + 16
        0x000046c6:    2100        .!      MOVS     r1,#0
        0x000046c8:    9101        ..      STR      r1,[sp,#4]
        0x000046ca:    9000        ..      STR      r0,[sp,#0]
        0x000046cc:    4b07        .K      LDR      r3,[pc,#28] ; [0x46ec] = 0x5019
        0x000046ce:    466a        jF      MOV      r2,sp
        0x000046d0:    4629        )F      MOV      r1,r5
        0x000046d2:    9808        ..      LDR      r0,[sp,#0x20]
        0x000046d4:    f000f904    ....    BL       _printf_core ; 0x48e0
        0x000046d8:    2c00        .,      CMP      r4,#0
        0x000046da:    d002        ..      BEQ      0x46e2 ; __0snprintf + 42
        0x000046dc:    9a00        ..      LDR      r2,[sp,#0]
        0x000046de:    2100        .!      MOVS     r1,#0
        0x000046e0:    7011        .p      STRB     r1,[r2,#0]
        0x000046e2:    bc7c        |.      POP      {r2-r6}
        0x000046e4:    bc08        ..      POP      {r3}
        0x000046e6:    b004        ..      ADD      sp,sp,#0x10
        0x000046e8:    4718        .G      BX       r3
    $d
        0x000046ea:    0000        ..      DCW    0
        0x000046ec:    00005019    .P..    DCD    20505
    $t
    i.__0vsnprintf
    __0vsnprintf
    __1vsnprintf
    __2vsnprintf
    __c89vsnprintf
    vsnprintf
        0x000046f0:    b57c        |.      PUSH     {r2-r6,lr}
        0x000046f2:    461d        .F      MOV      r5,r3
        0x000046f4:    4616        .F      MOV      r6,r2
        0x000046f6:    000c        ..      MOVS     r4,r1
        0x000046f8:    d001        ..      BEQ      0x46fe ; __0vsnprintf + 14
        0x000046fa:    1e61        a.      SUBS     r1,r4,#1
        0x000046fc:    e000        ..      B        0x4700 ; __0vsnprintf + 16
        0x000046fe:    2100        .!      MOVS     r1,#0
        0x00004700:    9101        ..      STR      r1,[sp,#4]
        0x00004702:    9000        ..      STR      r0,[sp,#0]
        0x00004704:    4b05        .K      LDR      r3,[pc,#20] ; [0x471c] = 0x5019
        0x00004706:    466a        jF      MOV      r2,sp
        0x00004708:    4629        )F      MOV      r1,r5
        0x0000470a:    4630        0F      MOV      r0,r6
        0x0000470c:    f000f8e8    ....    BL       _printf_core ; 0x48e0
        0x00004710:    2c00        .,      CMP      r4,#0
        0x00004712:    d002        ..      BEQ      0x471a ; __0vsnprintf + 42
        0x00004714:    9a00        ..      LDR      r2,[sp,#0]
        0x00004716:    2100        .!      MOVS     r1,#0
        0x00004718:    7011        .p      STRB     r1,[r2,#0]
        0x0000471a:    bd7c        |.      POP      {r2-r6,pc}
    $d
        0x0000471c:    00005019    .P..    DCD    20505
    $t
    i.__ARM_clz
    __ARM_clz
        0x00004720:    2120         !      MOVS     r1,#0x20
        0x00004722:    0c02        ..      LSRS     r2,r0,#16
        0x00004724:    d001        ..      BEQ      0x472a ; __ARM_clz + 10
        0x00004726:    2110        .!      MOVS     r1,#0x10
        0x00004728:    4610        .F      MOV      r0,r2
        0x0000472a:    0a02        ..      LSRS     r2,r0,#8
        0x0000472c:    d001        ..      BEQ      0x4732 ; __ARM_clz + 18
        0x0000472e:    4610        .F      MOV      r0,r2
        0x00004730:    3908        .9      SUBS     r1,r1,#8
        0x00004732:    0902        ..      LSRS     r2,r0,#4
        0x00004734:    d001        ..      BEQ      0x473a ; __ARM_clz + 26
        0x00004736:    4610        .F      MOV      r0,r2
        0x00004738:    1f09        ..      SUBS     r1,r1,#4
        0x0000473a:    0882        ..      LSRS     r2,r0,#2
        0x0000473c:    d001        ..      BEQ      0x4742 ; __ARM_clz + 34
        0x0000473e:    4610        .F      MOV      r0,r2
        0x00004740:    1e89        ..      SUBS     r1,r1,#2
        0x00004742:    0842        B.      LSRS     r2,r0,#1
        0x00004744:    d001        ..      BEQ      0x474a ; __ARM_clz + 42
        0x00004746:    1e88        ..      SUBS     r0,r1,#2
        0x00004748:    4770        pG      BX       lr
        0x0000474a:    1a08        ..      SUBS     r0,r1,r0
        0x0000474c:    4770        pG      BX       lr
    i.__scatterload_copy
    __scatterload_copy
        0x0000474e:    e002        ..      B        0x4756 ; __scatterload_copy + 8
        0x00004750:    c808        ..      LDM      r0!,{r3}
        0x00004752:    1f12        ..      SUBS     r2,r2,#4
        0x00004754:    c108        ..      STM      r1!,{r3}
        0x00004756:    2a00        .*      CMP      r2,#0
        0x00004758:    d1fa        ..      BNE      0x4750 ; __scatterload_copy + 2
        0x0000475a:    4770        pG      BX       lr
    i.__scatterload_null
    __scatterload_null
        0x0000475c:    4770        pG      BX       lr
    i.__scatterload_zeroinit
    __scatterload_zeroinit
        0x0000475e:    2000        .       MOVS     r0,#0
        0x00004760:    e001        ..      B        0x4766 ; __scatterload_zeroinit + 8
        0x00004762:    c101        ..      STM      r1!,{r0}
        0x00004764:    1f12        ..      SUBS     r2,r2,#4
        0x00004766:    2a00        .*      CMP      r2,#0
        0x00004768:    d1fb        ..      BNE      0x4762 ; __scatterload_zeroinit + 4
        0x0000476a:    4770        pG      BX       lr
    i._fp_digits
    _fp_digits
        0x0000476c:    b5f0        ..      PUSH     {r4-r7,lr}
        0x0000476e:    b41f        ..      PUSH     {r0-r4}
        0x00004770:    b086        ..      SUB      sp,sp,#0x18
        0x00004772:    9809        ..      LDR      r0,[sp,#0x24]
        0x00004774:    9a08        ..      LDR      r2,[sp,#0x20]
        0x00004776:    0d03        ..      LSRS     r3,r0,#20
        0x00004778:    2100        .!      MOVS     r1,#0
        0x0000477a:    4302        .C      ORRS     r2,r2,r0
        0x0000477c:    d014        ..      BEQ      0x47a8 ; _fp_digits + 60
        0x0000477e:    4851        QH      LDR      r0,[pc,#324] ; [0x48c4] = 0xfffffc01
        0x00004780:    4a51        QJ      LDR      r2,[pc,#324] ; [0x48c8] = 0x4d10
        0x00004782:    1818        ..      ADDS     r0,r3,r0
        0x00004784:    4350        PC      MULS     r0,r2,r0
        0x00004786:    1405        ..      ASRS     r5,r0,#16
        0x00004788:    9811        ..      LDR      r0,[sp,#0x44]
        0x0000478a:    2801        .(      CMP      r0,#1
        0x0000478c:    9810        ..      LDR      r0,[sp,#0x40]
        0x0000478e:    d01a        ..      BEQ      0x47c6 ; _fp_digits + 90
        0x00004790:    1a28        (.      SUBS     r0,r5,r0
        0x00004792:    1c40        @.      ADDS     r0,r0,#1
        0x00004794:    2600        .&      MOVS     r6,#0
        0x00004796:    4f4d        MO      LDR      r7,[pc,#308] ; [0x48cc] = 0x40140000
        0x00004798:    494d        MI      LDR      r1,[pc,#308] ; [0x48d0] = 0x3ff00000
        0x0000479a:    9600        ..      STR      r6,[sp,#0]
        0x0000479c:    9101        ..      STR      r1,[sp,#4]
        0x0000479e:    9004        ..      STR      r0,[sp,#0x10]
        0x000047a0:    2800        .(      CMP      r0,#0
        0x000047a2:    da12        ..      BGE      0x47ca ; _fp_digits + 94
        0x000047a4:    4244        DB      RSBS     r4,r0,#0
        0x000047a6:    e011        ..      B        0x47cc ; _fp_digits + 96
        0x000047a8:    9811        ..      LDR      r0,[sp,#0x44]
        0x000047aa:    2401        .$      MOVS     r4,#1
        0x000047ac:    a349        I.      ADR      r3,{pc}+0x128 ; 0x48d4
        0x000047ae:    2801        .(      CMP      r0,#1
        0x000047b0:    d101        ..      BNE      0x47b6 ; _fp_digits + 74
        0x000047b2:    9810        ..      LDR      r0,[sp,#0x40]
        0x000047b4:    43c1        .C      MVNS     r1,r0
        0x000047b6:    9806        ..      LDR      r0,[sp,#0x18]
        0x000047b8:    9a11        ..      LDR      r2,[sp,#0x44]
        0x000047ba:    6084        .`      STR      r4,[r0,#8]
        0x000047bc:    6003        .`      STR      r3,[r0,#0]
        0x000047be:    60c2        .`      STR      r2,[r0,#0xc]
        0x000047c0:    6041        A`      STR      r1,[r0,#4]
        0x000047c2:    b00b        ..      ADD      sp,sp,#0x2c
        0x000047c4:    bdf0        ..      POP      {r4-r7,pc}
        0x000047c6:    4240        @B      RSBS     r0,r0,#0
        0x000047c8:    e7e4        ..      B        0x4794 ; _fp_digits + 40
        0x000047ca:    4604        .F      MOV      r4,r0
        0x000047cc:    0521        !.      LSLS     r1,r4,#20
        0x000047ce:    2000        .       MOVS     r0,#0
        0x000047d0:    4a3f        ?J      LDR      r2,[pc,#252] ; [0x48d0] = 0x3ff00000
        0x000047d2:    1c00        ..      ADDS     r0,r0,#0
        0x000047d4:    4151        QA      ADCS     r1,r1,r2
        0x000047d6:    9103        ..      STR      r1,[sp,#0xc]
        0x000047d8:    9002        ..      STR      r0,[sp,#8]
        0x000047da:    e012        ..      B        0x4802 ; _fp_digits + 150
        0x000047dc:    07e0        ..      LSLS     r0,r4,#31
        0x000047de:    d007        ..      BEQ      0x47f0 ; _fp_digits + 132
        0x000047e0:    4632        2F      MOV      r2,r6
        0x000047e2:    463b        ;F      MOV      r3,r7
        0x000047e4:    9901        ..      LDR      r1,[sp,#4]
        0x000047e6:    9800        ..      LDR      r0,[sp,#0]
        0x000047e8:    f7fbff14    ....    BL       __aeabi_dmul ; 0x614
        0x000047ec:    9101        ..      STR      r1,[sp,#4]
        0x000047ee:    9000        ..      STR      r0,[sp,#0]
        0x000047f0:    4632        2F      MOV      r2,r6
        0x000047f2:    463b        ;F      MOV      r3,r7
        0x000047f4:    4610        .F      MOV      r0,r2
        0x000047f6:    4619        .F      MOV      r1,r3
        0x000047f8:    f7fbff0c    ....    BL       __aeabi_dmul ; 0x614
        0x000047fc:    4606        .F      MOV      r6,r0
        0x000047fe:    460f        .F      MOV      r7,r1
        0x00004800:    1064        d.      ASRS     r4,r4,#1
        0x00004802:    2c00        .,      CMP      r4,#0
        0x00004804:    d1ea        ..      BNE      0x47dc ; _fp_digits + 112
        0x00004806:    9804        ..      LDR      r0,[sp,#0x10]
        0x00004808:    9b03        ..      LDR      r3,[sp,#0xc]
        0x0000480a:    2800        .(      CMP      r0,#0
        0x0000480c:    9a02        ..      LDR      r2,[sp,#8]
        0x0000480e:    9909        ..      LDR      r1,[sp,#0x24]
        0x00004810:    9808        ..      LDR      r0,[sp,#0x20]
        0x00004812:    da06        ..      BGE      0x4822 ; _fp_digits + 182
        0x00004814:    f7fbfefe    ....    BL       __aeabi_dmul ; 0x614
        0x00004818:    9b01        ..      LDR      r3,[sp,#4]
        0x0000481a:    9a00        ..      LDR      r2,[sp,#0]
        0x0000481c:    f7fbfefa    ....    BL       __aeabi_dmul ; 0x614
        0x00004820:    e005        ..      B        0x482e ; _fp_digits + 194
        0x00004822:    f7fbff5f    .._.    BL       __aeabi_ddiv ; 0x6e4
        0x00004826:    9b01        ..      LDR      r3,[sp,#4]
        0x00004828:    9a00        ..      LDR      r2,[sp,#0]
        0x0000482a:    f7fbff5b    ..[.    BL       __aeabi_ddiv ; 0x6e4
        0x0000482e:    4604        .F      MOV      r4,r0
        0x00004830:    460e        .F      MOV      r6,r1
        0x00004832:    2200        ."      MOVS     r2,#0
        0x00004834:    4b28        (K      LDR      r3,[pc,#160] ; [0x48d8] = 0x43f00000
        0x00004836:    f7fbffed    ....    BL       __aeabi_cdrcmple ; 0x814
        0x0000483a:    d803        ..      BHI      0x4844 ; _fp_digits + 216
        0x0000483c:    2000        .       MOVS     r0,#0
        0x0000483e:    43c0        .C      MVNS     r0,r0
        0x00004840:    4601        .F      MOV      r1,r0
        0x00004842:    e007        ..      B        0x4854 ; _fp_digits + 232
        0x00004844:    2200        ."      MOVS     r2,#0
        0x00004846:    4b25        %K      LDR      r3,[pc,#148] ; [0x48dc] = 0x3fe00000
        0x00004848:    4620         F      MOV      r0,r4
        0x0000484a:    4631        1F      MOV      r1,r6
        0x0000484c:    f7fbfe30    ..0.    BL       __aeabi_dadd ; 0x4b0
        0x00004850:    f7fbffc0    ....    BL       __aeabi_d2ulz ; 0x7d4
        0x00004854:    2410        .$      MOVS     r4,#0x10
        0x00004856:    e009        ..      B        0x486c ; _fp_digits + 256
        0x00004858:    2c00        .,      CMP      r4,#0
        0x0000485a:    db0a        ..      BLT      0x4872 ; _fp_digits + 262
        0x0000485c:    220a        ."      MOVS     r2,#0xa
        0x0000485e:    2300        .#      MOVS     r3,#0
        0x00004860:    f7fbfdb4    ....    BL       __aeabi_uldivmod ; 0x3cc
        0x00004864:    9b07        ..      LDR      r3,[sp,#0x1c]
        0x00004866:    3230        02      ADDS     r2,r2,#0x30
        0x00004868:    551a        .U      STRB     r2,[r3,r4]
        0x0000486a:    1e64        d.      SUBS     r4,r4,#1
        0x0000486c:    4602        .F      MOV      r2,r0
        0x0000486e:    430a        .C      ORRS     r2,r2,r1
        0x00004870:    d1f2        ..      BNE      0x4858 ; _fp_digits + 236
        0x00004872:    2211        ."      MOVS     r2,#0x11
        0x00004874:    1c64        d.      ADDS     r4,r4,#1
        0x00004876:    9b07        ..      LDR      r3,[sp,#0x1c]
        0x00004878:    1b12        ..      SUBS     r2,r2,r4
        0x0000487a:    191c        ..      ADDS     r4,r3,r4
        0x0000487c:    9b11        ..      LDR      r3,[sp,#0x44]
        0x0000487e:    2b01        .+      CMP      r3,#1
        0x00004880:    d003        ..      BEQ      0x488a ; _fp_digits + 286
        0x00004882:    2301        .#      MOVS     r3,#1
        0x00004884:    4308        .C      ORRS     r0,r0,r1
        0x00004886:    d10e        ..      BNE      0x48a6 ; _fp_digits + 314
        0x00004888:    e00a        ..      B        0x48a0 ; _fp_digits + 308
        0x0000488a:    4308        .C      ORRS     r0,r0,r1
        0x0000488c:    d004        ..      BEQ      0x4898 ; _fp_digits + 300
        0x0000488e:    2011        .       MOVS     r0,#0x11
        0x00004890:    9010        ..      STR      r0,[sp,#0x40]
        0x00004892:    2000        .       MOVS     r0,#0
        0x00004894:    9011        ..      STR      r0,[sp,#0x44]
        0x00004896:    e777        w.      B        0x4788 ; _fp_digits + 28
        0x00004898:    9810        ..      LDR      r0,[sp,#0x40]
        0x0000489a:    1a15        ..      SUBS     r5,r2,r0
        0x0000489c:    1e6d        m.      SUBS     r5,r5,#1
        0x0000489e:    e00b        ..      B        0x48b8 ; _fp_digits + 332
        0x000048a0:    9810        ..      LDR      r0,[sp,#0x40]
        0x000048a2:    4282        .B      CMP      r2,r0
        0x000048a4:    dd02        ..      BLE      0x48ac ; _fp_digits + 320
        0x000048a6:    2300        .#      MOVS     r3,#0
        0x000048a8:    1c6d        m.      ADDS     r5,r5,#1
        0x000048aa:    e003        ..      B        0x48b4 ; _fp_digits + 328
        0x000048ac:    4282        .B      CMP      r2,r0
        0x000048ae:    da01        ..      BGE      0x48b4 ; _fp_digits + 328
        0x000048b0:    2300        .#      MOVS     r3,#0
        0x000048b2:    1e6d        m.      SUBS     r5,r5,#1
        0x000048b4:    2b00        .+      CMP      r3,#0
        0x000048b6:    d0ee        ..      BEQ      0x4896 ; _fp_digits + 298
        0x000048b8:    9806        ..      LDR      r0,[sp,#0x18]
        0x000048ba:    9911        ..      LDR      r1,[sp,#0x44]
        0x000048bc:    6082        .`      STR      r2,[r0,#8]
        0x000048be:    60c1        .`      STR      r1,[r0,#0xc]
        0x000048c0:    c030        0.      STM      r0!,{r4,r5}
        0x000048c2:    e77e        ~.      B        0x47c2 ; _fp_digits + 86
    $d
        0x000048c4:    fffffc01    ....    DCD    4294966273
        0x000048c8:    00004d10    .M..    DCD    19728
        0x000048cc:    40140000    ...@    DCD    1075052544
        0x000048d0:    3ff00000    ...?    DCD    1072693248
        0x000048d4:    00000030    0...    DCD    48
        0x000048d8:    43f00000    ...C    DCD    1139802112
        0x000048dc:    3fe00000    ...?    DCD    1071644672
    $t
    i._printf_core
    _printf_core
        0x000048e0:    b5ff        ..      PUSH     {r0-r7,lr}
        0x000048e2:    b097        ..      SUB      sp,sp,#0x5c
        0x000048e4:    4606        .F      MOV      r6,r0
        0x000048e6:    2500        .%      MOVS     r5,#0
        0x000048e8:    e218        ..      B        0x4d1c ; _printf_core + 1084
        0x000048ea:    2825        %(      CMP      r0,#0x25
        0x000048ec:    d177        w.      BNE      0x49de ; _printf_core + 254
        0x000048ee:    2400        .$      MOVS     r4,#0
        0x000048f0:    4627        'F      MOV      r7,r4
        0x000048f2:    49fd        .I      LDR      r1,[pc,#1012] ; [0x4ce8] = 0x12809
        0x000048f4:    9404        ..      STR      r4,[sp,#0x10]
        0x000048f6:    e000        ..      B        0x48fa ; _printf_core + 26
        0x000048f8:    4304        .C      ORRS     r4,r4,r0
        0x000048fa:    1c76        v.      ADDS     r6,r6,#1
        0x000048fc:    7832        2x      LDRB     r2,[r6,#0]
        0x000048fe:    2001        .       MOVS     r0,#1
        0x00004900:    3a20         :      SUBS     r2,r2,#0x20
        0x00004902:    4090        .@      LSLS     r0,r0,r2
        0x00004904:    4208        .B      TST      r0,r1
        0x00004906:    d1f7        ..      BNE      0x48f8 ; _printf_core + 24
        0x00004908:    7830        0x      LDRB     r0,[r6,#0]
        0x0000490a:    282a        *(      CMP      r0,#0x2a
        0x0000490c:    d00e        ..      BEQ      0x492c ; _printf_core + 76
        0x0000490e:    2202        ."      MOVS     r2,#2
        0x00004910:    7830        0x      LDRB     r0,[r6,#0]
        0x00004912:    4601        .F      MOV      r1,r0
        0x00004914:    3930        09      SUBS     r1,r1,#0x30
        0x00004916:    2909        .)      CMP      r1,#9
        0x00004918:    d816        ..      BHI      0x4948 ; _printf_core + 104
        0x0000491a:    9904        ..      LDR      r1,[sp,#0x10]
        0x0000491c:    230a        .#      MOVS     r3,#0xa
        0x0000491e:    4359        YC      MULS     r1,r3,r1
        0x00004920:    3930        09      SUBS     r1,r1,#0x30
        0x00004922:    1840        @.      ADDS     r0,r0,r1
        0x00004924:    4314        .C      ORRS     r4,r4,r2
        0x00004926:    1c76        v.      ADDS     r6,r6,#1
        0x00004928:    9004        ..      STR      r0,[sp,#0x10]
        0x0000492a:    e7f1        ..      B        0x4910 ; _printf_core + 48
        0x0000492c:    9818        ..      LDR      r0,[sp,#0x60]
        0x0000492e:    c802        ..      LDM      r0!,{r1}
        0x00004930:    9104        ..      STR      r1,[sp,#0x10]
        0x00004932:    9018        ..      STR      r0,[sp,#0x60]
        0x00004934:    2900        .)      CMP      r1,#0
        0x00004936:    da04        ..      BGE      0x4942 ; _printf_core + 98
        0x00004938:    2001        .       MOVS     r0,#1
        0x0000493a:    0340        @.      LSLS     r0,r0,#13
        0x0000493c:    4304        .C      ORRS     r4,r4,r0
        0x0000493e:    4248        HB      RSBS     r0,r1,#0
        0x00004940:    9004        ..      STR      r0,[sp,#0x10]
        0x00004942:    2002        .       MOVS     r0,#2
        0x00004944:    4304        .C      ORRS     r4,r4,r0
        0x00004946:    1c76        v.      ADDS     r6,r6,#1
        0x00004948:    7830        0x      LDRB     r0,[r6,#0]
        0x0000494a:    282e        .(      CMP      r0,#0x2e
        0x0000494c:    d114        ..      BNE      0x4978 ; _printf_core + 152
        0x0000494e:    2004        .       MOVS     r0,#4
        0x00004950:    4304        .C      ORRS     r4,r4,r0
        0x00004952:    7870        px      LDRB     r0,[r6,#1]
        0x00004954:    1c76        v.      ADDS     r6,r6,#1
        0x00004956:    282a        *(      CMP      r0,#0x2a
        0x00004958:    d109        ..      BNE      0x496e ; _printf_core + 142
        0x0000495a:    9818        ..      LDR      r0,[sp,#0x60]
        0x0000495c:    1c76        v.      ADDS     r6,r6,#1
        0x0000495e:    c880        ..      LDM      r0!,{r7}
        0x00004960:    9018        ..      STR      r0,[sp,#0x60]
        0x00004962:    e009        ..      B        0x4978 ; _printf_core + 152
        0x00004964:    210a        .!      MOVS     r1,#0xa
        0x00004966:    434f        OC      MULS     r7,r1,r7
        0x00004968:    3f30        0?      SUBS     r7,r7,#0x30
        0x0000496a:    19c7        ..      ADDS     r7,r0,r7
        0x0000496c:    1c76        v.      ADDS     r6,r6,#1
        0x0000496e:    7830        0x      LDRB     r0,[r6,#0]
        0x00004970:    4601        .F      MOV      r1,r0
        0x00004972:    3930        09      SUBS     r1,r1,#0x30
        0x00004974:    2909        .)      CMP      r1,#9
        0x00004976:    d9f5        ..      BLS      0x4964 ; _printf_core + 132
        0x00004978:    7830        0x      LDRB     r0,[r6,#0]
        0x0000497a:    286c        l(      CMP      r0,#0x6c
        0x0000497c:    d010        ..      BEQ      0x49a0 ; _printf_core + 192
        0x0000497e:    dc06        ..      BGT      0x498e ; _printf_core + 174
        0x00004980:    284c        L(      CMP      r0,#0x4c
        0x00004982:    d01a        ..      BEQ      0x49ba ; _printf_core + 218
        0x00004984:    2868        h(      CMP      r0,#0x68
        0x00004986:    d00e        ..      BEQ      0x49a6 ; _printf_core + 198
        0x00004988:    286a        j(      CMP      r0,#0x6a
        0x0000498a:    d117        ..      BNE      0x49bc ; _printf_core + 220
        0x0000498c:    e004        ..      B        0x4998 ; _printf_core + 184
        0x0000498e:    2874        t(      CMP      r0,#0x74
        0x00004990:    d013        ..      BEQ      0x49ba ; _printf_core + 218
        0x00004992:    287a        z(      CMP      r0,#0x7a
        0x00004994:    d112        ..      BNE      0x49bc ; _printf_core + 220
        0x00004996:    e010        ..      B        0x49ba ; _printf_core + 218
        0x00004998:    2001        .       MOVS     r0,#1
        0x0000499a:    0540        @.      LSLS     r0,r0,#21
        0x0000499c:    4304        .C      ORRS     r4,r4,r0
        0x0000499e:    e00c        ..      B        0x49ba ; _printf_core + 218
        0x000049a0:    2101        .!      MOVS     r1,#1
        0x000049a2:    0509        ..      LSLS     r1,r1,#20
        0x000049a4:    e001        ..      B        0x49aa ; _printf_core + 202
        0x000049a6:    2103        .!      MOVS     r1,#3
        0x000049a8:    0509        ..      LSLS     r1,r1,#20
        0x000049aa:    430c        .C      ORRS     r4,r4,r1
        0x000049ac:    7871        qx      LDRB     r1,[r6,#1]
        0x000049ae:    4281        .B      CMP      r1,r0
        0x000049b0:    d103        ..      BNE      0x49ba ; _printf_core + 218
        0x000049b2:    2001        .       MOVS     r0,#1
        0x000049b4:    0500        ..      LSLS     r0,r0,#20
        0x000049b6:    1824        $.      ADDS     r4,r4,r0
        0x000049b8:    1c76        v.      ADDS     r6,r6,#1
        0x000049ba:    1c76        v.      ADDS     r6,r6,#1
        0x000049bc:    7830        0x      LDRB     r0,[r6,#0]
        0x000049be:    9011        ..      STR      r0,[sp,#0x44]
        0x000049c0:    2866        f(      CMP      r0,#0x66
        0x000049c2:    d00b        ..      BEQ      0x49dc ; _printf_core + 252
        0x000049c4:    dc13        ..      BGT      0x49ee ; _printf_core + 270
        0x000049c6:    2858        X(      CMP      r0,#0x58
        0x000049c8:    d07d        }.      BEQ      0x4ac6 ; _printf_core + 486
        0x000049ca:    dc09        ..      BGT      0x49e0 ; _printf_core + 256
        0x000049cc:    2800        .(      CMP      r0,#0
        0x000049ce:    d07b        {.      BEQ      0x4ac8 ; _printf_core + 488
        0x000049d0:    2845        E(      CMP      r0,#0x45
        0x000049d2:    d0f6        ..      BEQ      0x49c2 ; _printf_core + 226
        0x000049d4:    2846        F(      CMP      r0,#0x46
        0x000049d6:    d0f4        ..      BEQ      0x49c2 ; _printf_core + 226
        0x000049d8:    2847        G(      CMP      r0,#0x47
        0x000049da:    d11a        ..      BNE      0x4a12 ; _printf_core + 306
        0x000049dc:    e1a5        ..      B        0x4d2a ; _printf_core + 1098
        0x000049de:    e018        ..      B        0x4a12 ; _printf_core + 306
        0x000049e0:    2863        c(      CMP      r0,#0x63
        0x000049e2:    d035        5.      BEQ      0x4a50 ; _printf_core + 368
        0x000049e4:    2864        d(      CMP      r0,#0x64
        0x000049e6:    d070        p.      BEQ      0x4aca ; _printf_core + 490
        0x000049e8:    2865        e(      CMP      r0,#0x65
        0x000049ea:    d112        ..      BNE      0x4a12 ; _printf_core + 306
        0x000049ec:    e19d        ..      B        0x4d2a ; _printf_core + 1098
        0x000049ee:    2870        p(      CMP      r0,#0x70
        0x000049f0:    d06c        l.      BEQ      0x4acc ; _printf_core + 492
        0x000049f2:    dc08        ..      BGT      0x4a06 ; _printf_core + 294
        0x000049f4:    2867        g(      CMP      r0,#0x67
        0x000049f6:    d0f1        ..      BEQ      0x49dc ; _printf_core + 252
        0x000049f8:    2869        i(      CMP      r0,#0x69
        0x000049fa:    d07b        {.      BEQ      0x4af4 ; _printf_core + 532
        0x000049fc:    286e        n(      CMP      r0,#0x6e
        0x000049fe:    d00d        ..      BEQ      0x4a1c ; _printf_core + 316
        0x00004a00:    286f        o(      CMP      r0,#0x6f
        0x00004a02:    d106        ..      BNE      0x4a12 ; _printf_core + 306
        0x00004a04:    e0ba        ..      B        0x4b7c ; _printf_core + 668
        0x00004a06:    2873        s(      CMP      r0,#0x73
        0x00004a08:    d02e        ..      BEQ      0x4a68 ; _printf_core + 392
        0x00004a0a:    2875        u(      CMP      r0,#0x75
        0x00004a0c:    d071        q.      BEQ      0x4af2 ; _printf_core + 530
        0x00004a0e:    2878        x(      CMP      r0,#0x78
        0x00004a10:    d059        Y.      BEQ      0x4ac6 ; _printf_core + 486
        0x00004a12:    9a1a        ..      LDR      r2,[sp,#0x68]
        0x00004a14:    9919        ..      LDR      r1,[sp,#0x64]
        0x00004a16:    4790        .G      BLX      r2
        0x00004a18:    1c6d        m.      ADDS     r5,r5,#1
        0x00004a1a:    e17e        ~.      B        0x4d1a ; _printf_core + 1082
        0x00004a1c:    0260        `.      LSLS     r0,r4,#9
        0x00004a1e:    0f40        @.      LSRS     r0,r0,#29
        0x00004a20:    2802        .(      CMP      r0,#2
        0x00004a22:    d009        ..      BEQ      0x4a38 ; _printf_core + 344
        0x00004a24:    2803        .(      CMP      r0,#3
        0x00004a26:    d00d        ..      BEQ      0x4a44 ; _printf_core + 356
        0x00004a28:    2804        .(      CMP      r0,#4
        0x00004a2a:    9818        ..      LDR      r0,[sp,#0x60]
        0x00004a2c:    6801        .h      LDR      r1,[r0,#0]
        0x00004a2e:    d00d        ..      BEQ      0x4a4c ; _printf_core + 364
        0x00004a30:    600d        .`      STR      r5,[r1,#0]
        0x00004a32:    1d00        ..      ADDS     r0,r0,#4
        0x00004a34:    9018        ..      STR      r0,[sp,#0x60]
        0x00004a36:    e170        p.      B        0x4d1a ; _printf_core + 1082
        0x00004a38:    9818        ..      LDR      r0,[sp,#0x60]
        0x00004a3a:    17ea        ..      ASRS     r2,r5,#31
        0x00004a3c:    6801        .h      LDR      r1,[r0,#0]
        0x00004a3e:    600d        .`      STR      r5,[r1,#0]
        0x00004a40:    604a        J`      STR      r2,[r1,#4]
        0x00004a42:    e7f6        ..      B        0x4a32 ; _printf_core + 338
        0x00004a44:    9818        ..      LDR      r0,[sp,#0x60]
        0x00004a46:    6801        .h      LDR      r1,[r0,#0]
        0x00004a48:    800d        ..      STRH     r5,[r1,#0]
        0x00004a4a:    e7f2        ..      B        0x4a32 ; _printf_core + 338
        0x00004a4c:    700d        .p      STRB     r5,[r1,#0]
        0x00004a4e:    e7f0        ..      B        0x4a32 ; _printf_core + 338
        0x00004a50:    9818        ..      LDR      r0,[sp,#0x60]
        0x00004a52:    466a        jF      MOV      r2,sp
        0x00004a54:    7801        .x      LDRB     r1,[r0,#0]
        0x00004a56:    7211        .r      STRB     r1,[r2,#8]
        0x00004a58:    1d00        ..      ADDS     r0,r0,#4
        0x00004a5a:    9018        ..      STR      r0,[sp,#0x60]
        0x00004a5c:    2000        .       MOVS     r0,#0
        0x00004a5e:    7250        Pr      STRB     r0,[r2,#9]
        0x00004a60:    a802        ..      ADD      r0,sp,#8
        0x00004a62:    9000        ..      STR      r0,[sp,#0]
        0x00004a64:    2001        .       MOVS     r0,#1
        0x00004a66:    e005        ..      B        0x4a74 ; _printf_core + 404
        0x00004a68:    9818        ..      LDR      r0,[sp,#0x60]
        0x00004a6a:    c802        ..      LDM      r0!,{r1}
        0x00004a6c:    9018        ..      STR      r0,[sp,#0x60]
        0x00004a6e:    2000        .       MOVS     r0,#0
        0x00004a70:    9100        ..      STR      r1,[sp,#0]
        0x00004a72:    43c0        .C      MVNS     r0,r0
        0x00004a74:    0761        a.      LSLS     r1,r4,#29
        0x00004a76:    d50d        ..      BPL      0x4a94 ; _printf_core + 436
        0x00004a78:    2100        .!      MOVS     r1,#0
        0x00004a7a:    e001        ..      B        0x4a80 ; _printf_core + 416
        0x00004a7c:    9901        ..      LDR      r1,[sp,#4]
        0x00004a7e:    1c49        I.      ADDS     r1,r1,#1
        0x00004a80:    9101        ..      STR      r1,[sp,#4]
        0x00004a82:    42b9        .B      CMP      r1,r7
        0x00004a84:    da12        ..      BGE      0x4aac ; _printf_core + 460
        0x00004a86:    4281        .B      CMP      r1,r0
        0x00004a88:    dbf8        ..      BLT      0x4a7c ; _printf_core + 412
        0x00004a8a:    9a00        ..      LDR      r2,[sp,#0]
        0x00004a8c:    5c51        Q\      LDRB     r1,[r2,r1]
        0x00004a8e:    2900        .)      CMP      r1,#0
        0x00004a90:    d1f4        ..      BNE      0x4a7c ; _printf_core + 412
        0x00004a92:    e00b        ..      B        0x4aac ; _printf_core + 460
        0x00004a94:    2100        .!      MOVS     r1,#0
        0x00004a96:    e001        ..      B        0x4a9c ; _printf_core + 444
        0x00004a98:    9901        ..      LDR      r1,[sp,#4]
        0x00004a9a:    1c49        I.      ADDS     r1,r1,#1
        0x00004a9c:    9101        ..      STR      r1,[sp,#4]
        0x00004a9e:    4281        .B      CMP      r1,r0
        0x00004aa0:    dbfa        ..      BLT      0x4a98 ; _printf_core + 440
        0x00004aa2:    9a01        ..      LDR      r2,[sp,#4]
        0x00004aa4:    9900        ..      LDR      r1,[sp,#0]
        0x00004aa6:    5c89        .\      LDRB     r1,[r1,r2]
        0x00004aa8:    2900        .)      CMP      r1,#0
        0x00004aaa:    d1f5        ..      BNE      0x4a98 ; _printf_core + 440
        0x00004aac:    9901        ..      LDR      r1,[sp,#4]
        0x00004aae:    9804        ..      LDR      r0,[sp,#0x10]
        0x00004ab0:    9b1a        ..      LDR      r3,[sp,#0x68]
        0x00004ab2:    1a47        G.      SUBS     r7,r0,r1
        0x00004ab4:    4621        !F      MOV      r1,r4
        0x00004ab6:    4638        8F      MOV      r0,r7
        0x00004ab8:    9a19        ..      LDR      r2,[sp,#0x64]
        0x00004aba:    f000fa97    ....    BL       _printf_pre_padding ; 0x4fec
        0x00004abe:    9901        ..      LDR      r1,[sp,#4]
        0x00004ac0:    1940        @.      ADDS     r0,r0,r5
        0x00004ac2:    1845        E.      ADDS     r5,r0,r1
        0x00004ac4:    e00b        ..      B        0x4ade ; _printf_core + 510
        0x00004ac6:    e04f        O.      B        0x4b68 ; _printf_core + 648
        0x00004ac8:    e12c        ,.      B        0x4d24 ; _printf_core + 1092
        0x00004aca:    e013        ..      B        0x4af4 ; _printf_core + 532
        0x00004acc:    e04e        N.      B        0x4b6c ; _printf_core + 652
        0x00004ace:    9800        ..      LDR      r0,[sp,#0]
        0x00004ad0:    9900        ..      LDR      r1,[sp,#0]
        0x00004ad2:    7800        .x      LDRB     r0,[r0,#0]
        0x00004ad4:    1c49        I.      ADDS     r1,r1,#1
        0x00004ad6:    9100        ..      STR      r1,[sp,#0]
        0x00004ad8:    9a1a        ..      LDR      r2,[sp,#0x68]
        0x00004ada:    9919        ..      LDR      r1,[sp,#0x64]
        0x00004adc:    4790        .G      BLX      r2
        0x00004ade:    9801        ..      LDR      r0,[sp,#4]
        0x00004ae0:    1e40        @.      SUBS     r0,r0,#1
        0x00004ae2:    9001        ..      STR      r0,[sp,#4]
        0x00004ae4:    1c40        @.      ADDS     r0,r0,#1
        0x00004ae6:    d1f2        ..      BNE      0x4ace ; _printf_core + 494
        0x00004ae8:    4621        !F      MOV      r1,r4
        0x00004aea:    4638        8F      MOV      r0,r7
        0x00004aec:    9b1a        ..      LDR      r3,[sp,#0x68]
        0x00004aee:    9a19        ..      LDR      r2,[sp,#0x64]
        0x00004af0:    e110        ..      B        0x4d14 ; _printf_core + 1076
        0x00004af2:    e037        7.      B        0x4b64 ; _printf_core + 644
        0x00004af4:    200a        .       MOVS     r0,#0xa
        0x00004af6:    2100        .!      MOVS     r1,#0
        0x00004af8:    9000        ..      STR      r0,[sp,#0]
        0x00004afa:    9101        ..      STR      r1,[sp,#4]
        0x00004afc:    0260        `.      LSLS     r0,r4,#9
        0x00004afe:    0f41        A.      LSRS     r1,r0,#29
        0x00004b00:    2902        .)      CMP      r1,#2
        0x00004b02:    d007        ..      BEQ      0x4b14 ; _printf_core + 564
        0x00004b04:    9a18        ..      LDR      r2,[sp,#0x60]
        0x00004b06:    ca01        ..      LDM      r2!,{r0}
        0x00004b08:    9218        ..      STR      r2,[sp,#0x60]
        0x00004b0a:    17c2        ..      ASRS     r2,r0,#31
        0x00004b0c:    4694        .F      MOV      r12,r2
        0x00004b0e:    2903        .)      CMP      r1,#3
        0x00004b10:    d008        ..      BEQ      0x4b24 ; _printf_core + 580
        0x00004b12:    e00a        ..      B        0x4b2a ; _printf_core + 586
        0x00004b14:    9818        ..      LDR      r0,[sp,#0x60]
        0x00004b16:    1dc0        ..      ADDS     r0,r0,#7
        0x00004b18:    08c1        ..      LSRS     r1,r0,#3
        0x00004b1a:    00c9        ..      LSLS     r1,r1,#3
        0x00004b1c:    c905        ..      LDM      r1!,{r0,r2}
        0x00004b1e:    9118        ..      STR      r1,[sp,#0x60]
        0x00004b20:    4694        .F      MOV      r12,r2
        0x00004b22:    e007        ..      B        0x4b34 ; _printf_core + 596
        0x00004b24:    b200        ..      SXTH     r0,r0
        0x00004b26:    17c2        ..      ASRS     r2,r0,#31
        0x00004b28:    4694        .F      MOV      r12,r2
        0x00004b2a:    2904        .)      CMP      r1,#4
        0x00004b2c:    d102        ..      BNE      0x4b34 ; _printf_core + 596
        0x00004b2e:    b240        @.      SXTB     r0,r0
        0x00004b30:    17c1        ..      ASRS     r1,r0,#31
        0x00004b32:    468c        .F      MOV      r12,r1
        0x00004b34:    2200        ."      MOVS     r2,#0
        0x00004b36:    4661        aF      MOV      r1,r12
        0x00004b38:    4594        .E      CMP      r12,r2
        0x00004b3a:    da06        ..      BGE      0x4b4a ; _printf_core + 618
        0x00004b3c:    460a        .F      MOV      r2,r1
        0x00004b3e:    2100        .!      MOVS     r1,#0
        0x00004b40:    4240        @B      RSBS     r0,r0,#0
        0x00004b42:    4191        .A      SBCS     r1,r1,r2
        0x00004b44:    468c        .F      MOV      r12,r1
        0x00004b46:    212d        -!      MOVS     r1,#0x2d
        0x00004b48:    e002        ..      B        0x4b50 ; _printf_core + 624
        0x00004b4a:    0521        !.      LSLS     r1,r4,#20
        0x00004b4c:    d504        ..      BPL      0x4b58 ; _printf_core + 632
        0x00004b4e:    212b        +!      MOVS     r1,#0x2b
        0x00004b50:    466a        jF      MOV      r2,sp
        0x00004b52:    7311        .s      STRB     r1,[r2,#0xc]
        0x00004b54:    2101        .!      MOVS     r1,#1
        0x00004b56:    e003        ..      B        0x4b60 ; _printf_core + 640
        0x00004b58:    07e1        ..      LSLS     r1,r4,#31
        0x00004b5a:    d001        ..      BEQ      0x4b60 ; _printf_core + 640
        0x00004b5c:    2120         !      MOVS     r1,#0x20
        0x00004b5e:    e7f7        ..      B        0x4b50 ; _printf_core + 624
        0x00004b60:    9102        ..      STR      r1,[sp,#8]
        0x00004b62:    e055        U.      B        0x4c10 ; _printf_core + 816
        0x00004b64:    200a        .       MOVS     r0,#0xa
        0x00004b66:    e00a        ..      B        0x4b7e ; _printf_core + 670
        0x00004b68:    2010        .       MOVS     r0,#0x10
        0x00004b6a:    e008        ..      B        0x4b7e ; _printf_core + 670
        0x00004b6c:    2010        .       MOVS     r0,#0x10
        0x00004b6e:    9000        ..      STR      r0,[sp,#0]
        0x00004b70:    2100        .!      MOVS     r1,#0
        0x00004b72:    2004        .       MOVS     r0,#4
        0x00004b74:    4304        .C      ORRS     r4,r4,r0
        0x00004b76:    9101        ..      STR      r1,[sp,#4]
        0x00004b78:    2708        .'      MOVS     r7,#8
        0x00004b7a:    e003        ..      B        0x4b84 ; _printf_core + 676
        0x00004b7c:    2008        .       MOVS     r0,#8
        0x00004b7e:    2100        .!      MOVS     r1,#0
        0x00004b80:    9101        ..      STR      r1,[sp,#4]
        0x00004b82:    9000        ..      STR      r0,[sp,#0]
        0x00004b84:    0260        `.      LSLS     r0,r4,#9
        0x00004b86:    0f41        A.      LSRS     r1,r0,#29
        0x00004b88:    2902        .)      CMP      r1,#2
        0x00004b8a:    d007        ..      BEQ      0x4b9c ; _printf_core + 700
        0x00004b8c:    9a18        ..      LDR      r2,[sp,#0x60]
        0x00004b8e:    ca01        ..      LDM      r2!,{r0}
        0x00004b90:    9218        ..      STR      r2,[sp,#0x60]
        0x00004b92:    2200        ."      MOVS     r2,#0
        0x00004b94:    4694        .F      MOV      r12,r2
        0x00004b96:    2903        .)      CMP      r1,#3
        0x00004b98:    d008        ..      BEQ      0x4bac ; _printf_core + 716
        0x00004b9a:    e008        ..      B        0x4bae ; _printf_core + 718
        0x00004b9c:    9818        ..      LDR      r0,[sp,#0x60]
        0x00004b9e:    1dc0        ..      ADDS     r0,r0,#7
        0x00004ba0:    08c1        ..      LSRS     r1,r0,#3
        0x00004ba2:    00c9        ..      LSLS     r1,r1,#3
        0x00004ba4:    c905        ..      LDM      r1!,{r0,r2}
        0x00004ba6:    9118        ..      STR      r1,[sp,#0x60]
        0x00004ba8:    4694        .F      MOV      r12,r2
        0x00004baa:    e003        ..      B        0x4bb4 ; _printf_core + 724
        0x00004bac:    b280        ..      UXTH     r0,r0
        0x00004bae:    2904        .)      CMP      r1,#4
        0x00004bb0:    d100        ..      BNE      0x4bb4 ; _printf_core + 724
        0x00004bb2:    b2c0        ..      UXTB     r0,r0
        0x00004bb4:    2100        .!      MOVS     r1,#0
        0x00004bb6:    9102        ..      STR      r1,[sp,#8]
        0x00004bb8:    0721        !.      LSLS     r1,r4,#28
        0x00004bba:    d529        ).      BPL      0x4c10 ; _printf_core + 816
        0x00004bbc:    9911        ..      LDR      r1,[sp,#0x44]
        0x00004bbe:    2970        p)      CMP      r1,#0x70
        0x00004bc0:    d006        ..      BEQ      0x4bd0 ; _printf_core + 752
        0x00004bc2:    9a00        ..      LDR      r2,[sp,#0]
        0x00004bc4:    2110        .!      MOVS     r1,#0x10
        0x00004bc6:    9b01        ..      LDR      r3,[sp,#4]
        0x00004bc8:    404a        J@      EORS     r2,r2,r1
        0x00004bca:    431a        .C      ORRS     r2,r2,r3
        0x00004bcc:    d005        ..      BEQ      0x4bda ; _printf_core + 762
        0x00004bce:    e00e        ..      B        0x4bee ; _printf_core + 782
        0x00004bd0:    2140        @!      MOVS     r1,#0x40
        0x00004bd2:    466a        jF      MOV      r2,sp
        0x00004bd4:    7311        .s      STRB     r1,[r2,#0xc]
        0x00004bd6:    2101        .!      MOVS     r1,#1
        0x00004bd8:    e008        ..      B        0x4bec ; _printf_core + 780
        0x00004bda:    4661        aF      MOV      r1,r12
        0x00004bdc:    4301        .C      ORRS     r1,r1,r0
        0x00004bde:    d006        ..      BEQ      0x4bee ; _printf_core + 782
        0x00004be0:    2130        0!      MOVS     r1,#0x30
        0x00004be2:    466a        jF      MOV      r2,sp
        0x00004be4:    7311        .s      STRB     r1,[r2,#0xc]
        0x00004be6:    9911        ..      LDR      r1,[sp,#0x44]
        0x00004be8:    7351        Qs      STRB     r1,[r2,#0xd]
        0x00004bea:    2102        .!      MOVS     r1,#2
        0x00004bec:    9102        ..      STR      r1,[sp,#8]
        0x00004bee:    9a00        ..      LDR      r2,[sp,#0]
        0x00004bf0:    2108        .!      MOVS     r1,#8
        0x00004bf2:    9b01        ..      LDR      r3,[sp,#4]
        0x00004bf4:    404a        J@      EORS     r2,r2,r1
        0x00004bf6:    431a        .C      ORRS     r2,r2,r3
        0x00004bf8:    d10a        ..      BNE      0x4c10 ; _printf_core + 816
        0x00004bfa:    4661        aF      MOV      r1,r12
        0x00004bfc:    4301        .C      ORRS     r1,r1,r0
        0x00004bfe:    d101        ..      BNE      0x4c04 ; _printf_core + 804
        0x00004c00:    0761        a.      LSLS     r1,r4,#29
        0x00004c02:    d505        ..      BPL      0x4c10 ; _printf_core + 816
        0x00004c04:    2130        0!      MOVS     r1,#0x30
        0x00004c06:    466a        jF      MOV      r2,sp
        0x00004c08:    7311        .s      STRB     r1,[r2,#0xc]
        0x00004c0a:    2101        .!      MOVS     r1,#1
        0x00004c0c:    1e7f        ..      SUBS     r7,r7,#1
        0x00004c0e:    9102        ..      STR      r1,[sp,#8]
        0x00004c10:    9911        ..      LDR      r1,[sp,#0x44]
        0x00004c12:    2958        X)      CMP      r1,#0x58
        0x00004c14:    d004        ..      BEQ      0x4c20 ; _printf_core + 832
        0x00004c16:    a135        5.      ADR      r1,{pc}+0xd6 ; 0x4cec
        0x00004c18:    910e        ..      STR      r1,[sp,#0x38]
        0x00004c1a:    a90d        ..      ADD      r1,sp,#0x34
        0x00004c1c:    910d        ..      STR      r1,[sp,#0x34]
        0x00004c1e:    e00d        ..      B        0x4c3c ; _printf_core + 860
        0x00004c20:    a137        7.      ADR      r1,{pc}+0xe0 ; 0x4d00
        0x00004c22:    e7f9        ..      B        0x4c18 ; _printf_core + 824
        0x00004c24:    4661        aF      MOV      r1,r12
        0x00004c26:    9b01        ..      LDR      r3,[sp,#4]
        0x00004c28:    9a00        ..      LDR      r2,[sp,#0]
        0x00004c2a:    f7fbfbcf    ....    BL       __aeabi_uldivmod ; 0x3cc
        0x00004c2e:    9b0e        ..      LDR      r3,[sp,#0x38]
        0x00004c30:    468c        .F      MOV      r12,r1
        0x00004c32:    5c9b        .\      LDRB     r3,[r3,r2]
        0x00004c34:    9a0d        ..      LDR      r2,[sp,#0x34]
        0x00004c36:    1e52        R.      SUBS     r2,r2,#1
        0x00004c38:    920d        ..      STR      r2,[sp,#0x34]
        0x00004c3a:    7013        .p      STRB     r3,[r2,#0]
        0x00004c3c:    4661        aF      MOV      r1,r12
        0x00004c3e:    4301        .C      ORRS     r1,r1,r0
        0x00004c40:    d1f0        ..      BNE      0x4c24 ; _printf_core + 836
        0x00004c42:    980d        ..      LDR      r0,[sp,#0x34]
        0x00004c44:    a905        ..      ADD      r1,sp,#0x14
        0x00004c46:    1a08        ..      SUBS     r0,r1,r0
        0x00004c48:    3020         0      ADDS     r0,r0,#0x20
        0x00004c4a:    9001        ..      STR      r0,[sp,#4]
        0x00004c4c:    0760        `.      LSLS     r0,r4,#29
        0x00004c4e:    d503        ..      BPL      0x4c58 ; _printf_core + 888
        0x00004c50:    2001        .       MOVS     r0,#1
        0x00004c52:    0400        ..      LSLS     r0,r0,#16
        0x00004c54:    4384        .C      BICS     r4,r4,r0
        0x00004c56:    e000        ..      B        0x4c5a ; _printf_core + 890
        0x00004c58:    2701        .'      MOVS     r7,#1
        0x00004c5a:    9801        ..      LDR      r0,[sp,#4]
        0x00004c5c:    4287        .B      CMP      r7,r0
        0x00004c5e:    dd01        ..      BLE      0x4c64 ; _printf_core + 900
        0x00004c60:    1a38        8.      SUBS     r0,r7,r0
        0x00004c62:    e000        ..      B        0x4c66 ; _printf_core + 902
        0x00004c64:    2000        .       MOVS     r0,#0
        0x00004c66:    9901        ..      LDR      r1,[sp,#4]
        0x00004c68:    9000        ..      STR      r0,[sp,#0]
        0x00004c6a:    1841        A.      ADDS     r1,r0,r1
        0x00004c6c:    9802        ..      LDR      r0,[sp,#8]
        0x00004c6e:    1809        ..      ADDS     r1,r1,r0
        0x00004c70:    9804        ..      LDR      r0,[sp,#0x10]
        0x00004c72:    1a40        @.      SUBS     r0,r0,r1
        0x00004c74:    9004        ..      STR      r0,[sp,#0x10]
        0x00004c76:    03e0        ..      LSLS     r0,r4,#15
        0x00004c78:    d406        ..      BMI      0x4c88 ; _printf_core + 936
        0x00004c7a:    4621        !F      MOV      r1,r4
        0x00004c7c:    9b1a        ..      LDR      r3,[sp,#0x68]
        0x00004c7e:    9a19        ..      LDR      r2,[sp,#0x64]
        0x00004c80:    9804        ..      LDR      r0,[sp,#0x10]
        0x00004c82:    f000f9b3    ....    BL       _printf_pre_padding ; 0x4fec
        0x00004c86:    1945        E.      ADDS     r5,r0,r5
        0x00004c88:    2700        .'      MOVS     r7,#0
        0x00004c8a:    e006        ..      B        0x4c9a ; _printf_core + 954
        0x00004c8c:    a803        ..      ADD      r0,sp,#0xc
        0x00004c8e:    9a1a        ..      LDR      r2,[sp,#0x68]
        0x00004c90:    5dc0        .]      LDRB     r0,[r0,r7]
        0x00004c92:    9919        ..      LDR      r1,[sp,#0x64]
        0x00004c94:    4790        .G      BLX      r2
        0x00004c96:    1c6d        m.      ADDS     r5,r5,#1
        0x00004c98:    1c7f        ..      ADDS     r7,r7,#1
        0x00004c9a:    9802        ..      LDR      r0,[sp,#8]
        0x00004c9c:    4287        .B      CMP      r7,r0
        0x00004c9e:    dbf5        ..      BLT      0x4c8c ; _printf_core + 940
        0x00004ca0:    03e0        ..      LSLS     r0,r4,#15
        0x00004ca2:    d50c        ..      BPL      0x4cbe ; _printf_core + 990
        0x00004ca4:    4621        !F      MOV      r1,r4
        0x00004ca6:    9b1a        ..      LDR      r3,[sp,#0x68]
        0x00004ca8:    9a19        ..      LDR      r2,[sp,#0x64]
        0x00004caa:    9804        ..      LDR      r0,[sp,#0x10]
        0x00004cac:    f000f99e    ....    BL       _printf_pre_padding ; 0x4fec
        0x00004cb0:    1945        E.      ADDS     r5,r0,r5
        0x00004cb2:    e004        ..      B        0x4cbe ; _printf_core + 990
        0x00004cb4:    9a1a        ..      LDR      r2,[sp,#0x68]
        0x00004cb6:    2030        0       MOVS     r0,#0x30
        0x00004cb8:    9919        ..      LDR      r1,[sp,#0x64]
        0x00004cba:    4790        .G      BLX      r2
        0x00004cbc:    1c6d        m.      ADDS     r5,r5,#1
        0x00004cbe:    9900        ..      LDR      r1,[sp,#0]
        0x00004cc0:    1e48        H.      SUBS     r0,r1,#1
        0x00004cc2:    9000        ..      STR      r0,[sp,#0]
        0x00004cc4:    2900        .)      CMP      r1,#0
        0x00004cc6:    dcf5        ..      BGT      0x4cb4 ; _printf_core + 980
        0x00004cc8:    e008        ..      B        0x4cdc ; _printf_core + 1020
        0x00004cca:    980d        ..      LDR      r0,[sp,#0x34]
        0x00004ccc:    990d        ..      LDR      r1,[sp,#0x34]
        0x00004cce:    7800        .x      LDRB     r0,[r0,#0]
        0x00004cd0:    1c49        I.      ADDS     r1,r1,#1
        0x00004cd2:    910d        ..      STR      r1,[sp,#0x34]
        0x00004cd4:    9a1a        ..      LDR      r2,[sp,#0x68]
        0x00004cd6:    9919        ..      LDR      r1,[sp,#0x64]
        0x00004cd8:    4790        .G      BLX      r2
        0x00004cda:    1c6d        m.      ADDS     r5,r5,#1
        0x00004cdc:    9901        ..      LDR      r1,[sp,#4]
        0x00004cde:    1e48        H.      SUBS     r0,r1,#1
        0x00004ce0:    9001        ..      STR      r0,[sp,#4]
        0x00004ce2:    2900        .)      CMP      r1,#0
        0x00004ce4:    dcf1        ..      BGT      0x4cca ; _printf_core + 1002
        0x00004ce6:    e163        c.      B        0x4fb0 ; _printf_core + 1744
    $d
        0x00004ce8:    00012809    .(..    DCD    75785
        0x00004cec:    33323130    0123    DCD    858927408
        0x00004cf0:    37363534    4567    DCD    926299444
        0x00004cf4:    62613938    89ab    DCD    1650538808
        0x00004cf8:    66656463    cdef    DCD    1717920867
        0x00004cfc:    00000000    ....    DCD    0
        0x00004d00:    33323130    0123    DCD    858927408
        0x00004d04:    37363534    4567    DCD    926299444
        0x00004d08:    42413938    89AB    DCD    1111570744
        0x00004d0c:    46454443    CDEF    DCD    1178944579
        0x00004d10:    00000000    ....    DCD    0
    $t
        0x00004d14:    f000f95a    ..Z.    BL       _printf_post_padding ; 0x4fcc
        0x00004d18:    1945        E.      ADDS     r5,r0,r5
        0x00004d1a:    1c76        v.      ADDS     r6,r6,#1
        0x00004d1c:    7830        0x      LDRB     r0,[r6,#0]
        0x00004d1e:    2800        .(      CMP      r0,#0
        0x00004d20:    d000        ..      BEQ      0x4d24 ; _printf_core + 1092
        0x00004d22:    e5e2        ..      B        0x48ea ; _printf_core + 10
        0x00004d24:    4628        (F      MOV      r0,r5
        0x00004d26:    b01b        ..      ADD      sp,sp,#0x6c
        0x00004d28:    bdf0        ..      POP      {r4-r7,pc}
        0x00004d2a:    0760        `.      LSLS     r0,r4,#29
        0x00004d2c:    d400        ..      BMI      0x4d30 ; _printf_core + 1104
        0x00004d2e:    2706        .'      MOVS     r7,#6
        0x00004d30:    9818        ..      LDR      r0,[sp,#0x60]
        0x00004d32:    1dc0        ..      ADDS     r0,r0,#7
        0x00004d34:    08c1        ..      LSRS     r1,r0,#3
        0x00004d36:    00c9        ..      LSLS     r1,r1,#3
        0x00004d38:    6848        Hh      LDR      r0,[r1,#4]
        0x00004d3a:    680a        .h      LDR      r2,[r1,#0]
        0x00004d3c:    3108        .1      ADDS     r1,r1,#8
        0x00004d3e:    0fc3        ..      LSRS     r3,r0,#31
        0x00004d40:    07db        ..      LSLS     r3,r3,#31
        0x00004d42:    9118        ..      STR      r1,[sp,#0x60]
        0x00004d44:    0019        ..      MOVS     r1,r3
        0x00004d46:    d001        ..      BEQ      0x4d4c ; _printf_core + 1132
        0x00004d48:    a19c        ..      ADR      r1,{pc}+0x274 ; 0x4fbc
        0x00004d4a:    e008        ..      B        0x4d5e ; _printf_core + 1150
        0x00004d4c:    0521        !.      LSLS     r1,r4,#20
        0x00004d4e:    d501        ..      BPL      0x4d54 ; _printf_core + 1140
        0x00004d50:    a19b        ..      ADR      r1,{pc}+0x270 ; 0x4fc0
        0x00004d52:    e004        ..      B        0x4d5e ; _printf_core + 1150
        0x00004d54:    07e1        ..      LSLS     r1,r4,#31
        0x00004d56:    d001        ..      BEQ      0x4d5c ; _printf_core + 1148
        0x00004d58:    a19a        ..      ADR      r1,{pc}+0x26c ; 0x4fc4
        0x00004d5a:    e000        ..      B        0x4d5e ; _printf_core + 1150
        0x00004d5c:    a19a        ..      ADR      r1,{pc}+0x26c ; 0x4fc8
        0x00004d5e:    0043        C.      LSLS     r3,r0,#1
        0x00004d60:    9811        ..      LDR      r0,[sp,#0x44]
        0x00004d62:    085b        [.      LSRS     r3,r3,#1
        0x00004d64:    9110        ..      STR      r1,[sp,#0x40]
        0x00004d66:    2865        e(      CMP      r0,#0x65
        0x00004d68:    d00c        ..      BEQ      0x4d84 ; _printf_core + 1188
        0x00004d6a:    dc06        ..      BGT      0x4d7a ; _printf_core + 1178
        0x00004d6c:    2845        E(      CMP      r0,#0x45
        0x00004d6e:    d009        ..      BEQ      0x4d84 ; _printf_core + 1188
        0x00004d70:    2846        F(      CMP      r0,#0x46
        0x00004d72:    d01d        ..      BEQ      0x4db0 ; _printf_core + 1232
        0x00004d74:    2847        G(      CMP      r0,#0x47
        0x00004d76:    d141        A.      BNE      0x4dfc ; _printf_core + 1308
        0x00004d78:    e041        A.      B        0x4dfe ; _printf_core + 1310
        0x00004d7a:    2866        f(      CMP      r0,#0x66
        0x00004d7c:    d018        ..      BEQ      0x4db0 ; _printf_core + 1232
        0x00004d7e:    2867        g(      CMP      r0,#0x67
        0x00004d80:    d13c        <.      BNE      0x4dfc ; _printf_core + 1308
        0x00004d82:    e03c        <.      B        0x4dfe ; _printf_core + 1310
        0x00004d84:    2100        .!      MOVS     r1,#0
        0x00004d86:    2f11        ./      CMP      r7,#0x11
        0x00004d88:    db01        ..      BLT      0x4d8e ; _printf_core + 1198
        0x00004d8a:    2011        .       MOVS     r0,#0x11
        0x00004d8c:    e000        ..      B        0x4d90 ; _printf_core + 1200
        0x00004d8e:    1c78        x.      ADDS     r0,r7,#1
        0x00004d90:    9101        ..      STR      r1,[sp,#4]
        0x00004d92:    9000        ..      STR      r0,[sp,#0]
        0x00004d94:    a908        ..      ADD      r1,sp,#0x20
        0x00004d96:    a811        ..      ADD      r0,sp,#0x44
        0x00004d98:    f7fffce8    ....    BL       _fp_digits ; 0x476c
        0x00004d9c:    9913        ..      LDR      r1,[sp,#0x4c]
        0x00004d9e:    9105        ..      STR      r1,[sp,#0x14]
        0x00004da0:    2100        .!      MOVS     r1,#0
        0x00004da2:    9a11        ..      LDR      r2,[sp,#0x44]
        0x00004da4:    9215        ..      STR      r2,[sp,#0x54]
        0x00004da6:    1c7f        ..      ADDS     r7,r7,#1
        0x00004da8:    9812        ..      LDR      r0,[sp,#0x48]
        0x00004daa:    9701        ..      STR      r7,[sp,#4]
        0x00004dac:    9100        ..      STR      r1,[sp,#0]
        0x00004dae:    e050        P.      B        0x4e52 ; _printf_core + 1394
        0x00004db0:    2001        .       MOVS     r0,#1
        0x00004db2:    07c0        ..      LSLS     r0,r0,#31
        0x00004db4:    9003        ..      STR      r0,[sp,#0xc]
        0x00004db6:    2001        .       MOVS     r0,#1
        0x00004db8:    9001        ..      STR      r0,[sp,#4]
        0x00004dba:    a908        ..      ADD      r1,sp,#0x20
        0x00004dbc:    9700        ..      STR      r7,[sp,#0]
        0x00004dbe:    a811        ..      ADD      r0,sp,#0x44
        0x00004dc0:    f7fffcd4    ....    BL       _fp_digits ; 0x476c
        0x00004dc4:    9a13        ..      LDR      r2,[sp,#0x4c]
        0x00004dc6:    9914        ..      LDR      r1,[sp,#0x50]
        0x00004dc8:    9205        ..      STR      r2,[sp,#0x14]
        0x00004dca:    2200        ."      MOVS     r2,#0
        0x00004dcc:    9b11        ..      LDR      r3,[sp,#0x44]
        0x00004dce:    9200        ..      STR      r2,[sp,#0]
        0x00004dd0:    9812        ..      LDR      r0,[sp,#0x48]
        0x00004dd2:    9315        ..      STR      r3,[sp,#0x54]
        0x00004dd4:    9a05        ..      LDR      r2,[sp,#0x14]
        0x00004dd6:    9201        ..      STR      r2,[sp,#4]
        0x00004dd8:    2900        .)      CMP      r1,#0
        0x00004dda:    d001        ..      BEQ      0x4de0 ; _printf_core + 1280
        0x00004ddc:    4610        .F      MOV      r0,r2
        0x00004dde:    e002        ..      B        0x4de6 ; _printf_core + 1286
        0x00004de0:    1c79        y.      ADDS     r1,r7,#1
        0x00004de2:    1840        @.      ADDS     r0,r0,r1
        0x00004de4:    9001        ..      STR      r0,[sp,#4]
        0x00004de6:    1a38        8.      SUBS     r0,r7,r0
        0x00004de8:    d501        ..      BPL      0x4dee ; _printf_core + 1294
        0x00004dea:    9801        ..      LDR      r0,[sp,#4]
        0x00004dec:    e004        ..      B        0x4df8 ; _printf_core + 1304
        0x00004dee:    4240        @B      RSBS     r0,r0,#0
        0x00004df0:    1e40        @.      SUBS     r0,r0,#1
        0x00004df2:    9000        ..      STR      r0,[sp,#0]
        0x00004df4:    1c78        x.      ADDS     r0,r7,#1
        0x00004df6:    9001        ..      STR      r0,[sp,#4]
        0x00004df8:    1bc0        ..      SUBS     r0,r0,r7
        0x00004dfa:    9002        ..      STR      r0,[sp,#8]
        0x00004dfc:    e043        C.      B        0x4e86 ; _printf_core + 1446
        0x00004dfe:    2f01        ./      CMP      r7,#1
        0x00004e00:    da00        ..      BGE      0x4e04 ; _printf_core + 1316
        0x00004e02:    2701        .'      MOVS     r7,#1
        0x00004e04:    2100        .!      MOVS     r1,#0
        0x00004e06:    2f11        ./      CMP      r7,#0x11
        0x00004e08:    dd01        ..      BLE      0x4e0e ; _printf_core + 1326
        0x00004e0a:    2011        .       MOVS     r0,#0x11
        0x00004e0c:    e000        ..      B        0x4e10 ; _printf_core + 1328
        0x00004e0e:    4638        8F      MOV      r0,r7
        0x00004e10:    9101        ..      STR      r1,[sp,#4]
        0x00004e12:    9000        ..      STR      r0,[sp,#0]
        0x00004e14:    a908        ..      ADD      r1,sp,#0x20
        0x00004e16:    a811        ..      ADD      r0,sp,#0x44
        0x00004e18:    f7fffca8    ....    BL       _fp_digits ; 0x476c
        0x00004e1c:    9913        ..      LDR      r1,[sp,#0x4c]
        0x00004e1e:    9105        ..      STR      r1,[sp,#0x14]
        0x00004e20:    9a11        ..      LDR      r2,[sp,#0x44]
        0x00004e22:    2100        .!      MOVS     r1,#0
        0x00004e24:    9812        ..      LDR      r0,[sp,#0x48]
        0x00004e26:    9215        ..      STR      r2,[sp,#0x54]
        0x00004e28:    9100        ..      STR      r1,[sp,#0]
        0x00004e2a:    9701        ..      STR      r7,[sp,#4]
        0x00004e2c:    0721        !.      LSLS     r1,r4,#28
        0x00004e2e:    d40c        ..      BMI      0x4e4a ; _printf_core + 1386
        0x00004e30:    9905        ..      LDR      r1,[sp,#0x14]
        0x00004e32:    42b9        .B      CMP      r1,r7
        0x00004e34:    db01        ..      BLT      0x4e3a ; _printf_core + 1370
        0x00004e36:    9901        ..      LDR      r1,[sp,#4]
        0x00004e38:    e000        ..      B        0x4e3c ; _printf_core + 1372
        0x00004e3a:    9101        ..      STR      r1,[sp,#4]
        0x00004e3c:    2901        .)      CMP      r1,#1
        0x00004e3e:    dd04        ..      BLE      0x4e4a ; _printf_core + 1386
        0x00004e40:    9a15        ..      LDR      r2,[sp,#0x54]
        0x00004e42:    1e49        I.      SUBS     r1,r1,#1
        0x00004e44:    5c51        Q\      LDRB     r1,[r2,r1]
        0x00004e46:    2930        0)      CMP      r1,#0x30
        0x00004e48:    d006        ..      BEQ      0x4e58 ; _printf_core + 1400
        0x00004e4a:    42b8        .B      CMP      r0,r7
        0x00004e4c:    da01        ..      BGE      0x4e52 ; _printf_core + 1394
        0x00004e4e:    1d01        ..      ADDS     r1,r0,#4
        0x00004e50:    da05        ..      BGE      0x4e5e ; _printf_core + 1406
        0x00004e52:    2101        .!      MOVS     r1,#1
        0x00004e54:    9102        ..      STR      r1,[sp,#8]
        0x00004e56:    e015        ..      B        0x4e84 ; _printf_core + 1444
        0x00004e58:    9901        ..      LDR      r1,[sp,#4]
        0x00004e5a:    1e49        I.      SUBS     r1,r1,#1
        0x00004e5c:    e7ed        ..      B        0x4e3a ; _printf_core + 1370
        0x00004e5e:    2800        .(      CMP      r0,#0
        0x00004e60:    dc05        ..      BGT      0x4e6e ; _printf_core + 1422
        0x00004e62:    9900        ..      LDR      r1,[sp,#0]
        0x00004e64:    1841        A.      ADDS     r1,r0,r1
        0x00004e66:    9100        ..      STR      r1,[sp,#0]
        0x00004e68:    9901        ..      LDR      r1,[sp,#4]
        0x00004e6a:    1a09        ..      SUBS     r1,r1,r0
        0x00004e6c:    e003        ..      B        0x4e76 ; _printf_core + 1430
        0x00004e6e:    9a01        ..      LDR      r2,[sp,#4]
        0x00004e70:    1c41        A.      ADDS     r1,r0,#1
        0x00004e72:    4291        .B      CMP      r1,r2
        0x00004e74:    dd00        ..      BLE      0x4e78 ; _printf_core + 1432
        0x00004e76:    9101        ..      STR      r1,[sp,#4]
        0x00004e78:    9900        ..      LDR      r1,[sp,#0]
        0x00004e7a:    1a40        @.      SUBS     r0,r0,r1
        0x00004e7c:    1c40        @.      ADDS     r0,r0,#1
        0x00004e7e:    9002        ..      STR      r0,[sp,#8]
        0x00004e80:    2001        .       MOVS     r0,#1
        0x00004e82:    07c0        ..      LSLS     r0,r0,#31
        0x00004e84:    9003        ..      STR      r0,[sp,#0xc]
        0x00004e86:    0720         .      LSLS     r0,r4,#28
        0x00004e88:    d406        ..      BMI      0x4e98 ; _printf_core + 1464
        0x00004e8a:    9902        ..      LDR      r1,[sp,#8]
        0x00004e8c:    9801        ..      LDR      r0,[sp,#4]
        0x00004e8e:    4281        .B      CMP      r1,r0
        0x00004e90:    db02        ..      BLT      0x4e98 ; _printf_core + 1464
        0x00004e92:    2000        .       MOVS     r0,#0
        0x00004e94:    43c0        .C      MVNS     r0,r0
        0x00004e96:    9002        ..      STR      r0,[sp,#8]
        0x00004e98:    2000        .       MOVS     r0,#0
        0x00004e9a:    4669        iF      MOV      r1,sp
        0x00004e9c:    77c8        .w      STRB     r0,[r1,#0x1f]
        0x00004e9e:    af07        ..      ADD      r7,sp,#0x1c
        0x00004ea0:    2101        .!      MOVS     r1,#1
        0x00004ea2:    9803        ..      LDR      r0,[sp,#0xc]
        0x00004ea4:    3703        .7      ADDS     r7,#3
        0x00004ea6:    07c9        ..      LSLS     r1,r1,#31
        0x00004ea8:    4288        .B      CMP      r0,r1
        0x00004eaa:    d024        $.      BEQ      0x4ef6 ; _printf_core + 1558
        0x00004eac:    2002        .       MOVS     r0,#2
        0x00004eae:    9011        ..      STR      r0,[sp,#0x44]
        0x00004eb0:    202b        +       MOVS     r0,#0x2b
        0x00004eb2:    9012        ..      STR      r0,[sp,#0x48]
        0x00004eb4:    9803        ..      LDR      r0,[sp,#0xc]
        0x00004eb6:    2800        .(      CMP      r0,#0
        0x00004eb8:    da0c        ..      BGE      0x4ed4 ; _printf_core + 1524
        0x00004eba:    4240        @B      RSBS     r0,r0,#0
        0x00004ebc:    9003        ..      STR      r0,[sp,#0xc]
        0x00004ebe:    202d        -       MOVS     r0,#0x2d
        0x00004ec0:    9012        ..      STR      r0,[sp,#0x48]
        0x00004ec2:    e007        ..      B        0x4ed4 ; _printf_core + 1524
        0x00004ec4:    210a        .!      MOVS     r1,#0xa
        0x00004ec6:    9803        ..      LDR      r0,[sp,#0xc]
        0x00004ec8:    f7fbfcd0    ....    BL       __aeabi_uidiv$div0 ; 0x86c
        0x00004ecc:    3130        01      ADDS     r1,r1,#0x30
        0x00004ece:    1e7f        ..      SUBS     r7,r7,#1
        0x00004ed0:    9003        ..      STR      r0,[sp,#0xc]
        0x00004ed2:    7039        9p      STRB     r1,[r7,#0]
        0x00004ed4:    9911        ..      LDR      r1,[sp,#0x44]
        0x00004ed6:    1e48        H.      SUBS     r0,r1,#1
        0x00004ed8:    9011        ..      STR      r0,[sp,#0x44]
        0x00004eda:    2900        .)      CMP      r1,#0
        0x00004edc:    dcf2        ..      BGT      0x4ec4 ; _printf_core + 1508
        0x00004ede:    9803        ..      LDR      r0,[sp,#0xc]
        0x00004ee0:    2800        .(      CMP      r0,#0
        0x00004ee2:    d1ef        ..      BNE      0x4ec4 ; _printf_core + 1508
        0x00004ee4:    1e79        y.      SUBS     r1,r7,#1
        0x00004ee6:    9812        ..      LDR      r0,[sp,#0x48]
        0x00004ee8:    7008        .p      STRB     r0,[r1,#0]
        0x00004eea:    7830        0x      LDRB     r0,[r6,#0]
        0x00004eec:    2120         !      MOVS     r1,#0x20
        0x00004eee:    4008        .@      ANDS     r0,r0,r1
        0x00004ef0:    3045        E0      ADDS     r0,r0,#0x45
        0x00004ef2:    1ebf        ..      SUBS     r7,r7,#2
        0x00004ef4:    7038        8p      STRB     r0,[r7,#0]
        0x00004ef6:    a806        ..      ADD      r0,sp,#0x18
        0x00004ef8:    1bc0        ..      SUBS     r0,r0,r7
        0x00004efa:    1dc0        ..      ADDS     r0,r0,#7
        0x00004efc:    9003        ..      STR      r0,[sp,#0xc]
        0x00004efe:    9810        ..      LDR      r0,[sp,#0x40]
        0x00004f00:    7800        .x      LDRB     r0,[r0,#0]
        0x00004f02:    2800        .(      CMP      r0,#0
        0x00004f04:    d000        ..      BEQ      0x4f08 ; _printf_core + 1576
        0x00004f06:    2001        .       MOVS     r0,#1
        0x00004f08:    9901        ..      LDR      r1,[sp,#4]
        0x00004f0a:    1841        A.      ADDS     r1,r0,r1
        0x00004f0c:    9802        ..      LDR      r0,[sp,#8]
        0x00004f0e:    17c0        ..      ASRS     r0,r0,#31
        0x00004f10:    1809        ..      ADDS     r1,r1,r0
        0x00004f12:    9803        ..      LDR      r0,[sp,#0xc]
        0x00004f14:    1809        ..      ADDS     r1,r1,r0
        0x00004f16:    9804        ..      LDR      r0,[sp,#0x10]
        0x00004f18:    1a40        @.      SUBS     r0,r0,r1
        0x00004f1a:    1e40        @.      SUBS     r0,r0,#1
        0x00004f1c:    9004        ..      STR      r0,[sp,#0x10]
        0x00004f1e:    03e0        ..      LSLS     r0,r4,#15
        0x00004f20:    d406        ..      BMI      0x4f30 ; _printf_core + 1616
        0x00004f22:    4621        !F      MOV      r1,r4
        0x00004f24:    9b1a        ..      LDR      r3,[sp,#0x68]
        0x00004f26:    9a19        ..      LDR      r2,[sp,#0x64]
        0x00004f28:    9804        ..      LDR      r0,[sp,#0x10]
        0x00004f2a:    f000f85f    .._.    BL       _printf_pre_padding ; 0x4fec
        0x00004f2e:    1945        E.      ADDS     r5,r0,r5
        0x00004f30:    9810        ..      LDR      r0,[sp,#0x40]
        0x00004f32:    7800        .x      LDRB     r0,[r0,#0]
        0x00004f34:    2800        .(      CMP      r0,#0
        0x00004f36:    d003        ..      BEQ      0x4f40 ; _printf_core + 1632
        0x00004f38:    9a1a        ..      LDR      r2,[sp,#0x68]
        0x00004f3a:    9919        ..      LDR      r1,[sp,#0x64]
        0x00004f3c:    4790        .G      BLX      r2
        0x00004f3e:    1c6d        m.      ADDS     r5,r5,#1
        0x00004f40:    03e0        ..      LSLS     r0,r4,#15
        0x00004f42:    d524        $.      BPL      0x4f8e ; _printf_core + 1710
        0x00004f44:    4621        !F      MOV      r1,r4
        0x00004f46:    9b1a        ..      LDR      r3,[sp,#0x68]
        0x00004f48:    9a19        ..      LDR      r2,[sp,#0x64]
        0x00004f4a:    9804        ..      LDR      r0,[sp,#0x10]
        0x00004f4c:    f000f84e    ..N.    BL       _printf_pre_padding ; 0x4fec
        0x00004f50:    1945        E.      ADDS     r5,r0,r5
        0x00004f52:    e01c        ..      B        0x4f8e ; _printf_core + 1710
        0x00004f54:    9800        ..      LDR      r0,[sp,#0]
        0x00004f56:    2800        .(      CMP      r0,#0
        0x00004f58:    db07        ..      BLT      0x4f6a ; _printf_core + 1674
        0x00004f5a:    9900        ..      LDR      r1,[sp,#0]
        0x00004f5c:    9805        ..      LDR      r0,[sp,#0x14]
        0x00004f5e:    4288        .B      CMP      r0,r1
        0x00004f60:    dd03        ..      BLE      0x4f6a ; _printf_core + 1674
        0x00004f62:    9815        ..      LDR      r0,[sp,#0x54]
        0x00004f64:    5c40        @\      LDRB     r0,[r0,r1]
        0x00004f66:    9919        ..      LDR      r1,[sp,#0x64]
        0x00004f68:    e001        ..      B        0x4f6e ; _printf_core + 1678
        0x00004f6a:    9919        ..      LDR      r1,[sp,#0x64]
        0x00004f6c:    2030        0       MOVS     r0,#0x30
        0x00004f6e:    9a1a        ..      LDR      r2,[sp,#0x68]
        0x00004f70:    4790        .G      BLX      r2
        0x00004f72:    9800        ..      LDR      r0,[sp,#0]
        0x00004f74:    1c6d        m.      ADDS     r5,r5,#1
        0x00004f76:    1c40        @.      ADDS     r0,r0,#1
        0x00004f78:    9000        ..      STR      r0,[sp,#0]
        0x00004f7a:    9802        ..      LDR      r0,[sp,#8]
        0x00004f7c:    1e40        @.      SUBS     r0,r0,#1
        0x00004f7e:    9002        ..      STR      r0,[sp,#8]
        0x00004f80:    2800        .(      CMP      r0,#0
        0x00004f82:    d104        ..      BNE      0x4f8e ; _printf_core + 1710
        0x00004f84:    9a1a        ..      LDR      r2,[sp,#0x68]
        0x00004f86:    202e        .       MOVS     r0,#0x2e
        0x00004f88:    9919        ..      LDR      r1,[sp,#0x64]
        0x00004f8a:    4790        .G      BLX      r2
        0x00004f8c:    1c6d        m.      ADDS     r5,r5,#1
        0x00004f8e:    9901        ..      LDR      r1,[sp,#4]
        0x00004f90:    1e48        H.      SUBS     r0,r1,#1
        0x00004f92:    9001        ..      STR      r0,[sp,#4]
        0x00004f94:    2900        .)      CMP      r1,#0
        0x00004f96:    dcdd        ..      BGT      0x4f54 ; _printf_core + 1652
        0x00004f98:    e005        ..      B        0x4fa6 ; _printf_core + 1734
        0x00004f9a:    7838        8x      LDRB     r0,[r7,#0]
        0x00004f9c:    9a1a        ..      LDR      r2,[sp,#0x68]
        0x00004f9e:    1c7f        ..      ADDS     r7,r7,#1
        0x00004fa0:    9919        ..      LDR      r1,[sp,#0x64]
        0x00004fa2:    4790        .G      BLX      r2
        0x00004fa4:    1c6d        m.      ADDS     r5,r5,#1
        0x00004fa6:    9903        ..      LDR      r1,[sp,#0xc]
        0x00004fa8:    1e48        H.      SUBS     r0,r1,#1
        0x00004faa:    9003        ..      STR      r0,[sp,#0xc]
        0x00004fac:    2900        .)      CMP      r1,#0
        0x00004fae:    dcf4        ..      BGT      0x4f9a ; _printf_core + 1722
        0x00004fb0:    4621        !F      MOV      r1,r4
        0x00004fb2:    9b1a        ..      LDR      r3,[sp,#0x68]
        0x00004fb4:    9a19        ..      LDR      r2,[sp,#0x64]
        0x00004fb6:    9804        ..      LDR      r0,[sp,#0x10]
        0x00004fb8:    e6ac        ..      B        0x4d14 ; _printf_core + 1076
    $d
        0x00004fba:    0000        ..      DCW    0
        0x00004fbc:    0000002d    -...    DCD    45
        0x00004fc0:    0000002b    +...    DCD    43
        0x00004fc4:    00000020     ...    DCD    32
        0x00004fc8:    00000000    ....    DCD    0
    $t
    i._printf_post_padding
    _printf_post_padding
        0x00004fcc:    b5f8        ..      PUSH     {r3-r7,lr}
        0x00004fce:    4604        .F      MOV      r4,r0
        0x00004fd0:    2500        .%      MOVS     r5,#0
        0x00004fd2:    461e        .F      MOV      r6,r3
        0x00004fd4:    4617        .F      MOV      r7,r2
        0x00004fd6:    0488        ..      LSLS     r0,r1,#18
        0x00004fd8:    d404        ..      BMI      0x4fe4 ; _printf_post_padding + 24
        0x00004fda:    e005        ..      B        0x4fe8 ; _printf_post_padding + 28
        0x00004fdc:    4639        9F      MOV      r1,r7
        0x00004fde:    2020                MOVS     r0,#0x20
        0x00004fe0:    47b0        .G      BLX      r6
        0x00004fe2:    1c6d        m.      ADDS     r5,r5,#1
        0x00004fe4:    1e64        d.      SUBS     r4,r4,#1
        0x00004fe6:    d5f9        ..      BPL      0x4fdc ; _printf_post_padding + 16
        0x00004fe8:    4628        (F      MOV      r0,r5
        0x00004fea:    bdf8        ..      POP      {r3-r7,pc}
    i._printf_pre_padding
    _printf_pre_padding
        0x00004fec:    b5ff        ..      PUSH     {r0-r7,lr}
        0x00004fee:    4604        .F      MOV      r4,r0
        0x00004ff0:    2500        .%      MOVS     r5,#0
        0x00004ff2:    b081        ..      SUB      sp,sp,#4
        0x00004ff4:    461e        .F      MOV      r6,r3
        0x00004ff6:    03c8        ..      LSLS     r0,r1,#15
        0x00004ff8:    d501        ..      BPL      0x4ffe ; _printf_pre_padding + 18
        0x00004ffa:    2730        0'      MOVS     r7,#0x30
        0x00004ffc:    e000        ..      B        0x5000 ; _printf_pre_padding + 20
        0x00004ffe:    2720         '      MOVS     r7,#0x20
        0x00005000:    0488        ..      LSLS     r0,r1,#18
        0x00005002:    d504        ..      BPL      0x500e ; _printf_pre_padding + 34
        0x00005004:    e005        ..      B        0x5012 ; _printf_pre_padding + 38
        0x00005006:    4638        8F      MOV      r0,r7
        0x00005008:    9903        ..      LDR      r1,[sp,#0xc]
        0x0000500a:    47b0        .G      BLX      r6
        0x0000500c:    1c6d        m.      ADDS     r5,r5,#1
        0x0000500e:    1e64        d.      SUBS     r4,r4,#1
        0x00005010:    d5f9        ..      BPL      0x5006 ; _printf_pre_padding + 26
        0x00005012:    4628        (F      MOV      r0,r5
        0x00005014:    b005        ..      ADD      sp,sp,#0x14
        0x00005016:    bdf0        ..      POP      {r4-r7,pc}
    i._snputc
    _snputc
        0x00005018:    684a        Jh      LDR      r2,[r1,#4]
        0x0000501a:    2a00        .*      CMP      r2,#0
        0x0000501c:    d006        ..      BEQ      0x502c ; _snputc + 20
        0x0000501e:    680a        .h      LDR      r2,[r1,#0]
        0x00005020:    1c53        S.      ADDS     r3,r2,#1
        0x00005022:    600b        .`      STR      r3,[r1,#0]
        0x00005024:    7010        .p      STRB     r0,[r2,#0]
        0x00005026:    6848        Hh      LDR      r0,[r1,#4]
        0x00005028:    1e40        @.      SUBS     r0,r0,#1
        0x0000502a:    6048        H`      STR      r0,[r1,#4]
        0x0000502c:    4770        pG      BX       lr
        0x0000502e:    0000        ..      MOVS     r0,r0
    $d.realdata
        0x00005030:    00b71b00    ....    DCD    12000000
        0x00005034:    00000000    ....    DCD    0
        0x00005038:    00008000    ....    DCD    32768
        0x0000503c:    02dc6c00    .l..    DCD    48000000
        0x00005040:    00000000    ....    DCD    0
        0x00005044:    00009600    ....    DCD    38400
        0x00005048:    6462696c    libd    DCD    1684171116
        0x0000504c:    65766972    rive    DCD    1702259058
        0x00005050:    00000072    r...    DCD    114
        0x00005054:    00000000    ....    DCD    0
        0x00005058:    00000000    ....    DCD    0
        0x0000505c:    00000000    ....    DCD    0
        0x00005060:    00000000    ....    DCD    0
        0x00005064:    00000000    ....    DCD    0
        0x00005068:    00000000    ....    DCD    0
        0x0000506c:    00000000    ....    DCD    0
        0x00005070:    00000000    ....    DCD    0
        0x00005074:    00000000    ....    DCD    0
        0x00005078:    6b6e7500    .unk    DCD    1802401024
        0x0000507c:    6e776f6e    nown    DCD    1853321070
        0x00005080:    00000000    ....    DCD    0
        0x00005084:    00000000    ....    DCD    0
        0x00005088:    00000000    ....    DCD    0
        0x0000508c:    00000000    ....    DCD    0
        0x00005090:    00000000    ....    DCD    0
        0x00005094:    00000000    ....    DCD    0
        0x00005098:    00000000    ....    DCD    0
    gau32ClkSrcTbl
        0x0000509c:    00b71b00    ....    DCD    12000000
        0x000050a0:    00008000    ....    DCD    32768
        0x000050a4:    00000000    ....    DCD    0
        0x000050a8:    00009600    ....    DCD    38400
        0x000050ac:    00000000    ....    DCD    0
        0x000050b0:    003d8600    ..=.    DCD    4032000
        0x000050b4:    00000000    ....    DCD    0
        0x000050b8:    02dc6c00    .l..    DCD    48000000
    gsc_st7789_ascii_1206
        0x000050bc:    00000000    ....    DCD    0
        0x000050c0:    00000000    ....    DCD    0
        0x000050c4:    00000000    ....    DCD    0
        0x000050c8:    00000000    ....    DCD    0
        0x000050cc:    0000403f    ?@..    DCD    16447
        0x000050d0:    00000000    ....    DCD    0
        0x000050d4:    00300000    ..0.    DCD    3145728
        0x000050d8:    00300040    @.0.    DCD    3145792
        0x000050dc:    00000040    @...    DCD    64
        0x000050e0:    c00b0009    ....    DCD    3221946377
        0x000050e4:    c00b003d    =...    DCD    3221946429
        0x000050e8:    0009003d    =...    DCD    589885
        0x000050ec:    4024c018    ..$@    DCD    1076150296
        0x000050f0:    4022e07f    .."@    DCD    1076027519
        0x000050f4:    00008031    1...    DCD    32817
        0x000050f8:    c0240018    ..$.    DCD    3223584792
        0x000050fc:    800d001b    ....    DCD    2148335643
        0x00005100:    80014032    2@..    DCD    2147565618
        0x00005104:    401c8003    ...@    DCD    1075609603
        0x00005108:    801c4027    '@..    DCD    2149335079
        0x0000510c:    40004007    .@.@    DCD    1073758215
        0x00005110:    00600010    ..`.    DCD    6291472
        0x00005114:    00000000    ....    DCD    0
        0x00005118:    00000000    ....    DCD    0
        0x0000511c:    00000000    ....    DCD    0
        0x00005120:    801f0000    ....    DCD    2149515264
        0x00005124:    20404020     @@     DCD    541081632
        0x00005128:    20400000    ..@     DCD    541065216
        0x0000512c:    801f4020     @..    DCD    2149531680
        0x00005130:    00000000    ....    DCD    0
        0x00005134:    00060009    ....    DCD    393225
        0x00005138:    0006801f    ....    DCD    426015
        0x0000513c:    00000009    ....    DCD    9
        0x00005140:    00040004    ....    DCD    262148
        0x00005144:    0004803f    ?...    DCD    294975
        0x00005148:    00000004    ....    DCD    4
        0x0000514c:    60001000    ...`    DCD    1610616832
        0x00005150:    00000000    ....    DCD    0
        0x00005154:    00000000    ....    DCD    0
        0x00005158:    00040004    ....    DCD    262148
        0x0000515c:    00040004    ....    DCD    262148
        0x00005160:    00000004    ....    DCD    4
        0x00005164:    40000000    ...@    DCD    1073741824
        0x00005168:    00000000    ....    DCD    0
        0x0000516c:    00000000    ....    DCD    0
        0x00005170:    c0012000    . ..    DCD    3221299200
        0x00005174:    00380006    ..8.    DCD    3670022
        0x00005178:    00000040    @...    DCD    64
        0x0000517c:    4020801f    .. @    DCD    1075871775
        0x00005180:    40204020     @ @    DCD    1075855392
        0x00005184:    0000801f    ....    DCD    32799
        0x00005188:    40100000    ...@    DCD    1074790400
        0x0000518c:    4000c03f    ?..@    DCD    1073791039
        0x00005190:    00000000    ....    DCD    0
        0x00005194:    4021c018    ..!@    DCD    1075953688
        0x00005198:    40244022    "@$@    DCD    1076117538
        0x0000519c:    00004018    .@..    DCD    16408
        0x000051a0:    40208010    .. @    DCD    1075871760
        0x000051a4:    40244024    $@$@    DCD    1076117540
        0x000051a8:    0000801b    ....    DCD    32795
        0x000051ac:    000d0002    ....    DCD    851970
        0x000051b0:    c03f0011    ..?.    DCD    3225354257
        0x000051b4:    00004001    .@..    DCD    16385
        0x000051b8:    4024803c    <.$@    DCD    1076133948
        0x000051bc:    40244024    $@$@    DCD    1076117540
        0x000051c0:    00008023    #...    DCD    32803
        0x000051c4:    4024801f    ..$@    DCD    1076133919
        0x000051c8:    40344024    $@4@    DCD    1077166116
        0x000051cc:    00008003    ....    DCD    32771
        0x000051d0:    00200030    0. .    DCD    2097200
        0x000051d4:    0038c027    '.8.    DCD    3719207
        0x000051d8:    00000020     ...    DCD    32
        0x000051dc:    4024801b    ..$@    DCD    1076133915
        0x000051e0:    40244024    $@$@    DCD    1076117540
        0x000051e4:    0000801b    ....    DCD    32795
        0x000051e8:    c022001c    ..".    DCD    3223453724
        0x000051ec:    40224022    "@"@    DCD    1075986466
        0x000051f0:    0000801f    ....    DCD    32799
        0x000051f4:    00000000    ....    DCD    0
        0x000051f8:    00004008    .@..    DCD    16392
        0x000051fc:    00000000    ....    DCD    0
        0x00005200:    00000000    ....    DCD    0
        0x00005204:    00006004    .`..    DCD    24580
        0x00005208:    00000000    ....    DCD    0
        0x0000520c:    00040000    ....    DCD    262144
        0x00005210:    0011000a    ....    DCD    1114122
        0x00005214:    40408020     .@@    DCD    1077968928
        0x00005218:    00090009    ....    DCD    589833
        0x0000521c:    00090009    ....    DCD    589833
        0x00005220:    00000009    ....    DCD    9
        0x00005224:    40400000    ..@@    DCD    1077936128
        0x00005228:    00118020     ...    DCD    1146912
        0x0000522c:    0004000a    ....    DCD    262154
        0x00005230:    00200018    .. .    DCD    2097176
        0x00005234:    00244023    #@$.    DCD    2375715
        0x00005238:    00000018    ....    DCD    24
        0x0000523c:    4020801f    .. @    DCD    1075871775
        0x00005240:    40294027    '@)@    DCD    1076445223
        0x00005244:    0000401f    .@..    DCD    16415
        0x00005248:    c0074000    .@..    DCD    3221700608
        0x0000524c:    000f0039    9...    DCD    983097
        0x00005250:    4000c001    ...@    DCD    1073790977
        0x00005254:    c03f4020     @?.    DCD    3225370656
        0x00005258:    40244024    $@$@    DCD    1076117540
        0x0000525c:    0000801b    ....    DCD    32795
        0x00005260:    4020801f    .. @    DCD    1075871775
        0x00005264:    40204020     @ @    DCD    1075855392
        0x00005268:    00008030    0...    DCD    32816
        0x0000526c:    c03f4020     @?.    DCD    3225370656
        0x00005270:    40204020     @ @    DCD    1075855392
        0x00005274:    0000801f    ....    DCD    32799
        0x00005278:    c03f4020     @?.    DCD    3225370656
        0x0000527c:    402e4024    $@.@    DCD    1076772900
        0x00005280:    0000c030    0...    DCD    49200
        0x00005284:    c03f4020     @?.    DCD    3225370656
        0x00005288:    002e4024    $@..    DCD    3031076
        0x0000528c:    00000030    0...    DCD    48
        0x00005290:    8010000f    ....    DCD    2148532239
        0x00005294:    40224020     @"@    DCD    1075986464
        0x00005298:    00028033    3...    DCD    163891
        0x0000529c:    c03f4020     @?.    DCD    3225370656
        0x000052a0:    00040004    ....    DCD    262148
        0x000052a4:    4020c03f    ?. @    DCD    1075888191
        0x000052a8:    40204020     @ @    DCD    1075855392
        0x000052ac:    4020c03f    ?. @    DCD    1075888191
        0x000052b0:    00004020     @..    DCD    16416
        0x000052b4:    20206000    .`      DCD    538992640
        0x000052b8:    c03f2020      ?.    DCD    3225362464
        0x000052bc:    00200020     . .    DCD    2097184
        0x000052c0:    c03f4020     @?.    DCD    3225370656
        0x000052c4:    000b4024    $@..    DCD    737316
        0x000052c8:    4020c030    0. @    DCD    1075888176
        0x000052cc:    c03f4020     @?.    DCD    3225370656
        0x000052d0:    40004020     @.@    DCD    1073758240
        0x000052d4:    c0004000    .@..    DCD    3221241856
        0x000052d8:    003cc03f    ?.<.    DCD    3981375
        0x000052dc:    003cc003    ..<.    DCD    3981315
        0x000052e0:    0000c03f    ?...    DCD    49215
        0x000052e4:    c03f4020     @?.    DCD    3225370656
        0x000052e8:    0023400c    .@#.    DCD    2310156
        0x000052ec:    0020c03f    ?. .    DCD    2146367
        0x000052f0:    4020801f    .. @    DCD    1075871775
        0x000052f4:    40204020     @ @    DCD    1075855392
        0x000052f8:    0000801f    ....    DCD    32799
        0x000052fc:    c03f4020     @?.    DCD    3225370656
        0x00005300:    00244024    $@$.    DCD    2375716
        0x00005304:    00000018    ....    DCD    24
        0x00005308:    4021801f    ..!@    DCD    1075937311
        0x0000530c:    e0204021    !@ .    DCD    3760209953
        0x00005310:    0000a01f    ....    DCD    40991
        0x00005314:    c03f4020     @?.    DCD    3225370656
        0x00005318:    00264024    $@&.    DCD    2506788
        0x0000531c:    4000c019    ...@    DCD    1073791001
        0x00005320:    4024c018    ..$@    DCD    1076150296
        0x00005324:    40224024    $@"@    DCD    1075986468
        0x00005328:    00008031    1...    DCD    32817
        0x0000532c:    40200030    0. @    DCD    1075839024
        0x00005330:    4020c03f    ?. @    DCD    1075888191
        0x00005334:    00000030    0...    DCD    48
        0x00005338:    803f0020     .?.    DCD    2151612448
        0x0000533c:    40004000    .@.@    DCD    1073758208
        0x00005340:    0020803f    ?. .    DCD    2129983
        0x00005344:    003e0020     .>.    DCD    4063264
        0x00005348:    0007c001    ....    DCD    507905
        0x0000534c:    00200038    8. .    DCD    2097208
        0x00005350:    c0070038    8...    DCD    3221684280
        0x00005354:    c007003c    <...    DCD    3221684284
        0x00005358:    00000038    8...    DCD    56
        0x0000535c:    c0394020     @9.    DCD    3224977440
        0x00005360:    c0390006    ..9.    DCD    3224961030
        0x00005364:    00004020     @..    DCD    16416
        0x00005368:    40380020     .8@    DCD    1077411872
        0x0000536c:    4038c007    ..8@    DCD    1077460999
        0x00005370:    00000020     ...    DCD    32
        0x00005374:    c0214030    0@!.    DCD    3223404592
        0x00005378:    40384026    &@8@    DCD    1077428262
        0x0000537c:    0000c020     ...    DCD    49184
        0x00005380:    00000000    ....    DCD    0
        0x00005384:    2040e07f    ..@     DCD    541122687
        0x00005388:    00002040    @ ..    DCD    8256
        0x0000538c:    00700000    ..p.    DCD    7340032
        0x00005390:    8003000c    ....    DCD    2147680268
        0x00005394:    00004000    .@..    DCD    16384
        0x00005398:    20400000    ..@     DCD    541065216
        0x0000539c:    e07f2040    @ ..    DCD    3766427712
        0x000053a0:    00000000    ....    DCD    0
        0x000053a4:    00200000    .. .    DCD    2097152
        0x000053a8:    00200040    @. .    DCD    2097216
        0x000053ac:    00000000    ....    DCD    0
        0x000053b0:    10001000    ....    DCD    268439552
        0x000053b4:    10001000    ....    DCD    268439552
        0x000053b8:    10001000    ....    DCD    268439552
        0x000053bc:    00000000    ....    DCD    0
        0x000053c0:    00000040    @...    DCD    64
        0x000053c4:    00000000    ....    DCD    0
        0x000053c8:    80020000    ....    DCD    2147614720
        0x000053cc:    40054005    .@.@    DCD    1074085893
        0x000053d0:    4000c003    ...@    DCD    1073790979
        0x000053d4:    c03f0020     .?.    DCD    3225354272
        0x000053d8:    40044004    .@.@    DCD    1074020356
        0x000053dc:    00008003    ....    DCD    32771
        0x000053e0:    80030000    ....    DCD    2147680256
        0x000053e4:    40044004    .@.@    DCD    1074020356
        0x000053e8:    00004006    .@..    DCD    16390
        0x000053ec:    80030000    ....    DCD    2147680256
        0x000053f0:    40244004    .@$@    DCD    1076117508
        0x000053f4:    4000c03f    ?..@    DCD    1073791039
        0x000053f8:    80030000    ....    DCD    2147680256
        0x000053fc:    40054005    .@.@    DCD    1074085893
        0x00005400:    00004003    .@..    DCD    16387
        0x00005404:    40040000    ...@    DCD    1074003968
        0x00005408:    4024c01f    ..$@    DCD    1076150303
        0x0000540c:    00204024    $@ .    DCD    2113572
        0x00005410:    e0020000    ....    DCD    3758227456
        0x00005414:    50055005    .P.P    DCD    1342525445
        0x00005418:    20045006    .P.     DCD    537153542
        0x0000541c:    c03f4020     @?.    DCD    3225370656
        0x00005420:    00044004    .@..    DCD    278532
        0x00005424:    4000c003    ...@    DCD    1073790979
        0x00005428:    40040000    ...@    DCD    1074003968
        0x0000542c:    4000c027    '..@    DCD    1073791015
        0x00005430:    00000000    ....    DCD    0
        0x00005434:    10001000    ....    DCD    268439552
        0x00005438:    e0271004    ..'.    DCD    3760656388
        0x0000543c:    00000000    ....    DCD    0
        0x00005440:    c03f4020     @?.    DCD    3225370656
        0x00005444:    00074001    .@..    DCD    475137
        0x00005448:    4004c004    ...@    DCD    1074053124
        0x0000544c:    40204020     @ @    DCD    1075855392
        0x00005450:    4000c03f    ?..@    DCD    1073791039
        0x00005454:    00004000    .@..    DCD    16384
        0x00005458:    0004c007    ....    DCD    311303
        0x0000545c:    0004c007    ....    DCD    311303
        0x00005460:    0000c003    ....    DCD    49155
        0x00005464:    c0074004    .@..    DCD    3221700612
        0x00005468:    00044004    .@..    DCD    278532
        0x0000546c:    4000c003    ...@    DCD    1073790979
        0x00005470:    80030000    ....    DCD    2147680256
        0x00005474:    40044004    .@.@    DCD    1074020356
        0x00005478:    00008003    ....    DCD    32771
        0x0000547c:    f0071004    ....    DCD    4026994692
        0x00005480:    40045004    .P.@    DCD    1074024452
        0x00005484:    00008003    ....    DCD    32771
        0x00005488:    80030000    ....    DCD    2147680256
        0x0000548c:    50044004    .@.P    DCD    1342455812
        0x00005490:    1000f007    ....    DCD    268496903
        0x00005494:    c0074004    .@..    DCD    3221700612
        0x00005498:    00044002    .@..    DCD    278530
        0x0000549c:    00000004    ....    DCD    4
        0x000054a0:    40060000    ...@    DCD    1074135040
        0x000054a4:    40054005    .@.@    DCD    1074085893
        0x000054a8:    0000c004    ....    DCD    49156
        0x000054ac:    00040000    ....    DCD    262144
        0x000054b0:    4004801f    ...@    DCD    1074036767
        0x000054b4:    00004000    .@..    DCD    16384
        0x000054b8:    80070004    ....    DCD    2147942404
        0x000054bc:    40044000    .@.@    DCD    1074020352
        0x000054c0:    4000c007    ...@    DCD    1073790983
        0x000054c4:    00070004    ....    DCD    458756
        0x000054c8:    8001c004    ....    DCD    2147598340
        0x000054cc:    00040006    ....    DCD    262150
        0x000054d0:    c0010006    ....    DCD    3221291014
        0x000054d4:    c0010007    ....    DCD    3221291015
        0x000054d8:    00000006    ....    DCD    6
        0x000054dc:    c0064004    .@..    DCD    3221635076
        0x000054e0:    c0060001    ....    DCD    3221618689
        0x000054e4:    00004004    .@..    DCD    16388
        0x000054e8:    10071004    ....    DCD    268898308
        0x000054ec:    8001e004    ....    DCD    2147606532
        0x000054f0:    00040006    ....    DCD    262150
        0x000054f4:    40040000    ...@    DCD    1074003968
        0x000054f8:    4006c005    ...@    DCD    1074184197
        0x000054fc:    00004004    .@..    DCD    16388
        0x00005500:    00000000    ....    DCD    0
        0x00005504:    e07b0004    ..{.    DCD    3766157316
        0x00005508:    00002040    @ ..    DCD    8256
        0x0000550c:    00000000    ....    DCD    0
        0x00005510:    f0ff0000    ....    DCD    4043243520
        0x00005514:    00000000    ....    DCD    0
        0x00005518:    20400000    ..@     DCD    541065216
        0x0000551c:    0004e07b    {...    DCD    319611
        0x00005520:    00000000    ....    DCD    0
        0x00005524:    00800040    @...    DCD    8388672
        0x00005528:    00200040    @. .    DCD    2097216
        0x0000552c:    00400020     .@.    DCD    4194336
    gsc_st7789_ascii_1608
        0x00005530:    00000000    ....    DCD    0
        0x00005534:    00000000    ....    DCD    0
        0x00005538:    00000000    ....    DCD    0
        0x0000553c:    00000000    ....    DCD    0
        0x00005540:    00000000    ....    DCD    0
        0x00005544:    cc1f0000    ....    DCD    3424583680
        0x00005548:    00000c00    ....    DCD    3072
        0x0000554c:    00000000    ....    DCD    0
        0x00005550:    00080000    ....    DCD    524288
        0x00005554:    00600030    0.`.    DCD    6291504
        0x00005558:    00300008    ..0.    DCD    3145736
        0x0000555c:    00000060    `...    DCD    96
        0x00005560:    fc032002    . ..    DCD    4228063234
        0x00005564:    2002201e    . .     DCD    537010206
        0x00005568:    201efc03    ...     DCD    538901507
        0x0000556c:    00002002    . ..    DCD    8194
        0x00005570:    180e0000    ....    DCD    403570688
        0x00005574:    ff3f0411    ..?.    DCD    4282319889
        0x00005578:    780c8410    ...x    DCD    2014086160
        0x0000557c:    00000000    ....    DCD    0
        0x00005580:    8410000f    ....    DCD    2215641103
        0x00005584:    c000380f    .8..    DCD    3221239823
        0x00005588:    84187807    .x..    DCD    2216196103
        0x0000558c:    00007800    .x..    DCD    30720
        0x00005590:    840f7800    .x..    DCD    2215606272
        0x00005594:    2411c410    ...$    DCD    605144080
        0x00005598:    e400980e    ....    DCD    3825244174
        0x0000559c:    08008400    ....    DCD    134251520
        0x000055a0:    00680008    ..h.    DCD    6815752
        0x000055a4:    00000070    p...    DCD    112
        0x000055a8:    00000000    ....    DCD    0
        0x000055ac:    00000000    ....    DCD    0
        0x000055b0:    00000000    ....    DCD    0
        0x000055b4:    e0070000    ....    DCD    3758555136
        0x000055b8:    04201818    .. .    DCD    69212184
        0x000055bc:    00000240    @...    DCD    576
        0x000055c0:    02400000    ..@.    DCD    37748736
        0x000055c4:    18180420     ...    DCD    404227104
        0x000055c8:    0000e007    ....    DCD    57351
        0x000055cc:    00000000    ....    DCD    0
        0x000055d0:    40024002    .@.@    DCD    1073889282
        0x000055d4:    f00f8001    ....    DCD    4027547649
        0x000055d8:    40028001    ...@    DCD    1073905665
        0x000055dc:    00004002    .@..    DCD    16386
        0x000055e0:    80008000    ....    DCD    2147516416
        0x000055e4:    f80f8000    ....    DCD    4161765376
        0x000055e8:    80008000    ....    DCD    2147516416
        0x000055ec:    00008000    ....    DCD    32768
        0x000055f0:    0d000100    ....    DCD    218104064
        0x000055f4:    00000e00    ....    DCD    3584
        0x000055f8:    00000000    ....    DCD    0
        0x000055fc:    00000000    ....    DCD    0
        0x00005600:    80000000    ....    DCD    2147483648
        0x00005604:    80008000    ....    DCD    2147516416
        0x00005608:    80008000    ....    DCD    2147516416
        0x0000560c:    80008000    ....    DCD    2147516416
        0x00005610:    0c000000    ....    DCD    201326592
        0x00005614:    00000c00    ....    DCD    3072
        0x00005618:    00000000    ....    DCD    0
        0x0000561c:    00000000    ....    DCD    0
        0x00005620:    06000000    ....    DCD    100663296
        0x00005624:    60001800    ...`    DCD    1610618880
        0x00005628:    00068001    ....    DCD    425985
        0x0000562c:    00200018    .. .    DCD    2097176
        0x00005630:    f0070000    ....    DCD    4026990592
        0x00005634:    04100808    ....    DCD    68159496
        0x00005638:    08080410    ....    DCD    134743056
        0x0000563c:    0000f007    ....    DCD    61447
        0x00005640:    04080000    ....    DCD    67633152
        0x00005644:    fc1f0408    ....    DCD    4229891080
        0x00005648:    04000400    ....    DCD    67109888
        0x0000564c:    00000000    ....    DCD    0
        0x00005650:    0c0e0000    ....    DCD    202244096
        0x00005654:    24101410    ...$    DCD    605033488
        0x00005658:    84114410    .D..    DCD    2215724048
        0x0000565c:    00000c0e    ....    DCD    3086
        0x00005660:    180c0000    ....    DCD    403439616
        0x00005664:    04110410    ....    DCD    68224016
        0x00005668:    88120411    ....    DCD    2282882065
        0x0000566c:    0000700c    .p..    DCD    28684
        0x00005670:    e0000000    ....    DCD    3758096384
        0x00005674:    24042003    . .$    DCD    604250115
        0x00005678:    fc1f2408    .$..    DCD    4229899272
        0x0000567c:    00002400    .$..    DCD    9216
        0x00005680:    981f0000    ....    DCD    2552168448
        0x00005684:    04118410    ....    DCD    68256784
        0x00005688:    88100411    ....    DCD    2282750993
        0x0000568c:    00007010    .p..    DCD    28688
        0x00005690:    f0070000    ....    DCD    4026990592
        0x00005694:    04118808    ....    DCD    68257800
        0x00005698:    88180411    ....    DCD    2283275281
        0x0000569c:    00007000    .p..    DCD    28672
        0x000056a0:    001c0000    ....    DCD    1835008
        0x000056a4:    fc100010    ....    DCD    4228907024
        0x000056a8:    001c0013    ....    DCD    1835027
        0x000056ac:    00000010    ....    DCD    16
        0x000056b0:    380e0000    ...8    DCD    940441600
        0x000056b4:    84104411    .D..    DCD    2215658513
        0x000056b8:    44118410    ...D    DCD    1141998608
        0x000056bc:    0000380e    .8..    DCD    14350
        0x000056c0:    00070000    ....    DCD    458752
        0x000056c4:    44108c08    ...D    DCD    1141935112
        0x000056c8:    88084410    .D..    DCD    2282243088
        0x000056cc:    0000f007    ....    DCD    61447
        0x000056d0:    00000000    ....    DCD    0
        0x000056d4:    0c030000    ....    DCD    201523200
        0x000056d8:    00000c03    ....    DCD    3075
        0x000056dc:    00000000    ....    DCD    0
        0x000056e0:    00000000    ....    DCD    0
        0x000056e4:    06010100    ....    DCD    100729088
        0x000056e8:    00000000    ....    DCD    0
        0x000056ec:    00000000    ....    DCD    0
        0x000056f0:    80000000    ....    DCD    2147483648
        0x000056f4:    20024001    .@.     DCD    537018369
        0x000056f8:    08081004    ....    DCD    134746116
        0x000056fc:    00000410    ....    DCD    1040
        0x00005700:    20022002    . .     DCD    537010178
        0x00005704:    20022002    . .     DCD    537010178
        0x00005708:    20022002    . .     DCD    537010178
        0x0000570c:    00002002    . ..    DCD    8194
        0x00005710:    04100000    ....    DCD    68157440
        0x00005714:    10040808    ....    DCD    268699656
        0x00005718:    40012002    . .@    DCD    1073815554
        0x0000571c:    00008000    ....    DCD    32768
        0x00005720:    000e0000    ....    DCD    917504
        0x00005724:    0c100012    ....    DCD    202375186
        0x00005728:    80106c10    .l..    DCD    2148559888
        0x0000572c:    0000000f    ....    DCD    15
        0x00005730:    180ce003    ....    DCD    403496963
        0x00005734:    2414e413    ...$    DCD    605348883
        0x00005738:    2808c417    ...(    DCD    671663127
        0x0000573c:    0000d007    ....    DCD    53255
        0x00005740:    3c000400    ...<    DCD    1006633984
        0x00005744:    401cc403    ...@    DCD    1075627011
        0x00005748:    e4004007    .@..    DCD    3825221639
        0x0000574c:    04001c00    ....    DCD    67116032
        0x00005750:    fc1f0410    ....    DCD    4229891088
        0x00005754:    04110411    ....    DCD    68224017
        0x00005758:    880e0411    ....    DCD    2282619921
        0x0000575c:    00007000    .p..    DCD    28672
        0x00005760:    180ce003    ....    DCD    403496963
        0x00005764:    04100410    ....    DCD    68158480
        0x00005768:    08100410    ....    DCD    135267344
        0x0000576c:    0000101c    ....    DCD    4124
        0x00005770:    fc1f0410    ....    DCD    4229891088
        0x00005774:    04100410    ....    DCD    68158480
        0x00005778:    08080410    ....    DCD    134743056
        0x0000577c:    0000f007    ....    DCD    61447
        0x00005780:    fc1f0410    ....    DCD    4229891088
        0x00005784:    04110411    ....    DCD    68224017
        0x00005788:    0410c417    ....    DCD    68207639
        0x0000578c:    00001808    ....    DCD    6152
        0x00005790:    fc1f0410    ....    DCD    4229891088
        0x00005794:    00110411    ....    DCD    1115153
        0x00005798:    0010c017    ....    DCD    1097751
        0x0000579c:    00000008    ....    DCD    8
        0x000057a0:    180ce003    ....    DCD    403496963
        0x000057a4:    04100410    ....    DCD    68158480
        0x000057a8:    781c4410    .D.x    DCD    2015118352
        0x000057ac:    00004000    .@..    DCD    16384
        0x000057b0:    fc1f0410    ....    DCD    4229891088
        0x000057b4:    80008410    ....    DCD    2147517456
        0x000057b8:    84108000    ....    DCD    2215673856
        0x000057bc:    0410fc1f    ....    DCD    68221983
        0x000057c0:    04100000    ....    DCD    68157440
        0x000057c4:    fc1f0410    ....    DCD    4229891088
        0x000057c8:    04100410    ....    DCD    68158480
        0x000057cc:    00000000    ....    DCD    0
        0x000057d0:    01000300    ....    DCD    16777984
        0x000057d4:    01100110    ....    DCD    17826064
        0x000057d8:    0010fe1f    ....    DCD    1113631
        0x000057dc:    00000010    ....    DCD    16
        0x000057e0:    fc1f0410    ....    DCD    4229891088
        0x000057e4:    80030411    ....    DCD    2147681297
        0x000057e8:    1c186414    .d..    DCD    471360532
        0x000057ec:    00000410    ....    DCD    1040
        0x000057f0:    fc1f0410    ....    DCD    4229891088
        0x000057f4:    04000410    ....    DCD    67109904
        0x000057f8:    04000400    ....    DCD    67109888
        0x000057fc:    00000c00    ....    DCD    3072
        0x00005800:    fc1f0410    ....    DCD    4229891088
        0x00005804:    fc00001f    ....    DCD    4227858463
        0x00005808:    fc1f001f    ....    DCD    4229890079
        0x0000580c:    00000410    ....    DCD    1040
        0x00005810:    fc1f0410    ....    DCD    4229891088
        0x00005814:    0003040c    ....    DCD    197644
        0x00005818:    1810e000    ....    DCD    403759104
        0x0000581c:    0010fc1f    ....    DCD    1113119
        0x00005820:    0808f007    ....    DCD    134803463
        0x00005824:    04100410    ....    DCD    68158480
        0x00005828:    08080410    ....    DCD    134743056
        0x0000582c:    0000f007    ....    DCD    61447
        0x00005830:    fc1f0410    ....    DCD    4229891088
        0x00005834:    80108410    ....    DCD    2148566032
        0x00005838:    80108010    ....    DCD    2148565008
        0x0000583c:    0000000f    ....    DCD    15
        0x00005840:    1808f007    ....    DCD    403238919
        0x00005844:    24102410    .$.$    DCD    605037584
        0x00005848:    0a081c10    ....    DCD    168303632
        0x0000584c:    0000f207    ....    DCD    61959
        0x00005850:    fc1f0410    ....    DCD    4229891088
        0x00005854:    00110411    ....    DCD    1115153
        0x00005858:    3011c011    ...0    DCD    806469649
        0x0000585c:    04000c0e    ....    DCD    67111950
        0x00005860:    1c0e0000    ....    DCD    470679552
        0x00005864:    84100411    ....    DCD    2215642129
        0x00005868:    44108410    ...D    DCD    1141933072
        0x0000586c:    0000381c    .8..    DCD    14364
        0x00005870:    00100018    ....    DCD    1048600
        0x00005874:    fc1f0410    ....    DCD    4229891088
        0x00005878:    00100410    ....    DCD    1049616
        0x0000587c:    00000018    ....    DCD    24
        0x00005880:    f81f0010    ....    DCD    4162781200
        0x00005884:    04000410    ....    DCD    67109904
        0x00005888:    04100400    ....    DCD    68158464
        0x0000588c:    0010f81f    ....    DCD    1112095
        0x00005890:    001e0010    ....    DCD    1966096
        0x00005894:    1c00e011    ....    DCD    469819409
        0x00005898:    80137000    .p..    DCD    2148757504
        0x0000589c:    0010001c    ....    DCD    1048604
        0x000058a0:    3c10c01f    ...<    DCD    1007730719
        0x000058a4:    001fe000    ....    DCD    2088960
        0x000058a8:    3c10e000    ...<    DCD    1007738880
        0x000058ac:    0000c01f    ....    DCD    49183
        0x000058b0:    0c180410    ....    DCD    202900496
        0x000058b4:    c0013416    .4..    DCD    3221304342
        0x000058b8:    3416c001    ...4    DCD    873906177
        0x000058bc:    04100c18    ....    DCD    68160536
        0x000058c0:    001c0010    ....    DCD    1835024
        0x000058c4:    fc000413    ....    DCD    4227859475
        0x000058c8:    001c0413    ....    DCD    1836051
        0x000058cc:    00000010    ....    DCD    16
        0x000058d0:    1c100408    ....    DCD    470811656
        0x000058d4:    84106410    .d..    DCD    2215666704
        0x000058d8:    041c0413    ....    DCD    68944915
        0x000058dc:    00001810    ....    DCD    6160
        0x000058e0:    00000000    ....    DCD    0
        0x000058e4:    fe7f0000    ....    DCD    4269735936
        0x000058e8:    02400240    @.@.    DCD    37749312
        0x000058ec:    00000240    @...    DCD    576
        0x000058f0:    00300000    ..0.    DCD    3145728
        0x000058f4:    8003000c    ....    DCD    2147680268
        0x000058f8:    1c006000    .`..    DCD    469786624
        0x000058fc:    00000300    ....    DCD    768
        0x00005900:    02400000    ..@.    DCD    37748736
        0x00005904:    02400240    @.@.    DCD    37749312
        0x00005908:    0000fe7f    ....    DCD    65151
        0x0000590c:    00000000    ....    DCD    0
        0x00005910:    00000000    ....    DCD    0
        0x00005914:    00400020     .@.    DCD    4194336
        0x00005918:    00400040    @.@.    DCD    4194368
        0x0000591c:    00000020     ...    DCD    32
        0x00005920:    01000100    ....    DCD    16777472
        0x00005924:    01000100    ....    DCD    16777472
        0x00005928:    01000100    ....    DCD    16777472
        0x0000592c:    01000100    ....    DCD    16777472
        0x00005930:    00400000    ..@.    DCD    4194304
        0x00005934:    00200040    @. .    DCD    2097216
        0x00005938:    00000000    ....    DCD    0
        0x0000593c:    00000000    ....    DCD    0
        0x00005940:    98000000    ....    DCD    2550136832
        0x00005944:    44012401    .$.D    DCD    1140925441
        0x00005948:    44014401    .D.D    DCD    1140933633
        0x0000594c:    0400fc00    ....    DCD    67173376
        0x00005950:    fc1f0010    ....    DCD    4229890064
        0x00005954:    04018800    ....    DCD    67209216
        0x00005958:    88000401    ....    DCD    2281702401
        0x0000595c:    00007000    .p..    DCD    28672
        0x00005960:    70000000    ...p    DCD    1879048192
        0x00005964:    04018800    ....    DCD    67209216
        0x00005968:    04010401    ....    DCD    67175425
        0x0000596c:    00008800    ....    DCD    34816
        0x00005970:    70000000    ...p    DCD    1879048192
        0x00005974:    04018800    ....    DCD    67209216
        0x00005978:    08110401    ....    DCD    135332865
        0x0000597c:    0400fc1f    ....    DCD    67173407
        0x00005980:    f8000000    ....    DCD    4160749568
        0x00005984:    44014401    .D.D    DCD    1140933633
        0x00005988:    44014401    .D.D    DCD    1140933633
        0x0000598c:    0000c800    ....    DCD    51200
        0x00005990:    04010000    ....    DCD    67174400
        0x00005994:    fc0f0401    ....    DCD    4228842497
        0x00005998:    04110411    ....    DCD    68224017
        0x0000599c:    00180011    ....    DCD    1572881
        0x000059a0:    d6000000    ....    DCD    3590324224
        0x000059a4:    29012901    .).)    DCD    687941889
        0x000059a8:    c9012901    .)..    DCD    3372296449
        0x000059ac:    00000601    ....    DCD    1537
        0x000059b0:    fc1f0410    ....    DCD    4229891088
        0x000059b4:    00018400    ....    DCD    99328
        0x000059b8:    04010001    ....    DCD    67174401
        0x000059bc:    0400fc00    ....    DCD    67173376
        0x000059c0:    04010000    ....    DCD    67174400
        0x000059c4:    fc190419    ....    DCD    4229497881
        0x000059c8:    04000400    ....    DCD    67109888
        0x000059cc:    00000000    ....    DCD    0
        0x000059d0:    03000000    ....    DCD    50331648
        0x000059d4:    01010100    ....    DCD    16843008
        0x000059d8:    fe190119    ....    DCD    4263051545
        0x000059dc:    00000000    ....    DCD    0
        0x000059e0:    fc1f0410    ....    DCD    4229891088
        0x000059e4:    40002400    .$.@    DCD    1073751040
        0x000059e8:    0c01b401    ....    DCD    201438209
        0x000059ec:    00000401    ....    DCD    1025
        0x000059f0:    04100000    ....    DCD    68157440
        0x000059f4:    fc1f0410    ....    DCD    4229891088
        0x000059f8:    04000400    ....    DCD    67109888
        0x000059fc:    00000000    ....    DCD    0
        0x00005a00:    fc010401    ....    DCD    4227924993
        0x00005a04:    00010401    ....    DCD    66561
        0x00005a08:    0401fc01    ....    DCD    67238913
        0x00005a0c:    fc000001    ....    DCD    4227858433
        0x00005a10:    fc010401    ....    DCD    4227924993
        0x00005a14:    00018400    ....    DCD    99328
        0x00005a18:    04010001    ....    DCD    67174401
        0x00005a1c:    0400fc00    ....    DCD    67173376
        0x00005a20:    f8000000    ....    DCD    4160749568
        0x00005a24:    04010401    ....    DCD    67175425
        0x00005a28:    04010401    ....    DCD    67175425
        0x00005a2c:    0000f800    ....    DCD    63488
        0x00005a30:    ff010101    ....    DCD    4278255873
        0x00005a34:    04018500    ....    DCD    67208448
        0x00005a38:    88000401    ....    DCD    2281702401
        0x00005a3c:    00007000    .p..    DCD    28672
        0x00005a40:    70000000    ...p    DCD    1879048192
        0x00005a44:    04018800    ....    DCD    67209216
        0x00005a48:    05010401    ....    DCD    83952641
        0x00005a4c:    0100ff01    ....    DCD    16842497
        0x00005a50:    04010401    ....    DCD    67175425
        0x00005a54:    8400fc01    ....    DCD    2214657025
        0x00005a58:    00010401    ....    DCD    66561
        0x00005a5c:    00008001    ....    DCD    32769
        0x00005a60:    cc000000    ....    DCD    3422552064
        0x00005a64:    24012401    .$.$    DCD    604054529
        0x00005a68:    24012401    .$.$    DCD    604054529
        0x00005a6c:    00009801    ....    DCD    38913
        0x00005a70:    00010000    ....    DCD    65536
        0x00005a74:    f8070001    ....    DCD    4161208321
        0x00005a78:    04010401    ....    DCD    67175425
        0x00005a7c:    00000000    ....    DCD    0
        0x00005a80:    f8010001    ....    DCD    4160815105
        0x00005a84:    04000400    ....    DCD    67109888
        0x00005a88:    08010400    ....    DCD    134284288
        0x00005a8c:    0400fc01    ....    DCD    67173377
        0x00005a90:    80010001    ....    DCD    2147549185
        0x00005a94:    0c007001    .p..    DCD    201355265
        0x00005a98:    60011000    ...`    DCD    1610682368
        0x00005a9c:    00018001    ....    DCD    98305
        0x00005aa0:    0c01f001    ....    DCD    201453569
        0x00005aa4:    c0013000    .0..    DCD    3221303296
        0x00005aa8:    0c013000    .0..    DCD    201404416
        0x00005aac:    0001f001    ....    DCD    126977
        0x00005ab0:    04010000    ....    DCD    67174400
        0x00005ab4:    74008c01    ...t    DCD    1946192897
        0x00005ab8:    8c017001    .p..    DCD    2348904449
        0x00005abc:    00000401    ....    DCD    1025
        0x00005ac0:    81010101    ....    DCD    2164326657
        0x00005ac4:    0e007101    .q..    DCD    234909953
        0x00005ac8:    60011800    ...`    DCD    1610684416
        0x00005acc:    00018001    ....    DCD    98305
        0x00005ad0:    84010000    ....    DCD    2214658048
        0x00005ad4:    34010c01    ...4    DCD    872483841
        0x00005ad8:    84014401    .D..    DCD    2214675457
        0x00005adc:    00000c01    ....    DCD    3073
        0x00005ae0:    00000000    ....    DCD    0
        0x00005ae4:    00000000    ....    DCD    0
        0x00005ae8:    fc3e0001    ..>.    DCD    4231921665
        0x00005aec:    02400240    @.@.    DCD    37749312
        0x00005af0:    00000000    ....    DCD    0
        0x00005af4:    00000000    ....    DCD    0
        0x00005af8:    0000ffff    ....    DCD    65535
        0x00005afc:    00000000    ....    DCD    0
        0x00005b00:    02400000    ..@.    DCD    37748736
        0x00005b04:    fc3e0240    @.>.    DCD    4231922240
        0x00005b08:    00000001    ....    DCD    1
        0x00005b0c:    00000000    ....    DCD    0
        0x00005b10:    00600000    ..`.    DCD    6291456
        0x00005b14:    00800080    ....    DCD    8388736
        0x00005b18:    00400040    @.@.    DCD    4194368
        0x00005b1c:    00200020     . .    DCD    2097184
    gsc_st7789_ascii_2412
        0x00005b20:    00000000    ....    DCD    0
        0x00005b24:    00000000    ....    DCD    0
        0x00005b28:    00000000    ....    DCD    0
        0x00005b2c:    00000000    ....    DCD    0
        0x00005b30:    00000000    ....    DCD    0
        0x00005b34:    00000000    ....    DCD    0
        0x00005b38:    00000000    ....    DCD    0
        0x00005b3c:    00000000    ....    DCD    0
        0x00005b40:    00000000    ....    DCD    0
        0x00005b44:    00000000    ....    DCD    0
        0x00005b48:    00000000    ....    DCD    0
        0x00005b4c:    00000000    ....    DCD    0
        0x00005b50:    0f000000    ....    DCD    251658240
        0x00005b54:    fe0f3880    .8..    DCD    4262410368
        0x00005b58:    38800f38    8..8    DCD    947916600
        0x00005b5c:    00000000    ....    DCD    0
        0x00005b60:    00000000    ....    DCD    0
        0x00005b64:    00000000    ....    DCD    0
        0x00005b68:    00000000    ....    DCD    0
        0x00005b6c:    00010000    ....    DCD    65536
        0x00005b70:    00000600    ....    DCD    1536
        0x00005b74:    3800000c    ...8    DCD    939524108
        0x00005b78:    00310000    ..1.    DCD    3211264
        0x00005b7c:    00000600    ....    DCD    1536
        0x00005b80:    3800000c    ...8    DCD    939524108
        0x00005b84:    00300000    ..0.    DCD    3145728
        0x00005b88:    00000000    ....    DCD    0
        0x00005b8c:    00000000    ....    DCD    0
        0x00005b90:    67008061    a..g    DCD    1728086113
        0x00005b94:    80f907f8    ....    DCD    2163804152
        0x00005b98:    00806100    .a..    DCD    8413440
        0x00005b9c:    61008061    a..a    DCD    1627422817
        0x00005ba0:    80610080    ..a.    DCD    2153840768
        0x00005ba4:    07f86700    .g..    DCD    133719808
        0x00005ba8:    610080f9    ...a    DCD    1627422969
        0x00005bac:    00000080    ....    DCD    128
        0x00005bb0:    00000000    ....    DCD    0
        0x00005bb4:    c0010000    ....    DCD    3221291008
        0x00005bb8:    f0e003e0    ....    DCD    4041212896
        0x00005bbc:    04083006    .0..    DCD    67645446
        0x00005bc0:    ff1f0818    ....    DCD    4280223768
        0x00005bc4:    080e04fe    ....    DCD    135136510
        0x00005bc8:    03f08707    ....    DCD    66094855
        0x00005bcc:    0000e081    ....    DCD    57473
        0x00005bd0:    00000000    ....    DCD    0
        0x00005bd4:    0600f001    ....    DCD    100724737
        0x00005bd8:    0404000c    ....    DCD    67371020
        0x00005bdc:    700c0608    ...p    DCD    1879836168
        0x00005be0:    00c0f901    ....    DCD    12646657
        0x00005be4:    3b00000e    ...;    DCD    989855758
        0x00005be8:    18ec00e0    ....    DCD    418119904
        0x00005bec:    04080807    ....    DCD    67635207
        0x00005bf0:    0300180c    ....    DCD    50337804
        0x00005bf4:    000000e0    ....    DCD    224
        0x00005bf8:    00e00100    ....    DCD    14680320
        0x00005bfc:    f803f007    ....    DCD    4161007623
        0x00005c00:    081c0418    ....    DCD    136053784
        0x00005c04:    07081704    ....    DCD    117970692
        0x00005c08:    c003d0e1    ....    DCD    3221475553
        0x00005c0c:    b02300e0    ..#.    DCD    2955084000
        0x00005c10:    00083c00    .<..    DCD    539648
        0x00005c14:    00000820     ...    DCD    2080
        0x00005c18:    00000010    ....    DCD    16
        0x00005c1c:    01000000    ....    DCD    16777216
        0x00005c20:    00310000    ..1.    DCD    3211264
        0x00005c24:    00003200    .2..    DCD    12800
        0x00005c28:    0000001c    ....    DCD    28
        0x00005c2c:    00000000    ....    DCD    0
        0x00005c30:    00000000    ....    DCD    0
        0x00005c34:    00000000    ....    DCD    0
        0x00005c38:    00000000    ....    DCD    0
        0x00005c3c:    00000000    ....    DCD    0
        0x00005c40:    00000000    ....    DCD    0
        0x00005c44:    00000000    ....    DCD    0
        0x00005c48:    00000000    ....    DCD    0
        0x00005c4c:    00000000    ....    DCD    0
        0x00005c50:    ff01007f    ....    DCD    4278255743
        0x00005c54:    f08007c0    ....    DCD    4034922432
        0x00005c58:    1018000c    ....    DCD    270008332
        0x00005c5c:    00200400    .. .    DCD    2098176
        0x00005c60:    00000002    ....    DCD    2
        0x00005c64:    20000000    ...     DCD    536870912
        0x00005c68:    00100200    ....    DCD    1049088
        0x00005c6c:    18000c04    ....    DCD    402656260
        0x00005c70:    01f08007    ....    DCD    32538631
        0x00005c74:    7f00c0ff    ....    DCD    2130755839
        0x00005c78:    00000000    ....    DCD    0
        0x00005c7c:    00000000    ....    DCD    0
        0x00005c80:    00000000    ....    DCD    0
        0x00005c84:    00000000    ....    DCD    0
        0x00005c88:    00000000    ....    DCD    0
        0x00005c8c:    66000042    B..f    DCD    1711276098
        0x00005c90:    00660000    ..f.    DCD    6684672
        0x00005c94:    00003c00    .<..    DCD    15360
        0x00005c98:    ff030018    ....    DCD    4278386712
        0x00005c9c:    001800c0    ....    DCD    1573056
        0x00005ca0:    00003c00    .<..    DCD    15360
        0x00005ca4:    66000066    f..f    DCD    1711276134
        0x00005ca8:    00420000    ..B.    DCD    4325376
        0x00005cac:    00000000    ....    DCD    0
        0x00005cb0:    08000008    ....    DCD    134217736
        0x00005cb4:    00080000    ....    DCD    524288
        0x00005cb8:    00000800    ....    DCD    2048
        0x00005cbc:    ff010008    ....    DCD    4278255624
        0x00005cc0:    000800c0    ....    DCD    524480
        0x00005cc4:    00000800    ....    DCD    2048
        0x00005cc8:    08000008    ....    DCD    134217736
        0x00005ccc:    00080000    ....    DCD    524288
        0x00005cd0:    00000000    ....    DCD    0
        0x00005cd4:    00000100    ....    DCD    256
        0x00005cd8:    32000031    1..2    DCD    838860849
        0x00005cdc:    001c0000    ....    DCD    1835008
        0x00005ce0:    00000000    ....    DCD    0
        0x00005ce4:    00000000    ....    DCD    0
        0x00005ce8:    00000000    ....    DCD    0
        0x00005cec:    00000000    ....    DCD    0
        0x00005cf0:    00000000    ....    DCD    0
        0x00005cf4:    00000000    ....    DCD    0
        0x00005cf8:    08000008    ....    DCD    134217736
        0x00005cfc:    00080000    ....    DCD    524288
        0x00005d00:    00000800    ....    DCD    2048
        0x00005d04:    08000008    ....    DCD    134217736
        0x00005d08:    00080000    ....    DCD    524288
        0x00005d0c:    00000800    ....    DCD    2048
        0x00005d10:    08000008    ....    DCD    134217736
        0x00005d14:    00000000    ....    DCD    0
        0x00005d18:    00000000    ....    DCD    0
        0x00005d1c:    00000000    ....    DCD    0
        0x00005d20:    38000038    8..8    DCD    939524152
        0x00005d24:    00380000    ..8.    DCD    3670016
        0x00005d28:    00000000    ....    DCD    0
        0x00005d2c:    00000000    ....    DCD    0
        0x00005d30:    00000000    ....    DCD    0
        0x00005d34:    00000000    ....    DCD    0
        0x00005d38:    00000000    ....    DCD    0
        0x00005d3c:    00000000    ....    DCD    0
        0x00005d40:    00000600    ....    DCD    1536
        0x00005d44:    7000001c    ...p    DCD    1879048220
        0x00005d48:    00800100    ....    DCD    8388864
        0x00005d4c:    3800000e    ...8    DCD    939524110
        0x00005d50:    00c00000    ....    DCD    12582912
        0x00005d54:    1c000007    ....    DCD    469762055
        0x00005d58:    00300000    ..0.    DCD    3145728
        0x00005d5c:    00000000    ....    DCD    0
        0x00005d60:    00000000    ....    DCD    0
        0x00005d64:    ff01807f    ....    DCD    4278288511
        0x00005d68:    708003e0    ...p    DCD    1887437792
        0x00005d6c:    04180006    ....    DCD    68681734
        0x00005d70:    00040800    ....    DCD    264192
        0x00005d74:    18000608    ....    DCD    402654728
        0x00005d78:    01708003    ..p.    DCD    24150019
        0x00005d7c:    7f00e0ff    ....    DCD    2130764031
        0x00005d80:    00000080    ....    DCD    128
        0x00005d84:    00000000    ....    DCD    0
        0x00005d88:    00010000    ....    DCD    65536
        0x00005d8c:    08000108    ....    DCD    134217992
        0x00005d90:    03080001    ....    DCD    50855937
        0x00005d94:    ff07f8ff    ....    DCD    4278712575
        0x00005d98:    080000f8    ....    DCD    134217976
        0x00005d9c:    00080000    ....    DCD    524288
        0x00005da0:    00000800    ....    DCD    2048
        0x00005da4:    00000000    ....    DCD    0
        0x00005da8:    01000000    ....    DCD    16777216
        0x00005dac:    c00238c0    .8..    DCD    3221371072
        0x00005db0:    98000458    X...    DCD    2550137944
        0x00005db4:    04180104    ....    DCD    68681988
        0x00005db8:    04041802    ....    DCD    67377154
        0x00005dbc:    181c0618    ....    DCD    404489752
        0x00005dc0:    0118f803    ....    DCD    18413571
        0x00005dc4:    0000f8e0    ....    DCD    63712
        0x00005dc8:    00000000    ....    DCD    0
        0x00005dcc:    01000000    ....    DCD    16777216
        0x00005dd0:    c003e0c0    ....    DCD    3221479616
        0x00005dd4:    080004f0    ....    DCD    134218992
        0x00005dd8:    04080804    ....    DCD    67635204
        0x00005ddc:    18060808    ....    DCD    403048456
        0x00005de0:    18f40308    ....    DCD    418644744
        0x00005de4:    00f0e701    ....    DCD    15787777
        0x00005de8:    0000e001    ....    DCD    57345
        0x00005dec:    00000000    ....    DCD    0
        0x00005df0:    00000000    ....    DCD    0
        0x00005df4:    0d000003    ....    DCD    218103811
        0x00005df8:    00110000    ....    DCD    1114112
        0x00005dfc:    00006100    .a..    DCD    24832
        0x00005e00:    01030881    ....    DCD    16976001
        0x00005e04:    f8ff0708    ....    DCD    4177463048
        0x00005e08:    00f8ff0f    ....    DCD    16318223
        0x00005e0c:    01000801    ....    DCD    16779265
        0x00005e10:    00000008    ....    DCD    8
        0x00005e14:    00000000    ....    DCD    0
        0x00005e18:    fc07e000    ....    DCD    4228374528
        0x00005e1c:    080806d0    ....    DCD    134743760
        0x00005e20:    06081006    ....    DCD    101191686
        0x00005e24:    10060810    ....    DCD    268830736
        0x00005e28:    38180608    ...8    DCD    941098504
        0x00005e2c:    06f00f06    ....    DCD    116395782
        0x00005e30:    0000c007    ....    DCD    49159
        0x00005e34:    00000000    ....    DCD    0
        0x00005e38:    00000000    ....    DCD    0
        0x00005e3c:    ff01803f    ?...    DCD    4278288447
        0x00005e40:    308403e0    ...0    DCD    813958112
        0x00005e44:    04180802    ....    DCD    68683778
        0x00005e48:    10040810    ....    DCD    268699664
        0x00005e4c:    08100408    ....    DCD    135267336
        0x00005e50:    03101807    ....    DCD    51386375
        0x00005e54:    0700f00f    ....    DCD    117501967
        0x00005e58:    000000c0    ....    DCD    192
        0x00005e5c:    00000000    ....    DCD    0
        0x00005e60:    c0030000    ....    DCD    3221422080
        0x00005e64:    00000700    ....    DCD    1792
        0x00005e68:    06000006    ....    DCD    100663302
        0x00005e6c:    0706f800    ....    DCD    117897216
        0x00005e70:    001806f8    ....    DCD    1574648
        0x00005e74:    0700e006    ....    DCD    117497862
        0x00005e78:    00060000    ....    DCD    393216
        0x00005e7c:    00000000    ....    DCD    0
        0x00005e80:    01000000    ....    DCD    16777216
        0x00005e84:    f703e0e1    ....    DCD    4144226529
        0x00005e88:    103406f0    ..4.    DCD    271845104
        0x00005e8c:    04081804    ....    DCD    67639300
        0x00005e90:    0c040818    ....    DCD    201590808
        0x00005e94:    080c0408    ....    DCD    135005192
        0x00005e98:    03181606    ....    DCD    51910150
        0x00005e9c:    c101f0f3    ....    DCD    3238129907
        0x00005ea0:    000000e0    ....    DCD    224
        0x00005ea4:    00000000    ....    DCD    0
        0x00005ea8:    fc0300f8    ....    DCD    4228055288
        0x00005eac:    38060330    0..8    DCD    939918128
        0x00005eb0:    04080204    ....    DCD    67633668
        0x00005eb4:    02040802    ....    DCD    33818626
        0x00005eb8:    10040408    ....    DCD    268698632
        0x00005ebc:    01f00803    ....    DCD    32507907
        0x00005ec0:    7f00c0ff    ....    DCD    2130755839
        0x00005ec4:    00000000    ....    DCD    0
        0x00005ec8:    00000000    ....    DCD    0
        0x00005ecc:    00000000    ....    DCD    0
        0x00005ed0:    00000000    ....    DCD    0
        0x00005ed4:    00000000    ....    DCD    0
        0x00005ed8:    70003870    p8.p    DCD    1879062640
        0x00005edc:    38700038    8.p8    DCD    946864184
        0x00005ee0:    00000000    ....    DCD    0
        0x00005ee4:    00000000    ....    DCD    0
        0x00005ee8:    00000000    ....    DCD    0
        0x00005eec:    00000000    ....    DCD    0
        0x00005ef0:    00000000    ....    DCD    0
        0x00005ef4:    00000000    ....    DCD    0
        0x00005ef8:    00000000    ....    DCD    0
        0x00005efc:    30001a30    0..0    DCD    805313072
        0x00005f00:    0000001c    ....    DCD    28
        0x00005f04:    00000000    ....    DCD    0
        0x00005f08:    00000000    ....    DCD    0
        0x00005f0c:    00000000    ....    DCD    0
        0x00005f10:    00000000    ....    DCD    0
        0x00005f14:    08000000    ....    DCD    134217728
        0x00005f18:    00140000    ....    DCD    1310720
        0x00005f1c:    00002200    ."..    DCD    8704
        0x00005f20:    80000041    A...    DCD    2147483713
        0x00005f24:    40000180    ...@    DCD    1073742208
        0x00005f28:    04200002    .. .    DCD    69206018
        0x00005f2c:    00081000    ....    DCD    528384
        0x00005f30:    00000008    ....    DCD    8
        0x00005f34:    00000000    ....    DCD    0
        0x00005f38:    21000021    !..!    DCD    553648161
        0x00005f3c:    00210000    ..!.    DCD    2162688
        0x00005f40:    00002100    .!..    DCD    8448
        0x00005f44:    21000021    !..!    DCD    553648161
        0x00005f48:    00210000    ..!.    DCD    2162688
        0x00005f4c:    00002100    .!..    DCD    8448
        0x00005f50:    21000021    !..!    DCD    553648161
        0x00005f54:    00000000    ....    DCD    0
        0x00005f58:    00000000    ....    DCD    0
        0x00005f5c:    00080000    ....    DCD    524288
        0x00005f60:    10000408    ....    DCD    268436488
        0x00005f64:    01200002    .. .    DCD    18874370
        0x00005f68:    80004000    .@..    DCD    2147500032
        0x00005f6c:    00410080    ..A.    DCD    4259968
        0x00005f70:    00002200    ."..    DCD    8704
        0x00005f74:    08000014    ....    DCD    134217748
        0x00005f78:    00000000    ....    DCD    0
        0x00005f7c:    03000000    ....    DCD    50331648
        0x00005f80:    c00400c0    ....    DCD    3221487808
        0x00005f84:    00000400    ....    DCD    1024
        0x00005f88:    08380008    ..8.    DCD    137887752
        0x00005f8c:    0808380f    .8..    DCD    134756367
        0x00005f90:    00100838    8...    DCD    1050680
        0x00005f94:    0700300c    .0..    DCD    117452812
        0x00005f98:    c00300e0    ....    DCD    3221422304
        0x00005f9c:    00000000    ....    DCD    0
        0x00005fa0:    00000000    ....    DCD    0
        0x00005fa4:    ff00803f    ?...    DCD    4278222911
        0x00005fa8:    708003e0    ...p    DCD    1887437792
        0x00005fac:    06100f02    ....    DCD    101715714
        0x00005fb0:    c0048870    p...    DCD    3221522544
        0x00005fb4:    08830488    ....    DCD    142804104
        0x00005fb8:    02887f04    ....    DCD    42499844
        0x00005fbc:    010390c0    ....    DCD    17010880
        0x00005fc0:    40fe0020     ..@    DCD    1090388000
        0x00005fc4:    00080000    ....    DCD    524288
        0x00005fc8:    01001800    ....    DCD    16783360
        0x00005fcc:    083e00f8    ..>.    DCD    138281208
        0x00005fd0:    0700c201    ....    DCD    117490177
        0x00005fd4:    e2070002    ....    DCD    3792109570
        0x00005fd8:    00fe0000    ....    DCD    16646144
        0x00005fdc:    00c81f00    ....    DCD    13115136
        0x00005fe0:    0000f801    ....    DCD    63489
        0x00005fe4:    08000038    8...    DCD    134217784
        0x00005fe8:    07080004    ....    DCD    117964804
        0x00005fec:    ff07f8ff    ....    DCD    4278712575
        0x00005ff0:    080804f8    ....    DCD    134743288
        0x00005ff4:    04080804    ....    DCD    67635204
        0x00005ff8:    08040808    ....    DCD    134481928
        0x00005ffc:    08180608    ....    DCD    135792136
        0x00006000:    0118f403    ....    DCD    18412547
        0x00006004:    0100f0e7    ....    DCD    16838887
        0x00006008:    000000e0    ....    DCD    224
        0x0000600c:    00000000    ....    DCD    0
        0x00006010:    ff01803f    ?...    DCD    4278288447
        0x00006014:    708003e0    ...p    DCD    1887437792
        0x00006018:    04180002    ....    DCD    68681730
        0x0000601c:    00040800    ....    DCD    264192
        0x00006020:    08000408    ....    DCD    134218760
        0x00006024:    06100004    ....    DCD    101711876
        0x00006028:    80072000    . ..    DCD    2147950592
        0x0000602c:    000000c0    ....    DCD    192
        0x00006030:    07080004    ....    DCD    117964804
        0x00006034:    ff07f8ff    ....    DCD    4278712575
        0x00006038:    080004f8    ....    DCD    134219000
        0x0000603c:    04080004    ....    DCD    67633156
        0x00006040:    00040800    ....    DCD    264192
        0x00006044:    10000218    ....    DCD    268435992
        0x00006048:    01708003    ..p.    DCD    24150019
        0x0000604c:    7f00e0ff    ....    DCD    2130764031
        0x00006050:    00000080    ....    DCD    128
        0x00006054:    07080004    ....    DCD    117964804
        0x00006058:    ff07f8ff    ....    DCD    4278712575
        0x0000605c:    080804f8    ....    DCD    134743288
        0x00006060:    04080804    ....    DCD    67635204
        0x00006064:    08040808    ....    DCD    134481928
        0x00006068:    083e0408    ..>.    DCD    138281992
        0x0000606c:    06080004    ....    DCD    101187588
        0x00006070:    00011800    ....    DCD    71680
        0x00006074:    00000060    `...    DCD    96
        0x00006078:    07080004    ....    DCD    117964804
        0x0000607c:    ff07f8ff    ....    DCD    4278712575
        0x00006080:    080804f8    ....    DCD    134743288
        0x00006084:    04000804    ....    DCD    67110916
        0x00006088:    08040008    ....    DCD    134479880
        0x0000608c:    003e0400    ..>.    DCD    4064256
        0x00006090:    06000006    ....    DCD    100663302
        0x00006094:    80010000    ....    DCD    2147549184
        0x00006098:    00000000    ....    DCD    0
        0x0000609c:    00000000    ....    DCD    0
        0x000060a0:    ff01803f    ?...    DCD    4278288447
        0x000060a4:    708003e0    ...p    DCD    1887437792
        0x000060a8:    04180006    ....    DCD    68681734
        0x000060ac:    02040800    ....    DCD    33818624
        0x000060b0:    08020408    ....    DCD    134349832
        0x000060b4:    07f00302    ....    DCD    133169922
        0x000060b8:    0200f083    ....    DCD    33616003
        0x000060bc:    00020000    ....    DCD    131072
        0x000060c0:    07080004    ....    DCD    117964804
        0x000060c4:    ff07f8ff    ....    DCD    4278712575
        0x000060c8:    080804f8    ....    DCD    134743288
        0x000060cc:    00000800    ....    DCD    2048
        0x000060d0:    08000008    ....    DCD    134217736
        0x000060d4:    00080000    ....    DCD    524288
        0x000060d8:    07080804    ....    DCD    117966852
        0x000060dc:    ff07f8ff    ....    DCD    4278712575
        0x000060e0:    080004f8    ....    DCD    134219000
        0x000060e4:    00000000    ....    DCD    0
        0x000060e8:    00040000    ....    DCD    262144
        0x000060ec:    08000408    ....    DCD    134218760
        0x000060f0:    07080004    ....    DCD    117964804
        0x000060f4:    ff07f8ff    ....    DCD    4278712575
        0x000060f8:    080004f8    ....    DCD    134219000
        0x000060fc:    04080004    ....    DCD    67633156
        0x00006100:    00000800    ....    DCD    2048
        0x00006104:    00000000    ....    DCD    0
        0x00006108:    00000000    ....    DCD    0
        0x0000610c:    00000600    ....    DCD    1536
        0x00006110:    01000007    ....    DCD    16777223
        0x00006114:    04010004    ....    DCD    67174404
        0x00006118:    00040100    ....    DCD    262400
        0x0000611c:    feff0703    ....    DCD    4278126339
        0x00006120:    04fcff07    ....    DCD    83689223
        0x00006124:    00040000    ....    DCD    262144
        0x00006128:    00000400    ....    DCD    1024
        0x0000612c:    07080004    ....    DCD    117964804
        0x00006130:    ff07f8ff    ....    DCD    4278712575
        0x00006134:    080c04f8    ....    DCD    135005432
        0x00006138:    00001800    ....    DCD    6144
        0x0000613c:    c704003e    >...    DCD    3338928190
        0x00006140:    c8030580    ....    DCD    3355641216
        0x00006144:    04f80006    ....    DCD    83361798
        0x00006148:    00043800    .8..    DCD    276480
        0x0000614c:    08000018    ....    DCD    134217752
        0x00006150:    07080004    ....    DCD    117964804
        0x00006154:    ff07f8ff    ....    DCD    4278712575
        0x00006158:    080004f8    ....    DCD    134219000
        0x0000615c:    00080000    ....    DCD    524288
        0x00006160:    00000800    ....    DCD    2048
        0x00006164:    08000008    ....    DCD    134217736
        0x00006168:    00080000    ....    DCD    524288
        0x0000616c:    00001800    ....    DCD    6144
        0x00006170:    00000060    `...    DCD    96
        0x00006174:    07080004    ....    DCD    117964804
        0x00006178:    8007f8ff    ....    DCD    2148006143
        0x0000617c:    00fc0708    ....    DCD    16516872
        0x00006180:    00c07f00    ....    DCD    12615424
        0x00006184:    0700f803    ....    DCD    117504003
        0x00006188:    007800c0    ..x.    DCD    7864512
        0x0000618c:    07088007    ....    DCD    117997575
        0x00006190:    ff07f8ff    ....    DCD    4278712575
        0x00006194:    080004f8    ....    DCD    134219000
        0x00006198:    07080004    ....    DCD    117964804
        0x0000619c:    0007f8ff    ....    DCD    522495
        0x000061a0:    00c00308    ....    DCD    12583688
        0x000061a4:    0000e000    ....    DCD    57344
        0x000061a8:    1e000038    8...    DCD    503316536
        0x000061ac:    00070000    ....    DCD    458752
        0x000061b0:    04c00100    ....    DCD    79692032
        0x000061b4:    ff07f000    ....    DCD    4278710272
        0x000061b8:    000004f8    ....    DCD    1272
        0x000061bc:    00000000    ....    DCD    0
        0x000061c0:    ff01807f    ....    DCD    4278288511
        0x000061c4:    708003e0    ...p    DCD    1887437792
        0x000061c8:    04180006    ....    DCD    68681734
        0x000061cc:    00040800    ....    DCD    264192
        0x000061d0:    18000608    ....    DCD    402654728
        0x000061d4:    01300003    ..0.    DCD    19922947
        0x000061d8:    7f00e0ff    ....    DCD    2130764031
        0x000061dc:    00000080    ....    DCD    128
        0x000061e0:    07080004    ....    DCD    117964804
        0x000061e4:    ff07f8ff    ....    DCD    4278712575
        0x000061e8:    080404f8    ....    DCD    134481144
        0x000061ec:    04000404    ....    DCD    67109892
        0x000061f0:    04040004    ....    DCD    67371012
        0x000061f4:    00040400    ....    DCD    263168
        0x000061f8:    03000c06    ....    DCD    50334726
        0x000061fc:    f00100f8    ....    DCD    4026597624
        0x00006200:    00000000    ....    DCD    0
        0x00006204:    00000000    ....    DCD    0
        0x00006208:    ff01807f    ....    DCD    4278288511
        0x0000620c:    708003e0    ...p    DCD    1887437792
        0x00006210:    04880006    ....    DCD    76021766
        0x00006214:    00048800    ....    DCD    296960
        0x00006218:    3c0006c8    ...<    DCD    1006634696
        0x0000621c:    013e0003    ..>.    DCD    20840451
        0x00006220:    7f00e6ff    ....    DCD    2130765567
        0x00006224:    00000084    ....    DCD    132
        0x00006228:    07080004    ....    DCD    117964804
        0x0000622c:    ff07f8ff    ....    DCD    4278712575
        0x00006230:    080804f8    ....    DCD    134743288
        0x00006234:    04000804    ....    DCD    67110916
        0x00006238:    0f04000c    ....    DCD    251920396
        0x0000623c:    c00b0400    ....    DCD    3221947392
        0x00006240:    03f01006    ....    DCD    66064390
        0x00006244:    e00138f0    .8..    DCD    3758176496
        0x00006248:    08000008    ....    DCD    134217736
        0x0000624c:    01000000    ....    DCD    16777216
        0x00006250:    f003f8e0    ....    DCD    4026792160
        0x00006254:    10300630    0.0.    DCD    271582768
        0x00006258:    04081804    ....    DCD    67639300
        0x0000625c:    0c040818    ....    DCD    201590808
        0x00006260:    080c0408    ....    DCD    135005192
        0x00006264:    02180602    ....    DCD    35128834
        0x00006268:    8107f007    ....    DCD    2164781063
        0x0000626c:    000000e0    ....    DCD    224
        0x00006270:    06008001    ....    DCD    100696065
        0x00006274:    00040000    ....    DCD    262144
        0x00006278:    00000400    ....    DCD    1024
        0x0000627c:    07080004    ....    DCD    117964804
        0x00006280:    ff07f8ff    ....    DCD    4278712575
        0x00006284:    080004f8    ....    DCD    134219000
        0x00006288:    04000004    ....    DCD    67108868
        0x0000628c:    00060000    ....    DCD    393216
        0x00006290:    00800100    ....    DCD    8388864
        0x00006294:    07000004    ....    DCD    117440516
        0x00006298:    ff07e0ff    ....    DCD    4278706431
        0x0000629c:    180004f0    ....    DCD    402654448
        0x000062a0:    00080000    ....    DCD    524288
        0x000062a4:    00000800    ....    DCD    2048
        0x000062a8:    08000008    ....    DCD    134217736
        0x000062ac:    04080000    ....    DCD    67633152
        0x000062b0:    ff071000    ....    DCD    4278652928
        0x000062b4:    000004e0    ....    DCD    1248
        0x000062b8:    06000004    ....    DCD    100663300
        0x000062bc:    e0070000    ....    DCD    3758555136
        0x000062c0:    00fe0700    ....    DCD    16647936
        0x000062c4:    00e01f04    ....    DCD    14688004
        0x000062c8:    0000f801    ....    DCD    63489
        0x000062cc:    e0010038    8...    DCD    3758161976
        0x000062d0:    07003e04    .>..    DCD    117456388
        0x000062d4:    000600c0    ....    DCD    393408
        0x000062d8:    00000400    ....    DCD    1024
        0x000062dc:    07000004    ....    DCD    117440516
        0x000062e0:    ff0700e0    ....    DCD    4278649056
        0x000062e4:    f81f04c0    ....    DCD    4162782400
        0x000062e8:    07c00700    ....    DCD    130025216
        0x000062ec:    ff0700f8    ....    DCD    4278649080
        0x000062f0:    f83f0480    ..?.    DCD    4164879488
        0x000062f4:    04c00700    ....    DCD    79693568
        0x000062f8:    000700f8    ....    DCD    459000
        0x000062fc:    00000400    ....    DCD    1024
        0x00006300:    04000000    ....    DCD    67108864
        0x00006304:    00060800    ....    DCD    395264
        0x00006308:    78c00718    ...x    DCD    2025850648
        0x0000630c:    00c8f105    ....    DCD    13168901
        0x00006310:    1f00003e    >...    DCD    520093758
        0x00006314:    e8630480    ..c.    DCD    3898803328
        0x00006318:    06f88007    ....    DCD    116948999
        0x0000631c:    00041800    ....    DCD    268288
        0x00006320:    00000008    ....    DCD    8
        0x00006324:    06000004    ....    DCD    100663300
        0x00006328:    80070000    ....    DCD    2147942400
        0x0000632c:    08e00700    ....    DCD    148899584
        0x00006330:    00087c04    .|..    DCD    556036
        0x00006334:    0700f81f    ....    DCD    117504031
        0x00006338:    081800f8    ....    DCD    135790840
        0x0000633c:    0708e004    ....    DCD    118022148
        0x00006340:    00060000    ....    DCD    393216
        0x00006344:    00000400    ....    DCD    1024
        0x00006348:    01000000    ....    DCD    16777216
        0x0000634c:    00060800    ....    DCD    395264
        0x00006350:    f8000438    8...    DCD    4160750648
        0x00006354:    04e80304    ....    DCD    82313988
        0x00006358:    7c04080f    ...|    DCD    2080638991
        0x0000635c:    08f00508    ....    DCD    149947656
        0x00006360:    0708c007    ....    DCD    118013959
        0x00006364:    00041800    ....    DCD    268288
        0x00006368:    00000060    `...    DCD    96
        0x0000636c:    00000000    ....    DCD    0
        0x00006370:    00000000    ....    DCD    0
        0x00006374:    00000000    ....    DCD    0
        0x00006378:    3f000000    ...?    DCD    1056964608
        0x0000637c:    0020feff    .. .    DCD    2162431
        0x00006380:    02002002    . ..    DCD    33562626
        0x00006384:    20020020     ..     DCD    537002016
        0x00006388:    00200200    .. .    DCD    2097664
        0x0000638c:    00000002    ....    DCD    2
        0x00006390:    00000000    ....    DCD    0
        0x00006394:    00080000    ....    DCD    524288
        0x00006398:    00000700    ....    DCD    1792
        0x0000639c:    0000c000    ....    DCD    49152
        0x000063a0:    06000038    8...    DCD    100663352
        0x000063a4:    c0010000    ....    DCD    3221291008
        0x000063a8:    00300000    ..0.    DCD    3145728
        0x000063ac:    00000e00    ....    DCD    3584
        0x000063b0:    00000001    ....    DCD    1
        0x000063b4:    00000000    ....    DCD    0
        0x000063b8:    00200000    .. .    DCD    2097152
        0x000063bc:    02002002    . ..    DCD    33562626
        0x000063c0:    20020020     ..     DCD    537002016
        0x000063c4:    00200200    .. .    DCD    2097664
        0x000063c8:    feff3f02    .?..    DCD    4278140674
        0x000063cc:    00000000    ....    DCD    0
        0x000063d0:    00000000    ....    DCD    0
        0x000063d4:    00000000    ....    DCD    0
        0x000063d8:    00000000    ....    DCD    0
        0x000063dc:    00000000    ....    DCD    0
        0x000063e0:    00000800    ....    DCD    2048
        0x000063e4:    30000010    ...0    DCD    805306384
        0x000063e8:    00200000    .. .    DCD    2097152
        0x000063ec:    00003000    .0..    DCD    12288
        0x000063f0:    08000010    ....    DCD    134217744
        0x000063f4:    00000000    ....    DCD    0
        0x000063f8:    00000000    ....    DCD    0
        0x000063fc:    00010000    ....    DCD    65536
        0x00006400:    00000100    ....    DCD    256
        0x00006404:    01000001    ....    DCD    16777217
        0x00006408:    00010000    ....    DCD    65536
        0x0000640c:    00000100    ....    DCD    256
        0x00006410:    01000001    ....    DCD    16777217
        0x00006414:    00010000    ....    DCD    65536
        0x00006418:    00000100    ....    DCD    256
        0x0000641c:    01000001    ....    DCD    16777217
        0x00006420:    00000000    ....    DCD    0
        0x00006424:    00000000    ....    DCD    0
        0x00006428:    00002000    . ..    DCD    8192
        0x0000642c:    10000020     ...    DCD    268435488
        0x00006430:    00100000    ....    DCD    1048576
        0x00006434:    00000000    ....    DCD    0
        0x00006438:    00000000    ....    DCD    0
        0x0000643c:    00000000    ....    DCD    0
        0x00006440:    00000000    ....    DCD    0
        0x00006444:    00000000    ....    DCD    0
        0x00006448:    1900f000    ....    DCD    419491840
        0x0000644c:    181b00f8    ....    DCD    404422904
        0x00006450:    00082200    ."..    DCD    532992
        0x00006454:    24000826    &..$    DCD    603981862
        0x00006458:    10240008    ..$.    DCD    270794760
        0x0000645c:    00f83f00    .?..    DCD    16269056
        0x00006460:    0000f81f    ....    DCD    63519
        0x00006464:    18000008    ....    DCD    402653192
        0x00006468:    04000000    ....    DCD    67108864
        0x0000646c:    ff070000    ....    DCD    4278648832
        0x00006470:    f0ff0ff8    ....    DCD    4043247608
        0x00006474:    00181800    ....    DCD    1579008
        0x00006478:    20000810    ...     DCD    536872976
        0x0000647c:    08200008    .. .    DCD    136314888
        0x00006480:    00183000    .0..    DCD    1585152
        0x00006484:    0f00f01f    ....    DCD    251719711
        0x00006488:    000000c0    ....    DCD    192
        0x0000648c:    00000000    ....    DCD    0
        0x00006490:    1f00c007    ....    DCD    520142855
        0x00006494:    301800f0    ...0    DCD    806879472
        0x00006498:    00082000    . ..    DCD    532480
        0x0000649c:    20000820     ..     DCD    536872992
        0x000064a0:    083c0008    ..<.    DCD    138149896
        0x000064a4:    00101c00    ....    DCD    1055744
        0x000064a8:    00006000    .`..    DCD    24576
        0x000064ac:    00000000    ....    DCD    0
        0x000064b0:    00000000    ....    DCD    0
        0x000064b4:    1f00c007    ....    DCD    520142855
        0x000064b8:    183800f0    ..8.    DCD    406323440
        0x000064bc:    00082000    . ..    DCD    532480
        0x000064c0:    20000820     ..     DCD    536872992
        0x000064c4:    10100408    ....    DCD    269485064
        0x000064c8:    0ff8ff07    ....    DCD    267976455
        0x000064cc:    0000f0ff    ....    DCD    61695
        0x000064d0:    00000010    ....    DCD    16
        0x000064d4:    00000000    ....    DCD    0
        0x000064d8:    07000000    ....    DCD    117440512
        0x000064dc:    f01f00c0    ....    DCD    4028563648
        0x000064e0:    00301200    ..0.    DCD    3150336
        0x000064e4:    22001822    ".."    DCD    570431522
        0x000064e8:    08220008    ..".    DCD    136445960
        0x000064ec:    00083200    .2..    DCD    537088
        0x000064f0:    0e00101e    ....    DCD    234885150
        0x000064f4:    00000020     ...    DCD    32
        0x000064f8:    00000000    ....    DCD    0
        0x000064fc:    20000020     ..     DCD    536870944
        0x00006500:    08200008    .. .    DCD    136314888
        0x00006504:    03f8ff01    ....    DCD    66649857
        0x00006508:    2006f8ff    ...     DCD    537327871
        0x0000650c:    08200408    .. .    DCD    136315912
        0x00006510:    07082004    . ..    DCD    117972996
        0x00006514:    00030020     ...    DCD    196640
        0x00006518:    00000000    ....    DCD    0
        0x0000651c:    00000000    ....    DCD    0
        0x00006520:    0e000e00    ....    DCD    234884608
        0x00006524:    f31f006e    n...    DCD    4078895214
        0x00006528:    00b13100    .1..    DCD    11612416
        0x0000652c:    2000b120     ..     DCD    536916256
        0x00006530:    913100b1    ..1.    DCD    2435907761
        0x00006534:    00131f00    ....    DCD    1253120
        0x00006538:    20001e2e    ...     DCD    536878638
        0x0000653c:    0030000e    ..0.    DCD    3145742
        0x00006540:    04000000    ....    DCD    67108864
        0x00006544:    ff070800    ....    DCD    4278650880
        0x00006548:    f8ff0ff8    ....    DCD    4177465336
        0x0000654c:    00081000    ....    DCD    528384
        0x00006550:    20000020     ..     DCD    536870944
        0x00006554:    08200000    .. .    DCD    136314880
        0x00006558:    00f83f00    .?..    DCD    16269056
        0x0000655c:    0000f81f    ....    DCD    63519
        0x00006560:    00000008    ....    DCD    8
        0x00006564:    00000000    ....    DCD    0
        0x00006568:    20000000    ...     DCD    536870912
        0x0000656c:    08200008    .. .    DCD    136314888
        0x00006570:    06082000    . ..    DCD    101195776
        0x00006574:    3f06f83f    ?..?    DCD    1057421375
        0x00006578:    080000f8    ....    DCD    134217976
        0x0000657c:    00080000    ....    DCD    524288
        0x00006580:    00000800    ....    DCD    2048
        0x00006584:    00000000    ....    DCD    0
        0x00006588:    00000000    ....    DCD    0
        0x0000658c:    00000000    ....    DCD    0
        0x00006590:    03000003    ....    DCD    50331651
        0x00006594:    00012000    . ..    DCD    73728
        0x00006598:    20000120     ..     DCD    536871200
        0x0000659c:    fe3f0603    ..?.    DCD    4265543171
        0x000065a0:    00fc3f06    .?..    DCD    16531206
        0x000065a4:    00000000    ....    DCD    0
        0x000065a8:    00000000    ....    DCD    0
        0x000065ac:    04000000    ....    DCD    67108864
        0x000065b0:    ff070800    ....    DCD    4278650880
        0x000065b4:    f8ff0ff8    ....    DCD    4177465336
        0x000065b8:    00880100    ....    DCD    8913152
        0x000065bc:    2f000003    .../    DCD    788529155
        0x000065c0:    f83800c0    ..8.    DCD    4164419776
        0x000065c4:    00382000    . 8.    DCD    3678208
        0x000065c8:    00000820     ...    DCD    2080
        0x000065cc:    00000008    ....    DCD    8
        0x000065d0:    00000000    ....    DCD    0
        0x000065d4:    00040000    ....    DCD    262144
        0x000065d8:    08000408    ....    DCD    134218760
        0x000065dc:    07080004    ....    DCD    117964804
        0x000065e0:    ff0ff8ff    ....    DCD    4279236863
        0x000065e4:    080000f8    ....    DCD    134217976
        0x000065e8:    00080000    ....    DCD    524288
        0x000065ec:    00000800    ....    DCD    2048
        0x000065f0:    00000000    ....    DCD    0
        0x000065f4:    00082000    . ..    DCD    532480
        0x000065f8:    3f00f83f    ?..?    DCD    1057028159
        0x000065fc:    081000f8    ....    DCD    135266552
        0x00006600:    00002000    . ..    DCD    8192
        0x00006604:    3f00f83f    ?..?    DCD    1057028159
        0x00006608:    081000f8    ....    DCD    135266552
        0x0000660c:    00002000    . ..    DCD    8192
        0x00006610:    3f00f83f    ?..?    DCD    1057028159
        0x00006614:    080000f8    ....    DCD    134217976
        0x00006618:    00000000    ....    DCD    0
        0x0000661c:    3f000820     ..?    DCD    1056966688
        0x00006620:    f83f00f8    ..?.    DCD    4164878584
        0x00006624:    00081000    ....    DCD    528384
        0x00006628:    20000010    ...     DCD    536870928
        0x0000662c:    08200000    .. .    DCD    136314880
        0x00006630:    00f83f00    .?..    DCD    16269056
        0x00006634:    0000f81f    ....    DCD    63519
        0x00006638:    00000008    ....    DCD    8
        0x0000663c:    00000000    ....    DCD    0
        0x00006640:    0f00c007    ....    DCD    251707399
        0x00006644:    301800f0    ...0    DCD    806879472
        0x00006648:    00083000    .0..    DCD    536576
        0x0000664c:    20000820     ..     DCD    536872992
        0x00006650:    08300008    ..0.    DCD    137363464
        0x00006654:    00301800    ..0.    DCD    3151872
        0x00006658:    0700f00f    ....    DCD    117501967
        0x0000665c:    000000c0    ....    DCD    192
        0x00006660:    00000000    ....    DCD    0
        0x00006664:    3f000120     ..?    DCD    1056964896
        0x00006668:    ff3f00ff    ..?.    DCD    4282319103
        0x0000666c:    00111000    ....    DCD    1118208
        0x00006670:    20000920     ..     DCD    536873248
        0x00006674:    08200008    .. .    DCD    136314888
        0x00006678:    00383000    .08.    DCD    3682304
        0x0000667c:    0f00f01f    ....    DCD    251719711
        0x00006680:    000000c0    ....    DCD    192
        0x00006684:    00000000    ....    DCD    0
        0x00006688:    1f00c007    ....    DCD    520142855
        0x0000668c:    183800f0    ..8.    DCD    406323440
        0x00006690:    00082000    . ..    DCD    532480
        0x00006694:    20000820     ..     DCD    536872992
        0x00006698:    11100009    ....    DCD    286261257
        0x0000669c:    00ff1f00    ....    DCD    16719616
        0x000066a0:    0000ff3f    ?...    DCD    65343
        0x000066a4:    00000001    ....    DCD    1
        0x000066a8:    00082000    . ..    DCD    532480
        0x000066ac:    20000820     ..     DCD    536872992
        0x000066b0:    f83f0008    ..?.    DCD    4164878344
        0x000066b4:    00f83f00    .?..    DCD    16269056
        0x000066b8:    10000808    ....    DCD    268437512
        0x000066bc:    08200008    .. .    DCD    136314888
        0x000066c0:    00002000    . ..    DCD    8192
        0x000066c4:    30000030    0..0    DCD    805306416
        0x000066c8:    00000000    ....    DCD    0
        0x000066cc:    00000000    ....    DCD    0
        0x000066d0:    0c000000    ....    DCD    201326592
        0x000066d4:    181e0078    x...    DCD    404619384
        0x000066d8:    00083300    .3..    DCD    537344
        0x000066dc:    21000823    #..!    DCD    553650211
        0x000066e0:    88210008    ..!.    DCD    2283864072
        0x000066e4:    00982100    .!..    DCD    9969920
        0x000066e8:    3800f030    0..8    DCD    939585584
        0x000066ec:    00000060    `...    DCD    96
        0x000066f0:    00000000    ....    DCD    0
        0x000066f4:    20000020     ..     DCD    536870944
        0x000066f8:    00200000    .. .    DCD    2097152
        0x000066fc:    03f0ff00    ....    DCD    66125568
        0x00006700:    2000f8ff    ...     DCD    536934655
        0x00006704:    08200008    .. .    DCD    136314888
        0x00006708:    00082000    . ..    DCD    532480
        0x0000670c:    00003000    .0..    DCD    12288
        0x00006710:    00000000    ....    DCD    0
        0x00006714:    00000000    ....    DCD    0
        0x00006718:    3f000020     ..?    DCD    1056964640
        0x0000671c:    f87f00f0    ....    DCD    4169072880
        0x00006720:    00180000    ....    DCD    1572864
        0x00006724:    00000800    ....    DCD    2048
        0x00006728:    10200008    .. .    DCD    270532616
        0x0000672c:    00f83f00    .?..    DCD    16269056
        0x00006730:    0000f07f    ....    DCD    61567
        0x00006734:    00000010    ....    DCD    16
        0x00006738:    00000000    ....    DCD    0
        0x0000673c:    30000020     ..0    DCD    805306400
        0x00006740:    003c0000    ..<.    DCD    3932160
        0x00006744:    00803f00    .?..    DCD    8404736
        0x00006748:    0000f023    #...    DCD    61475
        0x0000674c:    70000078    x..p    DCD    1879048312
        0x00006750:    00802300    .#..    DCD    8397568
        0x00006754:    3000003c    <..0    DCD    805306428
        0x00006758:    00200000    .. .    DCD    2097152
        0x0000675c:    00002000    . ..    DCD    8192
        0x00006760:    3f00003c    <..?    DCD    1056964668
        0x00006764:    f82300e0    ..#.    DCD    4163043552
        0x00006768:    00e00000    ....    DCD    14680064
        0x0000676c:    3e000027    '..>    DCD    1040187431
        0x00006770:    e03f0000    ..?.    DCD    3762225152
        0x00006774:    00f82100    .!..    DCD    16261376
        0x00006778:    3e00e001    ...>    DCD    1040244737
        0x0000677c:    00200000    .. .    DCD    2097152
        0x00006780:    00000000    ....    DCD    0
        0x00006784:    20000820     ..     DCD    536872992
        0x00006788:    38380008    ..88    DCD    943194120
        0x0000678c:    00683e00    .>h.    DCD    6831616
        0x00006790:    03008027    '...    DCD    50364455
        0x00006794:    f82c00c8    ..,.    DCD    4163633352
        0x00006798:    00383800    .88.    DCD    3684352
        0x0000679c:    20001820     ..     DCD    536877088
        0x000067a0:    00000008    ....    DCD    8
        0x000067a4:    00000000    ....    DCD    0
        0x000067a8:    30000020     ..0    DCD    805306400
        0x000067ac:    013c0003    ..<.    DCD    20709379
        0x000067b0:    00833f00    .?..    DCD    8601344
        0x000067b4:    0000ec23    #...    DCD    60451
        0x000067b8:    80230070    p.#.    DCD    2149777520
        0x000067bc:    00003c00    .<..    DCD    15360
        0x000067c0:    20000020     ..     DCD    536870944
        0x000067c4:    00000000    ....    DCD    0
        0x000067c8:    00000000    ....    DCD    0
        0x000067cc:    38000000    ...8    DCD    939524096
        0x000067d0:    38200008    .. 8    DCD    941621256
        0x000067d4:    00f82000    . ..    DCD    16261120
        0x000067d8:    2f00e823    #../    DCD    788588579
        0x000067dc:    083e0088    ..>.    DCD    138281096
        0x000067e0:    00083800    .8..    DCD    538624
        0x000067e4:    00001820     ...    DCD    6176
        0x000067e8:    00000070    p...    DCD    112
        0x000067ec:    00000000    ....    DCD    0
        0x000067f0:    00000000    ....    DCD    0
        0x000067f4:    00000000    ....    DCD    0
        0x000067f8:    00000000    ....    DCD    0
        0x000067fc:    14000008    ....    DCD    335544328
        0x00006800:    fcf71f00    ....    DCD    4244053760
        0x00006804:    20060030    0..     DCD    537264176
        0x00006808:    00000200    ....    DCD    512
        0x0000680c:    00000000    ....    DCD    0
        0x00006810:    00000000    ....    DCD    0
        0x00006814:    00000000    ....    DCD    0
        0x00006818:    00000000    ....    DCD    0
        0x0000681c:    00000000    ....    DCD    0
        0x00006820:    ffff0000    ....    DCD    4294901760
        0x00006824:    000000ff    ....    DCD    255
        0x00006828:    00000000    ....    DCD    0
        0x0000682c:    00000000    ....    DCD    0
        0x00006830:    00000000    ....    DCD    0
        0x00006834:    00000000    ....    DCD    0
        0x00006838:    00200000    .. .    DCD    2097152
        0x0000683c:    06003002    .0..    DCD    100675586
        0x00006840:    00fcf71f    ....    DCD    16578335
        0x00006844:    08000014    ....    DCD    134217748
        0x00006848:    00000000    ....    DCD    0
        0x0000684c:    00000000    ....    DCD    0
        0x00006850:    00000000    ....    DCD    0
        0x00006854:    00000000    ....    DCD    0
        0x00006858:    18000000    ....    DCD    402653184
        0x0000685c:    00600000    ..`.    DCD    6291456
        0x00006860:    00004000    .@..    DCD    16384
        0x00006864:    20000040    @..     DCD    536870976
        0x00006868:    00100000    ....    DCD    1048576
        0x0000686c:    00000800    ....    DCD    2048
        0x00006870:    04000004    ....    DCD    67108868
        0x00006874:    000c0000    ....    DCD    786432
        0x00006878:    00001000    ....    DCD    4096
        0x0000687c:    73255f74    t_%s    DCD    1931829108
        0x00006880:    48202000    .  H    DCD    1210064896
        0x00006884:    46647261    ardF    DCD    1180988001
        0x00006888:    746c7561    ault    DCD    1953264993
        0x0000688c:    000a0a21    !...    DCD    657953
        0x00006890:    72746953    Sitr    DCD    1920231763
        0x00006894:    78696e6f    onix    DCD    2020175471
        0x00006898:    37545320     ST7    DCD    928273184
        0x0000689c:    00393837    789.    DCD    3749943
        0x000068a0:    00495053    SPI.    DCD    4804691
        0x000068a4:    72746953    Sitr    DCD    1920231763
        0x000068a8:    78696e6f    onix    DCD    2020175471
        0x000068ac:    00000000    ....    DCD    0
    Region$$Table$$Base
        0x000068b0:    000068d0    .h..    DCD    26832
        0x000068b4:    20000000    ...     DCD    536870912
        0x000068b8:    00000014    ....    DCD    20
        0x000068bc:    0000474e    NG..    DCD    18254
        0x000068c0:    000068e4    .h..    DCD    26852
        0x000068c4:    20000018    ...     DCD    536870936
        0x000068c8:    00001ea8    ....    DCD    7848
        0x000068cc:    0000475e    ^G..    DCD    18270
    Region$$Table$$Limit

** Section #2 'ER_RW' (SHT_PROGBITS) [SHF_ALLOC + SHF_WRITE]
    Size   : 20 bytes (alignment 4)
    Address: 0x20000000


** Section #3 'ER_ZI' (SHT_NOBITS) [SHF_ALLOC + SHF_WRITE]
    Size   : 7848 bytes (alignment 8)
    Address: 0x20000018


** Section #4 '.debug_abbrev' (SHT_PROGBITS)
    Size   : 4805 bytes


** Section #5 '.debug_frame' (SHT_PROGBITS)
    Size   : 7800 bytes


** Section #6 '.debug_info' (SHT_PROGBITS)
    Size   : 34840 bytes


** Section #7 '.debug_line' (SHT_PROGBITS)
    Size   : 37373 bytes


** Section #8 '.debug_ranges' (SHT_PROGBITS)
    Size   : 2224 bytes


** Section #9 '.debug_str' (SHT_PROGBITS)
    Size   : 31062 bytes


** Section #10 '.symtab' (SHT_SYMTAB)
    Size   : 10272 bytes (alignment 4)
    String table #11 '.strtab'
    Last local symbol no. 381


** Section #11 '.strtab' (SHT_STRTAB)
    Size   : 8112 bytes


** Section #12 '.note' (SHT_NOTE)
    Size   : 28 bytes (alignment 4)


** Section #13 '.comment' (SHT_PROGBITS)
    Size   : 1556 bytes


** Section #14 '.shstrtab' (SHT_STRTAB)
    Size   : 136 bytes


